TN:
SF:/home/usup/Desktop/CPP2_s21_containers-0/src/general_btee.h
FN:18,_ZN3s2113StructGeneralIiEC2Ei
FN:18,_ZN3s2113StructGeneralISt4pairIKiiEEC2ES3_
FN:18,_ZN3s2113StructGeneralISt4pairIKiNSt7__cxx1112basic_stringIcSt11char_traitsIcESaIcEEEEEC2ES9_
FN:18,_ZN3s2113StructGeneralINSt7__cxx1112basic_stringIcSt11char_traitsIcESaIcEEEEC2ES6_
FN:26,_ZN3s2112ClosestRightIKNS_13StructGeneralINSt7__cxx1112basic_stringIcSt11char_traitsIcESaIcEEEEEEEPT_SB_
FN:26,_ZN3s2112ClosestRightIKNS_13StructGeneralISt4pairIKiNSt7__cxx1112basic_stringIcSt11char_traitsIcESaIcEEEEEEEEPT_SE_
FN:26,_ZN3s2112ClosestRightIKNS_13StructGeneralIiEEEEPT_S5_
FN:26,_ZN3s2112ClosestRightINS_13StructGeneralISt4pairIKiNSt7__cxx1112basic_stringIcSt11char_traitsIcESaIcEEEEEEEEPT_SD_
FN:26,_ZN3s2112ClosestRightINS_13StructGeneralIiEEEEPT_S4_
FN:26,_ZN3s2112ClosestRightIKNS_13StructGeneralISt4pairIKiiEEEEEPT_S8_
FN:26,_ZN3s2112ClosestRightINS_13StructGeneralINSt7__cxx1112basic_stringIcSt11char_traitsIcESaIcEEEEEEEPT_SA_
FN:26,_ZN3s2112ClosestRightINS_13StructGeneralISt4pairIKiiEEEEEPT_S7_
FN:43,_ZN3s2111ClosestLeftINS_13StructGeneralIiEEEEPT_S4_
FN:43,_ZN3s2111ClosestLeftIKNS_13StructGeneralISt4pairIKiNSt7__cxx1112basic_stringIcSt11char_traitsIcESaIcEEEEEEEEPT_SE_
FN:43,_ZN3s2111ClosestLeftINS_13StructGeneralINSt7__cxx1112basic_stringIcSt11char_traitsIcESaIcEEEEEEEPT_SA_
FN:43,_ZN3s2111ClosestLeftINS_13StructGeneralISt4pairIKiNSt7__cxx1112basic_stringIcSt11char_traitsIcESaIcEEEEEEEEPT_SD_
FN:43,_ZN3s2111ClosestLeftINS_13StructGeneralISt4pairIKiiEEEEEPT_S7_
FN:43,_ZN3s2111ClosestLeftIKNS_13StructGeneralINSt7__cxx1112basic_stringIcSt11char_traitsIcESaIcEEEEEEEPT_SB_
FN:72,_ZN3s2115IteratorGeneralIiSt4lessIiEEC2EPNS_13StructGeneralIiEEm
FN:72,_ZN3s2115IteratorGeneralISt4pairIKiiENS_10My_CompareIS3_St7greaterIiEEEEC2EPNS_13StructGeneralIS3_EEm
FN:72,_ZN3s2115IteratorGeneralISt4pairIKiNSt7__cxx1112basic_stringIcSt11char_traitsIcESaIcEEEENS_10My_CompareIS9_St7greaterIiEEEEC2EPNS_13StructGeneralIS9_EEm
FN:72,_ZN3s2115IteratorGeneralISt4pairIKiiENS_10My_CompareIS3_St4lessIiEEEEC2EPNS_13StructGeneralIS3_EEm
FN:72,_ZN3s2115IteratorGeneralIiSt7greaterIiEEC2EPNS_13StructGeneralIiEEm
FN:72,_ZN3s2115IteratorGeneralISt4pairIKiNSt7__cxx1112basic_stringIcSt11char_traitsIcESaIcEEEENS_10My_CompareIS9_St4lessIiEEEEC2EPNS_13StructGeneralIS9_EEm
FN:72,_ZN3s2115IteratorGeneralINSt7__cxx1112basic_stringIcSt11char_traitsIcESaIcEEESt7greaterIS6_EEC2EPNS_13StructGeneralIS6_EEm
FN:72,_ZN3s2115IteratorGeneralINSt7__cxx1112basic_stringIcSt11char_traitsIcESaIcEEESt4lessIS6_EEC2EPNS_13StructGeneralIS6_EEm
FN:74,_ZNK3s2115IteratorGeneralIiSt4lessIiEEdeEv
FN:74,_ZNK3s2115IteratorGeneralISt4pairIKiNSt7__cxx1112basic_stringIcSt11char_traitsIcESaIcEEEENS_10My_CompareIS9_St4lessIiEEEEdeEv
FN:74,_ZNK3s2115IteratorGeneralIiSt7greaterIiEEdeEv
FN:74,_ZNK3s2115IteratorGeneralISt4pairIKiiENS_10My_CompareIS3_St7greaterIiEEEEdeEv
FN:74,_ZNK3s2115IteratorGeneralINSt7__cxx1112basic_stringIcSt11char_traitsIcESaIcEEESt4lessIS6_EEdeEv
FN:74,_ZNK3s2115IteratorGeneralISt4pairIKiiENS_10My_CompareIS3_St4lessIiEEEEdeEv
FN:75,_ZNK3s2115IteratorGeneralISt4pairIKiNSt7__cxx1112basic_stringIcSt11char_traitsIcESaIcEEEENS_10My_CompareIS9_St4lessIiEEEEptEv
FN:75,_ZNK3s2115IteratorGeneralISt4pairIKiiENS_10My_CompareIS3_St4lessIiEEEEptEv
FN:76,_ZN3s2115IteratorGeneralIiSt7greaterIiEEppEv
FN:76,_ZN3s2115IteratorGeneralINSt7__cxx1112basic_stringIcSt11char_traitsIcESaIcEEESt4lessIS6_EEppEv
FN:76,_ZN3s2115IteratorGeneralISt4pairIKiiENS_10My_CompareIS3_St4lessIiEEEEppEv
FN:76,_ZN3s2115IteratorGeneralISt4pairIKiiENS_10My_CompareIS3_St7greaterIiEEEEppEv
FN:76,_ZN3s2115IteratorGeneralIiSt4lessIiEEppEv
FN:76,_ZN3s2115IteratorGeneralISt4pairIKiNSt7__cxx1112basic_stringIcSt11char_traitsIcESaIcEEEENS_10My_CompareIS9_St4lessIiEEEEppEv
FN:85,_ZN3s2115IteratorGeneralIiSt7greaterIiEEppEi
FN:85,_ZN3s2115IteratorGeneralISt4pairIKiiENS_10My_CompareIS3_St7greaterIiEEEEppEi
FN:85,_ZN3s2115IteratorGeneralISt4pairIKiiENS_10My_CompareIS3_St4lessIiEEEEppEi
FN:85,_ZN3s2115IteratorGeneralISt4pairIKiNSt7__cxx1112basic_stringIcSt11char_traitsIcESaIcEEEENS_10My_CompareIS9_St4lessIiEEEEppEi
FN:85,_ZN3s2115IteratorGeneralIiSt4lessIiEEppEi
FN:85,_ZN3s2115IteratorGeneralINSt7__cxx1112basic_stringIcSt11char_traitsIcESaIcEEESt4lessIS6_EEppEi
FN:90,_ZN3s2115IteratorGeneralINSt7__cxx1112basic_stringIcSt11char_traitsIcESaIcEEESt4lessIS6_EEmmEv
FN:90,_ZN3s2115IteratorGeneralISt4pairIKiNSt7__cxx1112basic_stringIcSt11char_traitsIcESaIcEEEENS_10My_CompareIS9_St4lessIiEEEEmmEv
FN:90,_ZN3s2115IteratorGeneralIiSt7greaterIiEEmmEv
FN:90,_ZN3s2115IteratorGeneralISt4pairIKiiENS_10My_CompareIS3_St7greaterIiEEEEmmEv
FN:99,_ZN3s2115IteratorGeneralISt4pairIKiNSt7__cxx1112basic_stringIcSt11char_traitsIcESaIcEEEENS_10My_CompareIS9_St4lessIiEEEEmmEi
FN:99,_ZN3s2115IteratorGeneralISt4pairIKiiENS_10My_CompareIS3_St7greaterIiEEEEmmEi
FN:99,_ZN3s2115IteratorGeneralIiSt7greaterIiEEmmEi
FN:99,_ZN3s2115IteratorGeneralINSt7__cxx1112basic_stringIcSt11char_traitsIcESaIcEEESt4lessIS6_EEmmEi
FN:104,_ZNK3s2115IteratorGeneralINSt7__cxx1112basic_stringIcSt11char_traitsIcESaIcEEESt4lessIS6_EEeqERKS9_
FN:104,_ZNK3s2115IteratorGeneralISt4pairIKiNSt7__cxx1112basic_stringIcSt11char_traitsIcESaIcEEEENS_10My_CompareIS9_St4lessIiEEEEeqERKSE_
FN:104,_ZNK3s2115IteratorGeneralIiSt7greaterIiEEeqERKS3_
FN:104,_ZNK3s2115IteratorGeneralISt4pairIKiiENS_10My_CompareIS3_St4lessIiEEEEeqERKS8_
FN:104,_ZNK3s2115IteratorGeneralISt4pairIKiiENS_10My_CompareIS3_St7greaterIiEEEEeqERKS8_
FN:110,_ZNK3s2115IteratorGeneralIiSt7greaterIiEEneERKS3_
FN:110,_ZNK3s2115IteratorGeneralISt4pairIKiNSt7__cxx1112basic_stringIcSt11char_traitsIcESaIcEEEENS_10My_CompareIS9_St4lessIiEEEEneERKSE_
FN:110,_ZNK3s2115IteratorGeneralINSt7__cxx1112basic_stringIcSt11char_traitsIcESaIcEEESt4lessIS6_EEneERKS9_
FN:110,_ZNK3s2115IteratorGeneralISt4pairIKiiENS_10My_CompareIS3_St7greaterIiEEEEneERKS8_
FN:135,_ZN3s2120IteratorGeneralConstISt4pairIKiNSt7__cxx1112basic_stringIcSt11char_traitsIcESaIcEEEENS_10My_CompareIS9_St4lessIiEEEEC2EPNS_13StructGeneralIS9_EEm
FN:135,_ZN3s2120IteratorGeneralConstIiSt4lessIiEEC2EPNS_13StructGeneralIiEEm
FN:135,_ZN3s2120IteratorGeneralConstINSt7__cxx1112basic_stringIcSt11char_traitsIcESaIcEEESt7greaterIS6_EEC2EPNS_13StructGeneralIS6_EEm
FN:135,_ZN3s2120IteratorGeneralConstISt4pairIKiiENS_10My_CompareIS3_St4lessIiEEEEC2EPNS_13StructGeneralIS3_EEm
FN:135,_ZN3s2120IteratorGeneralConstISt4pairIKiiENS_10My_CompareIS3_St7greaterIiEEEEC2EPNS_13StructGeneralIS3_EEm
FN:135,_ZN3s2120IteratorGeneralConstISt4pairIKiNSt7__cxx1112basic_stringIcSt11char_traitsIcESaIcEEEENS_10My_CompareIS9_St7greaterIiEEEEC2EPNS_13StructGeneralIS9_EEm
FN:135,_ZN3s2120IteratorGeneralConstINSt7__cxx1112basic_stringIcSt11char_traitsIcESaIcEEESt4lessIS6_EEC2EPNS_13StructGeneralIS6_EEm
FN:135,_ZN3s2120IteratorGeneralConstIiSt7greaterIiEEC2EPNS_13StructGeneralIiEEm
FN:139,_ZNK3s2120IteratorGeneralConstISt4pairIKiNSt7__cxx1112basic_stringIcSt11char_traitsIcESaIcEEEENS_10My_CompareIS9_St7greaterIiEEEEdeEv
FN:139,_ZNK3s2120IteratorGeneralConstISt4pairIKiiENS_10My_CompareIS3_St4lessIiEEEEdeEv
FN:139,_ZNK3s2120IteratorGeneralConstIiSt4lessIiEEdeEv
FN:139,_ZNK3s2120IteratorGeneralConstINSt7__cxx1112basic_stringIcSt11char_traitsIcESaIcEEESt4lessIS6_EEdeEv
FN:139,_ZNK3s2120IteratorGeneralConstISt4pairIKiNSt7__cxx1112basic_stringIcSt11char_traitsIcESaIcEEEENS_10My_CompareIS9_St4lessIiEEEEdeEv
FN:139,_ZNK3s2120IteratorGeneralConstINSt7__cxx1112basic_stringIcSt11char_traitsIcESaIcEEESt7greaterIS6_EEdeEv
FN:139,_ZNK3s2120IteratorGeneralConstISt4pairIKiiENS_10My_CompareIS3_St7greaterIiEEEEdeEv
FN:139,_ZNK3s2120IteratorGeneralConstIiSt7greaterIiEEdeEv
FN:141,_ZN3s2120IteratorGeneralConstISt4pairIKiiENS_10My_CompareIS3_St7greaterIiEEEEppEv
FN:141,_ZN3s2120IteratorGeneralConstIiSt7greaterIiEEppEv
FN:141,_ZN3s2120IteratorGeneralConstISt4pairIKiNSt7__cxx1112basic_stringIcSt11char_traitsIcESaIcEEEENS_10My_CompareIS9_St4lessIiEEEEppEv
FN:141,_ZN3s2120IteratorGeneralConstISt4pairIKiNSt7__cxx1112basic_stringIcSt11char_traitsIcESaIcEEEENS_10My_CompareIS9_St7greaterIiEEEEppEv
FN:141,_ZN3s2120IteratorGeneralConstINSt7__cxx1112basic_stringIcSt11char_traitsIcESaIcEEESt4lessIS6_EEppEv
FN:141,_ZN3s2120IteratorGeneralConstINSt7__cxx1112basic_stringIcSt11char_traitsIcESaIcEEESt7greaterIS6_EEppEv
FN:150,_ZN3s2120IteratorGeneralConstIiSt7greaterIiEEppEi
FN:150,_ZN3s2120IteratorGeneralConstINSt7__cxx1112basic_stringIcSt11char_traitsIcESaIcEEESt7greaterIS6_EEppEi
FN:150,_ZN3s2120IteratorGeneralConstINSt7__cxx1112basic_stringIcSt11char_traitsIcESaIcEEESt4lessIS6_EEppEi
FN:150,_ZN3s2120IteratorGeneralConstISt4pairIKiiENS_10My_CompareIS3_St7greaterIiEEEEppEi
FN:150,_ZN3s2120IteratorGeneralConstISt4pairIKiNSt7__cxx1112basic_stringIcSt11char_traitsIcESaIcEEEENS_10My_CompareIS9_St4lessIiEEEEppEi
FN:150,_ZN3s2120IteratorGeneralConstISt4pairIKiNSt7__cxx1112basic_stringIcSt11char_traitsIcESaIcEEEENS_10My_CompareIS9_St7greaterIiEEEEppEi
FN:155,_ZN3s2120IteratorGeneralConstINSt7__cxx1112basic_stringIcSt11char_traitsIcESaIcEEESt4lessIS6_EEmmEv
FN:155,_ZN3s2120IteratorGeneralConstISt4pairIKiNSt7__cxx1112basic_stringIcSt11char_traitsIcESaIcEEEENS_10My_CompareIS9_St4lessIiEEEEmmEv
FN:164,_ZN3s2120IteratorGeneralConstINSt7__cxx1112basic_stringIcSt11char_traitsIcESaIcEEESt4lessIS6_EEmmEi
FN:169,_ZNK3s2120IteratorGeneralConstINSt7__cxx1112basic_stringIcSt11char_traitsIcESaIcEEESt4lessIS6_EEeqERKS9_
FN:169,_ZNK3s2120IteratorGeneralConstISt4pairIKiiENS_10My_CompareIS3_St4lessIiEEEEeqERKS8_
FN:175,_ZNK3s2120IteratorGeneralConstISt4pairIKiNSt7__cxx1112basic_stringIcSt11char_traitsIcESaIcEEEENS_10My_CompareIS9_St7greaterIiEEEEneERKSE_
FN:175,_ZNK3s2120IteratorGeneralConstINSt7__cxx1112basic_stringIcSt11char_traitsIcESaIcEEESt4lessIS6_EEneERKS9_
FN:175,_ZNK3s2120IteratorGeneralConstISt4pairIKiiENS_10My_CompareIS3_St4lessIiEEEEneERKS8_
FN:175,_ZNK3s2120IteratorGeneralConstINSt7__cxx1112basic_stringIcSt11char_traitsIcESaIcEEESt7greaterIS6_EEneERKS9_
FN:175,_ZNK3s2120IteratorGeneralConstISt4pairIKiNSt7__cxx1112basic_stringIcSt11char_traitsIcESaIcEEEENS_10My_CompareIS9_St4lessIiEEEEneERKSE_
FN:175,_ZNK3s2120IteratorGeneralConstISt4pairIKiiENS_10My_CompareIS3_St7greaterIiEEEEneERKS8_
FN:175,_ZNK3s2120IteratorGeneralConstIiSt4lessIiEEneERKS3_
FN:175,_ZNK3s2120IteratorGeneralConstIiSt7greaterIiEEneERKS3_
FN:193,_ZN3s215BTreeISt4pairIKiNSt7__cxx1112basic_stringIcSt11char_traitsIcESaIcEEEENS_10My_CompareIS9_St4lessIiEEEEC2Ev
FN:193,_ZN3s215BTreeINSt7__cxx1112basic_stringIcSt11char_traitsIcESaIcEEESt4lessIS6_EEC2Ev
FN:196,_ZN3s215BTreeISt4pairIKiiENS_10My_CompareIS3_St4lessIiEEEEC2IPKS3_EET_SC_b
FN:196,_ZN3s215BTreeIiSt4lessIiEEC2IPKiEET_S7_b
FN:196,_ZN3s215BTreeISt4pairIKiNSt7__cxx1112basic_stringIcSt11char_traitsIcESaIcEEEENS_10My_CompareIS9_St4lessIiEEEEC2INS_15IteratorGeneralIS9_SD_EEEET_SI_b
FN:196,_ZN3s215BTreeISt4pairIKiiENS_10My_CompareIS3_St7greaterIiEEEEC2IPKS3_EET_SC_b
FN:196,_ZN3s215BTreeIiSt7greaterIiEEC2INS_15IteratorGeneralIiS2_EEEET_S7_b
FN:196,_ZN3s215BTreeISt4pairIKiiENS_10My_CompareIS3_St7greaterIiEEEEC2INS_15IteratorGeneralIS3_S7_EEEET_SC_b
FN:196,_ZN3s215BTreeINSt7__cxx1112basic_stringIcSt11char_traitsIcESaIcEEESt4lessIS6_EEC2INS_15IteratorGeneralIS6_S8_EEEET_SD_b
FN:196,_ZN3s215BTreeINSt7__cxx1112basic_stringIcSt11char_traitsIcESaIcEEESt7greaterIS6_EEC2IPKS6_EET_SD_b
FN:196,_ZN3s215BTreeISt4pairIKiNSt7__cxx1112basic_stringIcSt11char_traitsIcESaIcEEEENS_10My_CompareIS9_St4lessIiEEEEC2IPKS9_EET_SI_b
FN:196,_ZN3s215BTreeISt4pairIKiNSt7__cxx1112basic_stringIcSt11char_traitsIcESaIcEEEENS_10My_CompareIS9_St7greaterIiEEEEC2IPKS9_EET_SI_b
FN:196,_ZN3s215BTreeINSt7__cxx1112basic_stringIcSt11char_traitsIcESaIcEEESt4lessIS6_EEC2IPKS6_EET_SD_b
FN:196,_ZN3s215BTreeIiSt7greaterIiEEC2IPKiEET_S7_b
FN:209,_ZN3s215BTreeISt4pairIKiNSt7__cxx1112basic_stringIcSt11char_traitsIcESaIcEEEENS_10My_CompareIS9_St7greaterIiEEEEC2ERKSE_
FN:209,_ZN3s215BTreeINSt7__cxx1112basic_stringIcSt11char_traitsIcESaIcEEESt4lessIS6_EEC2ERKS9_
FN:209,_ZN3s215BTreeINSt7__cxx1112basic_stringIcSt11char_traitsIcESaIcEEESt7greaterIS6_EEC2ERKS9_
FN:209,_ZN3s215BTreeIiSt7greaterIiEEC2ERKS3_
FN:209,_ZN3s215BTreeISt4pairIKiNSt7__cxx1112basic_stringIcSt11char_traitsIcESaIcEEEENS_10My_CompareIS9_St4lessIiEEEEC2ERKSE_
FN:209,_ZN3s215BTreeISt4pairIKiiENS_10My_CompareIS3_St7greaterIiEEEEC2ERKS8_
FN:223,_ZN3s215BTreeISt4pairIKiiENS_10My_CompareIS3_St4lessIiEEEEC2EOS8_
FN:223,_ZN3s215BTreeIiSt4lessIiEEC2EOS3_
FN:225,_ZN3s215BTreeISt4pairIKiNSt7__cxx1112basic_stringIcSt11char_traitsIcESaIcEEEENS_10My_CompareIS9_St4lessIiEEEEaSERKSE_
FN:225,_ZN3s215BTreeINSt7__cxx1112basic_stringIcSt11char_traitsIcESaIcEEESt7greaterIS6_EEaSERKS9_
FN:225,_ZN3s215BTreeIiSt7greaterIiEEaSERKS3_
FN:225,_ZN3s215BTreeISt4pairIKiNSt7__cxx1112basic_stringIcSt11char_traitsIcESaIcEEEENS_10My_CompareIS9_St7greaterIiEEEEaSERKSE_
FN:225,_ZN3s215BTreeISt4pairIKiiENS_10My_CompareIS3_St7greaterIiEEEEaSERKS8_
FN:225,_ZN3s215BTreeINSt7__cxx1112basic_stringIcSt11char_traitsIcESaIcEEESt4lessIS6_EEaSERKS9_
FN:231,_ZN3s215BTreeISt4pairIKiiENS_10My_CompareIS3_St4lessIiEEEEaSEOS8_
FN:231,_ZN3s215BTreeIiSt4lessIiEEaSEOS3_
FN:236,_ZN3s215BTreeISt4pairIKiNSt7__cxx1112basic_stringIcSt11char_traitsIcESaIcEEEENS_10My_CompareIS9_St7greaterIiEEEED2Ev
FN:236,_ZN3s215BTreeINSt7__cxx1112basic_stringIcSt11char_traitsIcESaIcEEESt4lessIS6_EED2Ev
FN:236,_ZN3s215BTreeISt4pairIKiiENS_10My_CompareIS3_St7greaterIiEEEED2Ev
FN:236,_ZN3s215BTreeISt4pairIKiiENS_10My_CompareIS3_St4lessIiEEEED2Ev
FN:236,_ZN3s215BTreeISt4pairIKiNSt7__cxx1112basic_stringIcSt11char_traitsIcESaIcEEEENS_10My_CompareIS9_St4lessIiEEEED2Ev
FN:236,_ZN3s215BTreeIiSt7greaterIiEED2Ev
FN:236,_ZN3s215BTreeINSt7__cxx1112basic_stringIcSt11char_traitsIcESaIcEEESt7greaterIS6_EED2Ev
FN:236,_ZN3s215BTreeIiSt4lessIiEED2Ev
FN:241,_ZNK3s215BTreeIiSt7greaterIiEEltERS3_
FN:241,_ZNK3s215BTreeISt4pairIKiNSt7__cxx1112basic_stringIcSt11char_traitsIcESaIcEEEENS_10My_CompareIS9_St4lessIiEEEEltERSE_
FN:241,_ZNK3s215BTreeINSt7__cxx1112basic_stringIcSt11char_traitsIcESaIcEEESt7greaterIS6_EEltERS9_
FN:241,_ZNK3s215BTreeISt4pairIKiNSt7__cxx1112basic_stringIcSt11char_traitsIcESaIcEEEENS_10My_CompareIS9_St7greaterIiEEEEltERSE_
FN:241,_ZNK3s215BTreeINSt7__cxx1112basic_stringIcSt11char_traitsIcESaIcEEESt4lessIS6_EEltERS9_
FN:241,_ZNK3s215BTreeISt4pairIKiiENS_10My_CompareIS3_St7greaterIiEEEEltERS8_
FN:242,_ZNK3s215BTreeISt4pairIKiNSt7__cxx1112basic_stringIcSt11char_traitsIcESaIcEEEENS_10My_CompareIS9_St7greaterIiEEEEgtERSE_
FN:242,_ZNK3s215BTreeINSt7__cxx1112basic_stringIcSt11char_traitsIcESaIcEEESt7greaterIS6_EEgtERS9_
FN:242,_ZNK3s215BTreeINSt7__cxx1112basic_stringIcSt11char_traitsIcESaIcEEESt4lessIS6_EEgtERS9_
FN:242,_ZNK3s215BTreeISt4pairIKiNSt7__cxx1112basic_stringIcSt11char_traitsIcESaIcEEEENS_10My_CompareIS9_St4lessIiEEEEgtERSE_
FN:242,_ZNK3s215BTreeISt4pairIKiiENS_10My_CompareIS3_St7greaterIiEEEEgtERS8_
FN:242,_ZNK3s215BTreeIiSt7greaterIiEEgtERS3_
FN:243,_ZNK3s215BTreeIiSt7greaterIiEEeqERS3_
FN:243,_ZNK3s215BTreeISt4pairIKiNSt7__cxx1112basic_stringIcSt11char_traitsIcESaIcEEEENS_10My_CompareIS9_St4lessIiEEEEeqERSE_
FN:243,_ZNK3s215BTreeISt4pairIKiNSt7__cxx1112basic_stringIcSt11char_traitsIcESaIcEEEENS_10My_CompareIS9_St7greaterIiEEEEeqERSE_
FN:243,_ZNK3s215BTreeINSt7__cxx1112basic_stringIcSt11char_traitsIcESaIcEEESt4lessIS6_EEeqERS9_
FN:243,_ZNK3s215BTreeISt4pairIKiiENS_10My_CompareIS3_St7greaterIiEEEEeqERS8_
FN:243,_ZNK3s215BTreeINSt7__cxx1112basic_stringIcSt11char_traitsIcESaIcEEESt7greaterIS6_EEeqERS9_
FN:244,_ZNK3s215BTreeISt4pairIKiiENS_10My_CompareIS3_St7greaterIiEEEEneERS8_
FN:244,_ZNK3s215BTreeIiSt7greaterIiEEneERS3_
FN:244,_ZNK3s215BTreeINSt7__cxx1112basic_stringIcSt11char_traitsIcESaIcEEESt4lessIS6_EEneERS9_
FN:244,_ZNK3s215BTreeINSt7__cxx1112basic_stringIcSt11char_traitsIcESaIcEEESt7greaterIS6_EEneERS9_
FN:244,_ZNK3s215BTreeISt4pairIKiNSt7__cxx1112basic_stringIcSt11char_traitsIcESaIcEEEENS_10My_CompareIS9_St4lessIiEEEEneERSE_
FN:244,_ZNK3s215BTreeISt4pairIKiNSt7__cxx1112basic_stringIcSt11char_traitsIcESaIcEEEENS_10My_CompareIS9_St7greaterIiEEEEneERSE_
FN:245,_ZNK3s215BTreeIiSt7greaterIiEEleERS3_
FN:245,_ZNK3s215BTreeINSt7__cxx1112basic_stringIcSt11char_traitsIcESaIcEEESt4lessIS6_EEleERS9_
FN:245,_ZNK3s215BTreeINSt7__cxx1112basic_stringIcSt11char_traitsIcESaIcEEESt7greaterIS6_EEleERS9_
FN:245,_ZNK3s215BTreeISt4pairIKiNSt7__cxx1112basic_stringIcSt11char_traitsIcESaIcEEEENS_10My_CompareIS9_St4lessIiEEEEleERSE_
FN:245,_ZNK3s215BTreeISt4pairIKiiENS_10My_CompareIS3_St7greaterIiEEEEleERS8_
FN:245,_ZNK3s215BTreeISt4pairIKiNSt7__cxx1112basic_stringIcSt11char_traitsIcESaIcEEEENS_10My_CompareIS9_St7greaterIiEEEEleERSE_
FN:246,_ZNK3s215BTreeISt4pairIKiNSt7__cxx1112basic_stringIcSt11char_traitsIcESaIcEEEENS_10My_CompareIS9_St4lessIiEEEEgeERSE_
FN:246,_ZNK3s215BTreeISt4pairIKiNSt7__cxx1112basic_stringIcSt11char_traitsIcESaIcEEEENS_10My_CompareIS9_St7greaterIiEEEEgeERSE_
FN:246,_ZNK3s215BTreeISt4pairIKiiENS_10My_CompareIS3_St7greaterIiEEEEgeERS8_
FN:246,_ZNK3s215BTreeINSt7__cxx1112basic_stringIcSt11char_traitsIcESaIcEEESt4lessIS6_EEgeERS9_
FN:246,_ZNK3s215BTreeINSt7__cxx1112basic_stringIcSt11char_traitsIcESaIcEEESt7greaterIS6_EEgeERS9_
FN:246,_ZNK3s215BTreeIiSt7greaterIiEEgeERS3_
FN:249,_ZN3s215BTreeISt4pairIKiiENS_10My_CompareIS3_St7greaterIiEEEE7emplaceIJS3_S3_S3_S3_EEESt6vectorIS1_INS_15IteratorGeneralIS3_S7_EEbESaISD_EEbDpOT_
FN:249,_ZN3s215BTreeINSt7__cxx1112basic_stringIcSt11char_traitsIcESaIcEEESt4lessIS6_EE7emplaceIJRA2_KcSD_SD_RA3_SB_SF_SF_RA4_SB_EEESt6vectorISt4pairINS_15IteratorGeneralIS6_S8_EEbESaISM_EEbDpOT_
FN:249,_ZN3s215BTreeISt4pairIKiNSt7__cxx1112basic_stringIcSt11char_traitsIcESaIcEEEENS_10My_CompareIS9_St4lessIiEEEE7emplaceIJS9_S9_S9_EEESt6vectorIS1_INS_15IteratorGeneralIS9_SD_EEbESaISJ_EEbDpOT_
FN:249,_ZN3s215BTreeINSt7__cxx1112basic_stringIcSt11char_traitsIcESaIcEEESt4lessIS6_EE7emplaceIJRA2_KcSD_SD_EEESt6vectorISt4pairINS_15IteratorGeneralIS6_S8_EEbESaISI_EEbDpOT_
FN:249,_ZN3s215BTreeIiSt7greaterIiEE7emplaceIJiiiEEESt6vectorISt4pairINS_15IteratorGeneralIiS2_EEbESaIS9_EEbDpOT_
FN:249,_ZN3s215BTreeINSt7__cxx1112basic_stringIcSt11char_traitsIcESaIcEEESt4lessIS6_EE7emplaceIJRA2_KcRA3_SB_SF_EEESt6vectorISt4pairINS_15IteratorGeneralIS6_S8_EEbESaISK_EEbDpOT_
FN:256,_ZN3s215BTreeIiSt7greaterIiEE11equal_rangeERKi
FN:256,_ZN3s215BTreeIiSt4lessIiEE11equal_rangeERKi
FN:260,_ZNK3s215BTreeIiSt4lessIiEE11equal_rangeERKi
FN:265,_ZN3s215BTreeIiSt7greaterIiEE11lower_boundERKi
FN:265,_ZN3s215BTreeIiSt4lessIiEE11lower_boundERKi
FN:277,_ZNK3s215BTreeIiSt4lessIiEE11lower_boundERKi
FN:289,_ZN3s215BTreeIiSt7greaterIiEE11upper_boundERKi
FN:289,_ZN3s215BTreeIiSt4lessIiEE11upper_boundERKi
FN:302,_ZNK3s215BTreeIiSt4lessIiEE11upper_boundERKi
FN:315,_ZN3s215BTreeISt4pairIKiNSt7__cxx1112basic_stringIcSt11char_traitsIcESaIcEEEENS_10My_CompareIS9_St4lessIiEEEE4findERKS9_
FN:315,_ZN3s215BTreeIiSt7greaterIiEE4findERKi
FN:315,_ZN3s215BTreeINSt7__cxx1112basic_stringIcSt11char_traitsIcESaIcEEESt4lessIS6_EE4findERKS6_
FN:315,_ZN3s215BTreeISt4pairIKiiENS_10My_CompareIS3_St7greaterIiEEEE4findERKS3_
FN:315,_ZN3s215BTreeISt4pairIKiiENS_10My_CompareIS3_St4lessIiEEEE4findERKS3_
FN:315,_ZN3s215BTreeIiSt4lessIiEE4findERKi
FN:324,_ZNK3s215BTreeIiSt4lessIiEE4findERKi
FN:324,_ZNK3s215BTreeISt4pairIKiiENS_10My_CompareIS3_St7greaterIiEEEE4findERKS3_
FN:324,_ZNK3s215BTreeIiSt7greaterIiEE4findERKi
FN:324,_ZNK3s215BTreeISt4pairIKiiENS_10My_CompareIS3_St4lessIiEEEE4findERKS3_
FN:333,_ZNK3s215BTreeISt4pairIKiiENS_10My_CompareIS3_St7greaterIiEEEE5countERKS3_
FN:333,_ZNK3s215BTreeIiSt7greaterIiEE5countERKi
FN:333,_ZNK3s215BTreeIiSt4lessIiEE5countERKi
FN:333,_ZNK3s215BTreeISt4pairIKiiENS_10My_CompareIS3_St4lessIiEEEE5countERKS3_
FN:337,_ZNK3s215BTreeIiSt4lessIiEE8containsERKi
FN:337,_ZNK3s215BTreeISt4pairIKiiENS_10My_CompareIS3_St4lessIiEEEE8containsERKS3_
FN:339,_ZN3s215BTreeINSt7__cxx1112basic_stringIcSt11char_traitsIcESaIcEEESt4lessIS6_EE5mergeERS9_b
FN:339,_ZN3s215BTreeISt4pairIKiNSt7__cxx1112basic_stringIcSt11char_traitsIcESaIcEEEENS_10My_CompareIS9_St4lessIiEEEE5mergeERSE_b
FN:347,_ZN3s215BTreeISt4pairIKiNSt7__cxx1112basic_stringIcSt11char_traitsIcESaIcEEEENS_10My_CompareIS9_St7greaterIiEEEE4swapERSE_
FN:347,_ZN3s215BTreeIiSt7greaterIiEE4swapERS3_
FN:347,_ZN3s215BTreeISt4pairIKiiENS_10My_CompareIS3_St7greaterIiEEEE4swapERS8_
FN:347,_ZN3s215BTreeIiSt4lessIiEE4swapERS3_
FN:347,_ZN3s215BTreeISt4pairIKiiENS_10My_CompareIS3_St4lessIiEEEE4swapERS8_
FN:347,_ZN3s215BTreeISt4pairIKiNSt7__cxx1112basic_stringIcSt11char_traitsIcESaIcEEEENS_10My_CompareIS9_St4lessIiEEEE4swapERSE_
FN:347,_ZN3s215BTreeINSt7__cxx1112basic_stringIcSt11char_traitsIcESaIcEEESt7greaterIS6_EE4swapERS9_
FN:347,_ZN3s215BTreeINSt7__cxx1112basic_stringIcSt11char_traitsIcESaIcEEESt4lessIS6_EE4swapERS9_
FN:352,_ZN3s215BTreeINSt7__cxx1112basic_stringIcSt11char_traitsIcESaIcEEESt4lessIS6_EE6insertERKS6_b
FN:352,_ZN3s215BTreeISt4pairIKiiENS_10My_CompareIS3_St4lessIiEEEE6insertERKS3_b
FN:352,_ZN3s215BTreeISt4pairIKiiENS_10My_CompareIS3_St7greaterIiEEEE6insertERKS3_b
FN:352,_ZN3s215BTreeISt4pairIKiNSt7__cxx1112basic_stringIcSt11char_traitsIcESaIcEEEENS_10My_CompareIS9_St7greaterIiEEEE6insertERKS9_b
FN:352,_ZN3s215BTreeIiSt7greaterIiEE6insertERKib
FN:352,_ZN3s215BTreeINSt7__cxx1112basic_stringIcSt11char_traitsIcESaIcEEESt7greaterIS6_EE6insertERKS6_b
FN:352,_ZN3s215BTreeIiSt4lessIiEE6insertERKib
FN:352,_ZN3s215BTreeISt4pairIKiNSt7__cxx1112basic_stringIcSt11char_traitsIcESaIcEEEENS_10My_CompareIS9_St4lessIiEEEE6insertERKS9_b
FN:357,_ZN3s215BTreeIiSt7greaterIiEE5eraseENS_15IteratorGeneralIiS2_EEb
FN:357,_ZN3s215BTreeISt4pairIKiNSt7__cxx1112basic_stringIcSt11char_traitsIcESaIcEEEENS_10My_CompareIS9_St4lessIiEEEE5eraseENS_15IteratorGeneralIS9_SD_EEb
FN:357,_ZN3s215BTreeINSt7__cxx1112basic_stringIcSt11char_traitsIcESaIcEEESt4lessIS6_EE5eraseENS_15IteratorGeneralIS6_S8_EEb
FN:357,_ZN3s215BTreeISt4pairIKiiENS_10My_CompareIS3_St7greaterIiEEEE5eraseENS_15IteratorGeneralIS3_S7_EEb
FN:374,_ZN3s215BTreeIiSt7greaterIiEE5clearEv
FN:374,_ZN3s215BTreeISt4pairIKiNSt7__cxx1112basic_stringIcSt11char_traitsIcESaIcEEEENS_10My_CompareIS9_St4lessIiEEEE5clearEv
FN:374,_ZN3s215BTreeISt4pairIKiiENS_10My_CompareIS3_St7greaterIiEEEE5clearEv
FN:374,_ZN3s215BTreeISt4pairIKiiENS_10My_CompareIS3_St4lessIiEEEE5clearEv
FN:374,_ZN3s215BTreeIiSt4lessIiEE5clearEv
FN:374,_ZN3s215BTreeISt4pairIKiNSt7__cxx1112basic_stringIcSt11char_traitsIcESaIcEEEENS_10My_CompareIS9_St7greaterIiEEEE5clearEv
FN:374,_ZN3s215BTreeINSt7__cxx1112basic_stringIcSt11char_traitsIcESaIcEEESt7greaterIS6_EE5clearEv
FN:374,_ZN3s215BTreeINSt7__cxx1112basic_stringIcSt11char_traitsIcESaIcEEESt4lessIS6_EE5clearEv
FN:380,_ZNK3s215BTreeIiSt7greaterIiEE5emptyEv
FN:380,_ZNK3s215BTreeISt4pairIKiiENS_10My_CompareIS3_St7greaterIiEEEE5emptyEv
FN:380,_ZNK3s215BTreeIiSt4lessIiEE5emptyEv
FN:380,_ZNK3s215BTreeISt4pairIKiiENS_10My_CompareIS3_St4lessIiEEEE5emptyEv
FN:382,_ZNK3s215BTreeISt4pairIKiNSt7__cxx1112basic_stringIcSt11char_traitsIcESaIcEEEENS_10My_CompareIS9_St4lessIiEEEE4sizeEv
FN:382,_ZNK3s215BTreeINSt7__cxx1112basic_stringIcSt11char_traitsIcESaIcEEESt4lessIS6_EE4sizeEv
FN:382,_ZNK3s215BTreeISt4pairIKiNSt7__cxx1112basic_stringIcSt11char_traitsIcESaIcEEEENS_10My_CompareIS9_St7greaterIiEEEE4sizeEv
FN:382,_ZNK3s215BTreeINSt7__cxx1112basic_stringIcSt11char_traitsIcESaIcEEESt7greaterIS6_EE4sizeEv
FN:382,_ZNK3s215BTreeIiSt7greaterIiEE4sizeEv
FN:382,_ZNK3s215BTreeISt4pairIKiiENS_10My_CompareIS3_St4lessIiEEEE4sizeEv
FN:382,_ZNK3s215BTreeIiSt4lessIiEE4sizeEv
FN:382,_ZNK3s215BTreeISt4pairIKiiENS_10My_CompareIS3_St7greaterIiEEEE4sizeEv
FN:389,_ZN3s215BTreeIiSt7greaterIiEE3endEv
FN:389,_ZN3s215BTreeISt4pairIKiiENS_10My_CompareIS3_St7greaterIiEEEE3endEv
FN:389,_ZN3s215BTreeISt4pairIKiNSt7__cxx1112basic_stringIcSt11char_traitsIcESaIcEEEENS_10My_CompareIS9_St4lessIiEEEE3endEv
FN:389,_ZN3s215BTreeIiSt4lessIiEE3endEv
FN:389,_ZN3s215BTreeISt4pairIKiiENS_10My_CompareIS3_St4lessIiEEEE3endEv
FN:389,_ZN3s215BTreeINSt7__cxx1112basic_stringIcSt11char_traitsIcESaIcEEESt4lessIS6_EE3endEv
FN:391,_ZNK3s215BTreeIiSt7greaterIiEE3endEv
FN:391,_ZNK3s215BTreeISt4pairIKiiENS_10My_CompareIS3_St4lessIiEEEE3endEv
FN:391,_ZNK3s215BTreeISt4pairIKiiENS_10My_CompareIS3_St7greaterIiEEEE3endEv
FN:391,_ZNK3s215BTreeIiSt4lessIiEE3endEv
FN:391,_ZNK3s215BTreeINSt7__cxx1112basic_stringIcSt11char_traitsIcESaIcEEESt4lessIS6_EE3endEv
FN:391,_ZNK3s215BTreeISt4pairIKiNSt7__cxx1112basic_stringIcSt11char_traitsIcESaIcEEEENS_10My_CompareIS9_St7greaterIiEEEE3endEv
FN:391,_ZNK3s215BTreeINSt7__cxx1112basic_stringIcSt11char_traitsIcESaIcEEESt7greaterIS6_EE3endEv
FN:391,_ZNK3s215BTreeISt4pairIKiNSt7__cxx1112basic_stringIcSt11char_traitsIcESaIcEEEENS_10My_CompareIS9_St4lessIiEEEE3endEv
FN:393,_ZN3s215BTreeISt4pairIKiiENS_10My_CompareIS3_St7greaterIiEEEE5beginEv
FN:393,_ZN3s215BTreeISt4pairIKiiENS_10My_CompareIS3_St4lessIiEEEE5beginEv
FN:393,_ZN3s215BTreeIiSt4lessIiEE5beginEv
FN:393,_ZN3s215BTreeINSt7__cxx1112basic_stringIcSt11char_traitsIcESaIcEEESt4lessIS6_EE5beginEv
FN:393,_ZN3s215BTreeISt4pairIKiNSt7__cxx1112basic_stringIcSt11char_traitsIcESaIcEEEENS_10My_CompareIS9_St4lessIiEEEE5beginEv
FN:393,_ZN3s215BTreeIiSt7greaterIiEE5beginEv
FN:397,_ZNK3s215BTreeINSt7__cxx1112basic_stringIcSt11char_traitsIcESaIcEEESt7greaterIS6_EE5beginEv
FN:397,_ZNK3s215BTreeIiSt7greaterIiEE5beginEv
FN:397,_ZNK3s215BTreeIiSt4lessIiEE5beginEv
FN:397,_ZNK3s215BTreeISt4pairIKiiENS_10My_CompareIS3_St4lessIiEEEE5beginEv
FN:397,_ZNK3s215BTreeISt4pairIKiNSt7__cxx1112basic_stringIcSt11char_traitsIcESaIcEEEENS_10My_CompareIS9_St7greaterIiEEEE5beginEv
FN:397,_ZNK3s215BTreeISt4pairIKiiENS_10My_CompareIS3_St7greaterIiEEEE5beginEv
FN:397,_ZNK3s215BTreeINSt7__cxx1112basic_stringIcSt11char_traitsIcESaIcEEESt4lessIS6_EE5beginEv
FN:397,_ZNK3s215BTreeISt4pairIKiNSt7__cxx1112basic_stringIcSt11char_traitsIcESaIcEEEENS_10My_CompareIS9_St4lessIiEEEE5beginEv
FN:408,_ZN3s215BTreeISt4pairIKiNSt7__cxx1112basic_stringIcSt11char_traitsIcESaIcEEEENS_10My_CompareIS9_St7greaterIiEEEE14InsertStandartEPNS_13StructGeneralIS9_EERKS9_b
FN:408,_ZN3s215BTreeIiSt7greaterIiEE14InsertStandartEPNS_13StructGeneralIiEERKib
FN:408,_ZN3s215BTreeIiSt4lessIiEE14InsertStandartEPNS_13StructGeneralIiEERKib
FN:408,_ZN3s215BTreeINSt7__cxx1112basic_stringIcSt11char_traitsIcESaIcEEESt7greaterIS6_EE14InsertStandartEPNS_13StructGeneralIS6_EERKS6_b
FN:408,_ZN3s215BTreeISt4pairIKiiENS_10My_CompareIS3_St4lessIiEEEE14InsertStandartEPNS_13StructGeneralIS3_EERKS3_b
FN:408,_ZN3s215BTreeISt4pairIKiiENS_10My_CompareIS3_St7greaterIiEEEE14InsertStandartEPNS_13StructGeneralIS3_EERKS3_b
FN:408,_ZN3s215BTreeISt4pairIKiNSt7__cxx1112basic_stringIcSt11char_traitsIcESaIcEEEENS_10My_CompareIS9_St4lessIiEEEE14InsertStandartEPNS_13StructGeneralIS9_EERKS9_b
FN:408,_ZN3s215BTreeINSt7__cxx1112basic_stringIcSt11char_traitsIcESaIcEEESt4lessIS6_EE14InsertStandartEPNS_13StructGeneralIS6_EERKS6_b
FN:445,_ZN3s215BTreeISt4pairIKiiENS_10My_CompareIS3_St7greaterIiEEEE5EraseEPNS_13StructGeneralIS3_EE
FN:445,_ZN3s215BTreeISt4pairIKiNSt7__cxx1112basic_stringIcSt11char_traitsIcESaIcEEEENS_10My_CompareIS9_St4lessIiEEEE5EraseEPNS_13StructGeneralIS9_EE
FN:445,_ZN3s215BTreeINSt7__cxx1112basic_stringIcSt11char_traitsIcESaIcEEESt4lessIS6_EE5EraseEPNS_13StructGeneralIS6_EE
FN:445,_ZN3s215BTreeIiSt7greaterIiEE5EraseEPNS_13StructGeneralIiEE
FN:483,_ZNK3s215BTreeISt4pairIKiNSt7__cxx1112basic_stringIcSt11char_traitsIcESaIcEEEENS_10My_CompareIS9_St4lessIiEEEE12FindPositionEPNS_13StructGeneralIS9_EERKS9_
FN:483,_ZNK3s215BTreeIiSt7greaterIiEE12FindPositionEPNS_13StructGeneralIiEERKi
FN:483,_ZNK3s215BTreeIiSt4lessIiEE12FindPositionEPNS_13StructGeneralIiEERKi
FN:483,_ZNK3s215BTreeISt4pairIKiiENS_10My_CompareIS3_St4lessIiEEEE12FindPositionEPNS_13StructGeneralIS3_EERKS3_
FN:483,_ZNK3s215BTreeISt4pairIKiiENS_10My_CompareIS3_St7greaterIiEEEE12FindPositionEPNS_13StructGeneralIS3_EERKS3_
FN:483,_ZNK3s215BTreeISt4pairIKiNSt7__cxx1112basic_stringIcSt11char_traitsIcESaIcEEEENS_10My_CompareIS9_St7greaterIiEEEE12FindPositionEPNS_13StructGeneralIS9_EERKS9_
FN:483,_ZNK3s215BTreeINSt7__cxx1112basic_stringIcSt11char_traitsIcESaIcEEESt4lessIS6_EE12FindPositionEPNS_13StructGeneralIS6_EERKS6_
FN:483,_ZNK3s215BTreeINSt7__cxx1112basic_stringIcSt11char_traitsIcESaIcEEESt7greaterIS6_EE12FindPositionEPNS_13StructGeneralIS6_EERKS6_
FN:502,_ZNK3s215BTreeISt4pairIKiNSt7__cxx1112basic_stringIcSt11char_traitsIcESaIcEEEENS_10My_CompareIS9_St4lessIiEEEE14ComparisonListERKSE_
FN:502,_ZNK3s215BTreeISt4pairIKiNSt7__cxx1112basic_stringIcSt11char_traitsIcESaIcEEEENS_10My_CompareIS9_St7greaterIiEEEE14ComparisonListERKSE_
FN:502,_ZNK3s215BTreeIiSt7greaterIiEE14ComparisonListERKS3_
FN:502,_ZNK3s215BTreeINSt7__cxx1112basic_stringIcSt11char_traitsIcESaIcEEESt4lessIS6_EE14ComparisonListERKS9_
FN:502,_ZNK3s215BTreeINSt7__cxx1112basic_stringIcSt11char_traitsIcESaIcEEESt7greaterIS6_EE14ComparisonListERKS9_
FN:502,_ZNK3s215BTreeISt4pairIKiiENS_10My_CompareIS3_St7greaterIiEEEE14ComparisonListERKS8_
FN:517,_ZNK3s215BTreeISt4pairIKiiENS_10My_CompareIS3_St4lessIiEEEE11not_equallyERKS3_SA_
FN:517,_ZNK3s215BTreeISt4pairIKiNSt7__cxx1112basic_stringIcSt11char_traitsIcESaIcEEEENS_10My_CompareIS9_St4lessIiEEEE11not_equallyERKS9_SG_
FN:517,_ZNK3s215BTreeISt4pairIKiNSt7__cxx1112basic_stringIcSt11char_traitsIcESaIcEEEENS_10My_CompareIS9_St7greaterIiEEEE11not_equallyERKS9_SG_
FN:517,_ZNK3s215BTreeIiSt7greaterIiEE11not_equallyERKiS5_
FN:517,_ZNK3s215BTreeINSt7__cxx1112basic_stringIcSt11char_traitsIcESaIcEEESt4lessIS6_EE11not_equallyERKS6_SB_
FN:517,_ZNK3s215BTreeISt4pairIKiiENS_10My_CompareIS3_St7greaterIiEEEE11not_equallyERKS3_SA_
FN:517,_ZNK3s215BTreeINSt7__cxx1112basic_stringIcSt11char_traitsIcESaIcEEESt7greaterIS6_EE11not_equallyERKS6_SB_
FN:517,_ZNK3s215BTreeIiSt4lessIiEE11not_equallyERKiS5_
FN:522,_ZN3s215BTreeISt4pairIKiiENS_10My_CompareIS3_St7greaterIiEEEE14ArgumentParserIJEEEvRSt6vectorIS1_INS_15IteratorGeneralIS3_S7_EEbESaISD_EEbOS3_DpT_
FN:522,_ZN3s215BTreeINSt7__cxx1112basic_stringIcSt11char_traitsIcESaIcEEESt4lessIS6_EE14ArgumentParserIJPKcSC_SC_SC_SC_EEEvRSt6vectorISt4pairINS_15IteratorGeneralIS6_S8_EEbESaISH_EEbOS6_DpT_
FN:522,_ZN3s215BTreeIiSt7greaterIiEE14ArgumentParserIJiEEEvRSt6vectorISt4pairINS_15IteratorGeneralIiS2_EEbESaIS9_EEbOiDpT_
FN:522,_ZN3s215BTreeINSt7__cxx1112basic_stringIcSt11char_traitsIcESaIcEEESt4lessIS6_EE14ArgumentParserIJPKcSC_EEEvRSt6vectorISt4pairINS_15IteratorGeneralIS6_S8_EEbESaISH_EEbOS6_DpT_
FN:522,_ZN3s215BTreeINSt7__cxx1112basic_stringIcSt11char_traitsIcESaIcEEESt4lessIS6_EE14ArgumentParserIJPKcSC_SC_EEEvRSt6vectorISt4pairINS_15IteratorGeneralIS6_S8_EEbESaISH_EEbOS6_DpT_
FN:522,_ZN3s215BTreeIiSt7greaterIiEE14ArgumentParserIJiiEEEvRSt6vectorISt4pairINS_15IteratorGeneralIiS2_EEbESaIS9_EEbOiDpT_
FN:522,_ZN3s215BTreeISt4pairIKiNSt7__cxx1112basic_stringIcSt11char_traitsIcESaIcEEEENS_10My_CompareIS9_St4lessIiEEEE14ArgumentParserIJEEEvRSt6vectorIS1_INS_15IteratorGeneralIS9_SD_EEbESaISJ_EEbOS9_DpT_
FN:522,_ZN3s215BTreeINSt7__cxx1112basic_stringIcSt11char_traitsIcESaIcEEESt4lessIS6_EE14ArgumentParserIJPKcEEEvRSt6vectorISt4pairINS_15IteratorGeneralIS6_S8_EEbESaISH_EEbOS6_DpT_
FN:522,_ZN3s215BTreeIiSt7greaterIiEE14ArgumentParserIJEEEvRSt6vectorISt4pairINS_15IteratorGeneralIiS2_EEbESaIS9_EEbOiDpT_
FN:522,_ZN3s215BTreeISt4pairIKiNSt7__cxx1112basic_stringIcSt11char_traitsIcESaIcEEEENS_10My_CompareIS9_St4lessIiEEEE14ArgumentParserIJS9_S9_EEEvRSt6vectorIS1_INS_15IteratorGeneralIS9_SD_EEbESaISJ_EEbOS9_DpT_
FN:522,_ZN3s215BTreeISt4pairIKiNSt7__cxx1112basic_stringIcSt11char_traitsIcESaIcEEEENS_10My_CompareIS9_St4lessIiEEEE14ArgumentParserIJS9_EEEvRSt6vectorIS1_INS_15IteratorGeneralIS9_SD_EEbESaISJ_EEbOS9_DpT_
FN:522,_ZN3s215BTreeINSt7__cxx1112basic_stringIcSt11char_traitsIcESaIcEEESt4lessIS6_EE14ArgumentParserIJPKcSC_SC_SC_SC_SC_EEEvRSt6vectorISt4pairINS_15IteratorGeneralIS6_S8_EEbESaISH_EEbOS6_DpT_
FN:522,_ZN3s215BTreeINSt7__cxx1112basic_stringIcSt11char_traitsIcESaIcEEESt4lessIS6_EE14ArgumentParserIJPKcSC_SC_SC_EEEvRSt6vectorISt4pairINS_15IteratorGeneralIS6_S8_EEbESaISH_EEbOS6_DpT_
FN:522,_ZN3s215BTreeISt4pairIKiiENS_10My_CompareIS3_St7greaterIiEEEE14ArgumentParserIJS3_EEEvRSt6vectorIS1_INS_15IteratorGeneralIS3_S7_EEbESaISD_EEbOS3_DpT_
FN:522,_ZN3s215BTreeISt4pairIKiiENS_10My_CompareIS3_St7greaterIiEEEE14ArgumentParserIJS3_S3_EEEvRSt6vectorIS1_INS_15IteratorGeneralIS3_S7_EEbESaISD_EEbOS3_DpT_
FN:522,_ZN3s215BTreeISt4pairIKiiENS_10My_CompareIS3_St7greaterIiEEEE14ArgumentParserIJS3_S3_S3_EEEvRSt6vectorIS1_INS_15IteratorGeneralIS3_S7_EEbESaISD_EEbOS3_DpT_
FN:522,_ZN3s215BTreeINSt7__cxx1112basic_stringIcSt11char_traitsIcESaIcEEESt4lessIS6_EE14ArgumentParserIJEEEvRSt6vectorISt4pairINS_15IteratorGeneralIS6_S8_EEbESaISF_EEbOS6_DpT_
FN:528,_ZN3s215BTreeISt4pairIKiNSt7__cxx1112basic_stringIcSt11char_traitsIcESaIcEEEENS_10My_CompareIS9_St4lessIiEEEE14ArgumentParserERSt6vectorIS1_INS_15IteratorGeneralIS9_SD_EEbESaISI_EEb
FN:528,_ZN3s215BTreeIiSt7greaterIiEE14ArgumentParserERSt6vectorISt4pairINS_15IteratorGeneralIiS2_EEbESaIS8_EEb
FN:528,_ZN3s215BTreeISt4pairIKiiENS_10My_CompareIS3_St7greaterIiEEEE14ArgumentParserERSt6vectorIS1_INS_15IteratorGeneralIS3_S7_EEbESaISC_EEb
FN:528,_ZN3s215BTreeINSt7__cxx1112basic_stringIcSt11char_traitsIcESaIcEEESt4lessIS6_EE14ArgumentParserERSt6vectorISt4pairINS_15IteratorGeneralIS6_S8_EEbESaISE_EEb
FN:532,_ZNK3s215BTreeIiSt7greaterIiEE8SmallestEPNS_13StructGeneralIiEE
FN:532,_ZNK3s215BTreeISt4pairIKiiENS_10My_CompareIS3_St4lessIiEEEE8SmallestEPNS_13StructGeneralIS3_EE
FN:532,_ZNK3s215BTreeINSt7__cxx1112basic_stringIcSt11char_traitsIcESaIcEEESt4lessIS6_EE8SmallestEPNS_13StructGeneralIS6_EE
FN:532,_ZNK3s215BTreeISt4pairIKiNSt7__cxx1112basic_stringIcSt11char_traitsIcESaIcEEEENS_10My_CompareIS9_St4lessIiEEEE8SmallestEPNS_13StructGeneralIS9_EE
FN:532,_ZNK3s215BTreeISt4pairIKiiENS_10My_CompareIS3_St7greaterIiEEEE8SmallestEPNS_13StructGeneralIS3_EE
FN:532,_ZNK3s215BTreeIiSt4lessIiEE8SmallestEPNS_13StructGeneralIiEE
FN:532,_ZNK3s215BTreeINSt7__cxx1112basic_stringIcSt11char_traitsIcESaIcEEESt7greaterIS6_EE8SmallestEPNS_13StructGeneralIS6_EE
FN:532,_ZNK3s215BTreeISt4pairIKiNSt7__cxx1112basic_stringIcSt11char_traitsIcESaIcEEEENS_10My_CompareIS9_St7greaterIiEEEE8SmallestEPNS_13StructGeneralIS9_EE
FN:537,_ZN3s215BTreeISt4pairIKiNSt7__cxx1112basic_stringIcSt11char_traitsIcESaIcEEEENS_10My_CompareIS9_St4lessIiEEEE12CreateAnchorEv
FN:537,_ZN3s215BTreeINSt7__cxx1112basic_stringIcSt11char_traitsIcESaIcEEESt7greaterIS6_EE12CreateAnchorEv
FN:537,_ZN3s215BTreeIiSt7greaterIiEE12CreateAnchorEv
FN:537,_ZN3s215BTreeISt4pairIKiNSt7__cxx1112basic_stringIcSt11char_traitsIcESaIcEEEENS_10My_CompareIS9_St7greaterIiEEEE12CreateAnchorEv
FN:537,_ZN3s215BTreeIiSt4lessIiEE12CreateAnchorEv
FN:537,_ZN3s215BTreeISt4pairIKiiENS_10My_CompareIS3_St7greaterIiEEEE12CreateAnchorEv
FN:537,_ZN3s215BTreeINSt7__cxx1112basic_stringIcSt11char_traitsIcESaIcEEESt4lessIS6_EE12CreateAnchorEv
FN:537,_ZN3s215BTreeISt4pairIKiiENS_10My_CompareIS3_St4lessIiEEEE12CreateAnchorEv
FN:544,_ZN3s215BTreeISt4pairIKiNSt7__cxx1112basic_stringIcSt11char_traitsIcESaIcEEEENS_10My_CompareIS9_St4lessIiEEEE9swap_nodeEPNS_13StructGeneralIS9_EESH_
FN:544,_ZN3s215BTreeINSt7__cxx1112basic_stringIcSt11char_traitsIcESaIcEEESt4lessIS6_EE9swap_nodeEPNS_13StructGeneralIS6_EESC_
FN:544,_ZN3s215BTreeISt4pairIKiiENS_10My_CompareIS3_St7greaterIiEEEE9swap_nodeEPNS_13StructGeneralIS3_EESB_
FN:544,_ZN3s215BTreeIiSt7greaterIiEE9swap_nodeEPNS_13StructGeneralIiEES6_
FN:568,_ZN3s215BTreeINSt7__cxx1112basic_stringIcSt11char_traitsIcESaIcEEESt4lessIS6_EE10AdjustmentEPNS_13StructGeneralIS6_EE
FN:568,_ZN3s215BTreeISt4pairIKiNSt7__cxx1112basic_stringIcSt11char_traitsIcESaIcEEEENS_10My_CompareIS9_St4lessIiEEEE10AdjustmentEPNS_13StructGeneralIS9_EE
FN:568,_ZN3s215BTreeIiSt4lessIiEE10AdjustmentEPNS_13StructGeneralIiEE
FN:568,_ZN3s215BTreeISt4pairIKiNSt7__cxx1112basic_stringIcSt11char_traitsIcESaIcEEEENS_10My_CompareIS9_St7greaterIiEEEE10AdjustmentEPNS_13StructGeneralIS9_EE
FN:568,_ZN3s215BTreeISt4pairIKiiENS_10My_CompareIS3_St7greaterIiEEEE10AdjustmentEPNS_13StructGeneralIS3_EE
FN:568,_ZN3s215BTreeIiSt7greaterIiEE10AdjustmentEPNS_13StructGeneralIiEE
FN:568,_ZN3s215BTreeISt4pairIKiiENS_10My_CompareIS3_St4lessIiEEEE10AdjustmentEPNS_13StructGeneralIS3_EE
FN:568,_ZN3s215BTreeINSt7__cxx1112basic_stringIcSt11char_traitsIcESaIcEEESt7greaterIS6_EE10AdjustmentEPNS_13StructGeneralIS6_EE
FN:579,_ZN3s215BTreeISt4pairIKiiENS_10My_CompareIS3_St7greaterIiEEEE8LeftTurnEPNS_13StructGeneralIS3_EE
FN:579,_ZN3s215BTreeIiSt4lessIiEE8LeftTurnEPNS_13StructGeneralIiEE
FN:579,_ZN3s215BTreeISt4pairIKiiENS_10My_CompareIS3_St4lessIiEEEE8LeftTurnEPNS_13StructGeneralIS3_EE
FN:579,_ZN3s215BTreeINSt7__cxx1112basic_stringIcSt11char_traitsIcESaIcEEESt7greaterIS6_EE8LeftTurnEPNS_13StructGeneralIS6_EE
FN:579,_ZN3s215BTreeIiSt7greaterIiEE8LeftTurnEPNS_13StructGeneralIiEE
FN:579,_ZN3s215BTreeINSt7__cxx1112basic_stringIcSt11char_traitsIcESaIcEEESt4lessIS6_EE8LeftTurnEPNS_13StructGeneralIS6_EE
FN:579,_ZN3s215BTreeISt4pairIKiNSt7__cxx1112basic_stringIcSt11char_traitsIcESaIcEEEENS_10My_CompareIS9_St7greaterIiEEEE8LeftTurnEPNS_13StructGeneralIS9_EE
FN:579,_ZN3s215BTreeISt4pairIKiNSt7__cxx1112basic_stringIcSt11char_traitsIcESaIcEEEENS_10My_CompareIS9_St4lessIiEEEE8LeftTurnEPNS_13StructGeneralIS9_EE
FN:606,_ZN3s215BTreeINSt7__cxx1112basic_stringIcSt11char_traitsIcESaIcEEESt4lessIS6_EE9RightTurnEPNS_13StructGeneralIS6_EE
FN:606,_ZN3s215BTreeIiSt7greaterIiEE9RightTurnEPNS_13StructGeneralIiEE
FN:606,_ZN3s215BTreeIiSt4lessIiEE9RightTurnEPNS_13StructGeneralIiEE
FN:606,_ZN3s215BTreeISt4pairIKiiENS_10My_CompareIS3_St4lessIiEEEE9RightTurnEPNS_13StructGeneralIS3_EE
FN:606,_ZN3s215BTreeISt4pairIKiiENS_10My_CompareIS3_St7greaterIiEEEE9RightTurnEPNS_13StructGeneralIS3_EE
FN:606,_ZN3s215BTreeISt4pairIKiNSt7__cxx1112basic_stringIcSt11char_traitsIcESaIcEEEENS_10My_CompareIS9_St4lessIiEEEE9RightTurnEPNS_13StructGeneralIS9_EE
FN:606,_ZN3s215BTreeINSt7__cxx1112basic_stringIcSt11char_traitsIcESaIcEEESt7greaterIS6_EE9RightTurnEPNS_13StructGeneralIS6_EE
FN:606,_ZN3s215BTreeISt4pairIKiNSt7__cxx1112basic_stringIcSt11char_traitsIcESaIcEEEENS_10My_CompareIS9_St7greaterIiEEEE9RightTurnEPNS_13StructGeneralIS9_EE
FN:634,_ZN3s215BTreeISt4pairIKiNSt7__cxx1112basic_stringIcSt11char_traitsIcESaIcEEEENS_10My_CompareIS9_St4lessIiEEEE10SwapColorsEPNS_13StructGeneralIS9_EE
FN:634,_ZN3s215BTreeISt4pairIKiiENS_10My_CompareIS3_St4lessIiEEEE10SwapColorsEPNS_13StructGeneralIS3_EE
FN:634,_ZN3s215BTreeIiSt7greaterIiEE10SwapColorsEPNS_13StructGeneralIiEE
FN:634,_ZN3s215BTreeISt4pairIKiNSt7__cxx1112basic_stringIcSt11char_traitsIcESaIcEEEENS_10My_CompareIS9_St7greaterIiEEEE10SwapColorsEPNS_13StructGeneralIS9_EE
FN:634,_ZN3s215BTreeISt4pairIKiiENS_10My_CompareIS3_St7greaterIiEEEE10SwapColorsEPNS_13StructGeneralIS3_EE
FN:634,_ZN3s215BTreeINSt7__cxx1112basic_stringIcSt11char_traitsIcESaIcEEESt7greaterIS6_EE10SwapColorsEPNS_13StructGeneralIS6_EE
FN:634,_ZN3s215BTreeINSt7__cxx1112basic_stringIcSt11char_traitsIcESaIcEEESt4lessIS6_EE10SwapColorsEPNS_13StructGeneralIS6_EE
FN:634,_ZN3s215BTreeIiSt4lessIiEE10SwapColorsEPNS_13StructGeneralIiEE
FN:644,_ZN3s215BTreeISt4pairIKiNSt7__cxx1112basic_stringIcSt11char_traitsIcESaIcEEEENS_10My_CompareIS9_St7greaterIiEEEE7FreeSetEPNS_13StructGeneralIS9_EE
FN:644,_ZN3s215BTreeINSt7__cxx1112basic_stringIcSt11char_traitsIcESaIcEEESt4lessIS6_EE7FreeSetEPNS_13StructGeneralIS6_EE
FN:644,_ZN3s215BTreeIiSt4lessIiEE7FreeSetEPNS_13StructGeneralIiEE
FN:644,_ZN3s215BTreeIiSt7greaterIiEE7FreeSetEPNS_13StructGeneralIiEE
FN:644,_ZN3s215BTreeISt4pairIKiiENS_10My_CompareIS3_St4lessIiEEEE7FreeSetEPNS_13StructGeneralIS3_EE
FN:644,_ZN3s215BTreeISt4pairIKiNSt7__cxx1112basic_stringIcSt11char_traitsIcESaIcEEEENS_10My_CompareIS9_St4lessIiEEEE7FreeSetEPNS_13StructGeneralIS9_EE
FN:644,_ZN3s215BTreeISt4pairIKiiENS_10My_CompareIS3_St7greaterIiEEEE7FreeSetEPNS_13StructGeneralIS3_EE
FN:644,_ZN3s215BTreeINSt7__cxx1112basic_stringIcSt11char_traitsIcESaIcEEESt7greaterIS6_EE7FreeSetEPNS_13StructGeneralIS6_EE
FNDA:70,_ZNK3s2120IteratorGeneralConstINSt7__cxx1112basic_stringIcSt11char_traitsIcESaIcEEESt4lessIS6_EEneERKS9_
FNDA:75,_ZN3s215BTreeINSt7__cxx1112basic_stringIcSt11char_traitsIcESaIcEEESt4lessIS6_EED2Ev
FNDA:6,_ZN3s215BTreeIiSt7greaterIiEE11lower_boundERKi
FNDA:484,_ZN3s2113StructGeneralIiEC2Ei
FNDA:53,_ZN3s2115IteratorGeneralIiSt7greaterIiEEppEi
FNDA:92,_ZNK3s215BTreeISt4pairIKiNSt7__cxx1112basic_stringIcSt11char_traitsIcESaIcEEEENS_10My_CompareIS9_St4lessIiEEEE4sizeEv
FNDA:1,_ZN3s215BTreeISt4pairIKiiENS_10My_CompareIS3_St7greaterIiEEEE7emplaceIJS3_S3_S3_S3_EEESt6vectorIS1_INS_15IteratorGeneralIS3_S7_EEbESaISD_EEbDpOT_
FNDA:234,_ZN3s215BTreeIiSt7greaterIiEE14InsertStandartEPNS_13StructGeneralIiEERKib
FNDA:54,_ZNK3s2115IteratorGeneralIiSt4lessIiEEdeEv
FNDA:18,_ZNK3s215BTreeISt4pairIKiiENS_10My_CompareIS3_St7greaterIiEEEE3endEv
FNDA:6,_ZN3s215BTreeINSt7__cxx1112basic_stringIcSt11char_traitsIcESaIcEEESt7greaterIS6_EE12CreateAnchorEv
FNDA:300,_ZN3s2113StructGeneralISt4pairIKiiEEC2ES3_
FNDA:2,_ZN3s215BTreeINSt7__cxx1112basic_stringIcSt11char_traitsIcESaIcEEESt4lessIS6_EE7emplaceIJRA2_KcSD_SD_RA3_SB_SF_SF_RA4_SB_EEESt6vectorISt4pairINS_15IteratorGeneralIS6_S8_EEbESaISM_EEbDpOT_
FNDA:89,_ZN3s2115IteratorGeneralISt4pairIKiiENS_10My_CompareIS3_St7greaterIiEEEEppEi
FNDA:179,_ZN3s215BTreeISt4pairIKiiENS_10My_CompareIS3_St7greaterIiEEEE6insertERKS3_b
FNDA:387,_ZN3s2112ClosestRightIKNS_13StructGeneralISt4pairIKiNSt7__cxx1112basic_stringIcSt11char_traitsIcESaIcEEEEEEEEPT_SE_
FNDA:1,_ZN3s2115IteratorGeneralISt4pairIKiNSt7__cxx1112basic_stringIcSt11char_traitsIcESaIcEEEENS_10My_CompareIS9_St4lessIiEEEEmmEi
FNDA:10,_ZNK3s2115IteratorGeneralIiSt7greaterIiEEneERKS3_
FNDA:21,_ZN3s215BTreeISt4pairIKiiENS_10My_CompareIS3_St4lessIiEEEE10SwapColorsEPNS_13StructGeneralIS3_EE
FNDA:11,_ZN3s2111ClosestLeftINS_13StructGeneralIiEEEEPT_S4_
FNDA:2,_ZN3s215BTreeINSt7__cxx1112basic_stringIcSt11char_traitsIcESaIcEEESt4lessIS6_EE14ArgumentParserIJPKcSC_SC_SC_SC_EEEvRSt6vectorISt4pairINS_15IteratorGeneralIS6_S8_EEbESaISH_EEbOS6_DpT_
FNDA:2,_ZN3s215BTreeINSt7__cxx1112basic_stringIcSt11char_traitsIcESaIcEEESt4lessIS6_EE5mergeERS9_b
FNDA:5,_ZN3s215BTreeISt4pairIKiNSt7__cxx1112basic_stringIcSt11char_traitsIcESaIcEEEENS_10My_CompareIS9_St4lessIiEEEE7emplaceIJS9_S9_S9_EEESt6vectorIS1_INS_15IteratorGeneralIS9_SD_EEbESaISJ_EEbDpOT_
FNDA:18,_ZN3s215BTreeISt4pairIKiiENS_10My_CompareIS3_St4lessIiEEEED2Ev
FNDA:19,_ZN3s215BTreeIiSt7greaterIiEE10SwapColorsEPNS_13StructGeneralIiEE
FNDA:36,_ZN3s215BTreeISt4pairIKiiENS_10My_CompareIS3_St7greaterIiEEEED2Ev
FNDA:210,_ZN3s2115IteratorGeneralIiSt4lessIiEEC2EPNS_13StructGeneralIiEEm
FNDA:81,_ZN3s2115IteratorGeneralINSt7__cxx1112basic_stringIcSt11char_traitsIcESaIcEEESt4lessIS6_EEppEv
FNDA:78,_ZN3s2120IteratorGeneralConstINSt7__cxx1112basic_stringIcSt11char_traitsIcESaIcEEESt7greaterIS6_EEppEi
FNDA:53,_ZNK3s215BTreeIiSt4lessIiEE3endEv
FNDA:3,_ZN3s215BTreeISt4pairIKiNSt7__cxx1112basic_stringIcSt11char_traitsIcESaIcEEEENS_10My_CompareIS9_St4lessIiEEEE9swap_nodeEPNS_13StructGeneralIS9_EESH_
FNDA:156,_ZN3s215BTreeIiSt4lessIiEE7FreeSetEPNS_13StructGeneralIiEE
FNDA:297,_ZN3s215BTreeINSt7__cxx1112basic_stringIcSt11char_traitsIcESaIcEEESt4lessIS6_EE7FreeSetEPNS_13StructGeneralIS6_EE
FNDA:164,_ZN3s215BTreeIiSt4lessIiEE14InsertStandartEPNS_13StructGeneralIiEERKib
FNDA:59,_ZN3s215BTreeIiSt7greaterIiEE12CreateAnchorEv
FNDA:12,_ZNK3s215BTreeINSt7__cxx1112basic_stringIcSt11char_traitsIcESaIcEEESt4lessIS6_EEleERS9_
FNDA:1,_ZN3s215BTreeISt4pairIKiNSt7__cxx1112basic_stringIcSt11char_traitsIcESaIcEEEENS_10My_CompareIS9_St7greaterIiEEEEC2ERKSE_
FNDA:50,_ZN3s215BTreeISt4pairIKiNSt7__cxx1112basic_stringIcSt11char_traitsIcESaIcEEEENS_10My_CompareIS9_St4lessIiEEEE5clearEv
FNDA:5,_ZNK3s215BTreeISt4pairIKiiENS_10My_CompareIS3_St7greaterIiEEEE4findERKS3_
FNDA:10,_ZNK3s215BTreeIiSt7greaterIiEEltERS3_
FNDA:38,_ZN3s215BTreeISt4pairIKiiENS_10My_CompareIS3_St7greaterIiEEEE5clearEv
FNDA:348,_ZN3s2120IteratorGeneralConstISt4pairIKiNSt7__cxx1112basic_stringIcSt11char_traitsIcESaIcEEEENS_10My_CompareIS9_St4lessIiEEEEppEv
FNDA:1,_ZN3s2115IteratorGeneralISt4pairIKiiENS_10My_CompareIS3_St7greaterIiEEEEmmEi
FNDA:285,_ZN3s2112ClosestRightIKNS_13StructGeneralIiEEEEPT_S5_
FNDA:691,_ZN3s2112ClosestRightIKNS_13StructGeneralINSt7__cxx1112basic_stringIcSt11char_traitsIcESaIcEEEEEEEPT_SB_
FNDA:27,_ZNK3s215BTreeIiSt4lessIiEE4findERKi
FNDA:1,_ZN3s215BTreeISt4pairIKiNSt7__cxx1112basic_stringIcSt11char_traitsIcESaIcEEEENS_10My_CompareIS9_St4lessIiEEEEC2Ev
FNDA:6,_ZN3s215BTreeIiSt7greaterIiEE11upper_boundERKi
FNDA:425,_ZNK3s215BTreeISt4pairIKiNSt7__cxx1112basic_stringIcSt11char_traitsIcESaIcEEEENS_10My_CompareIS9_St4lessIiEEEE12FindPositionEPNS_13StructGeneralIS9_EERKS9_
FNDA:1,_ZN3s215BTreeISt4pairIKiiENS_10My_CompareIS3_St7greaterIiEEEE14ArgumentParserIJEEEvRSt6vectorIS1_INS_15IteratorGeneralIS3_S7_EEbESaISD_EEbOS3_DpT_
FNDA:1,_ZNK3s215BTreeISt4pairIKiNSt7__cxx1112basic_stringIcSt11char_traitsIcESaIcEEEENS_10My_CompareIS9_St7greaterIiEEEEgtERSE_
FNDA:9,_ZN3s215BTreeISt4pairIKiNSt7__cxx1112basic_stringIcSt11char_traitsIcESaIcEEEENS_10My_CompareIS9_St7greaterIiEEEE7FreeSetEPNS_13StructGeneralIS9_EE
FNDA:21,_ZNK3s215BTreeIiSt7greaterIiEE3endEv
FNDA:4,_ZNK3s2120IteratorGeneralConstISt4pairIKiNSt7__cxx1112basic_stringIcSt11char_traitsIcESaIcEEEENS_10My_CompareIS9_St7greaterIiEEEEneERKSE_
FNDA:392,_ZN3s215BTreeINSt7__cxx1112basic_stringIcSt11char_traitsIcESaIcEEESt4lessIS6_EE10AdjustmentEPNS_13StructGeneralIS6_EE
FNDA:39,_ZNK3s2120IteratorGeneralConstISt4pairIKiNSt7__cxx1112basic_stringIcSt11char_traitsIcESaIcEEEENS_10My_CompareIS9_St7greaterIiEEEEdeEv
FNDA:148,_ZNK3s215BTreeIiSt7greaterIiEE8SmallestEPNS_13StructGeneralIiEE
FNDA:9,_ZN3s215BTreeISt4pairIKiNSt7__cxx1112basic_stringIcSt11char_traitsIcESaIcEEEENS_10My_CompareIS9_St7greaterIiEEEE14InsertStandartEPNS_13StructGeneralIS9_EERKS9_b
FNDA:101,_ZN3s215BTreeISt4pairIKiNSt7__cxx1112basic_stringIcSt11char_traitsIcESaIcEEEENS_10My_CompareIS9_St4lessIiEEEE10SwapColorsEPNS_13StructGeneralIS9_EE
FNDA:407,_ZN3s215BTreeISt4pairIKiNSt7__cxx1112basic_stringIcSt11char_traitsIcESaIcEEEENS_10My_CompareIS9_St4lessIiEEEE10AdjustmentEPNS_13StructGeneralIS9_EE
FNDA:3,_ZN3s215BTreeISt4pairIKiNSt7__cxx1112basic_stringIcSt11char_traitsIcESaIcEEEENS_10My_CompareIS9_St7greaterIiEEEED2Ev
FNDA:1,_ZN3s215BTreeISt4pairIKiNSt7__cxx1112basic_stringIcSt11char_traitsIcESaIcEEEENS_10My_CompareIS9_St7greaterIiEEEE4swapERSE_
FNDA:21,_ZNK3s215BTreeISt4pairIKiiENS_10My_CompareIS3_St4lessIiEEEE3endEv
FNDA:55,_ZN3s2115IteratorGeneralIiSt7greaterIiEEppEv
FNDA:73,_ZNK3s215BTreeISt4pairIKiiENS_10My_CompareIS3_St4lessIiEEEE11not_equallyERKS3_SA_
FNDA:285,_ZN3s2120IteratorGeneralConstIiSt7greaterIiEEppEi
FNDA:3,_ZNK3s215BTreeISt4pairIKiiENS_10My_CompareIS3_St7greaterIiEEEE5countERKS3_
FNDA:403,_ZNK3s215BTreeIiSt7greaterIiEE12FindPositionEPNS_13StructGeneralIiEERKi
FNDA:138,_ZN3s215BTreeINSt7__cxx1112basic_stringIcSt11char_traitsIcESaIcEEESt4lessIS6_EE9RightTurnEPNS_13StructGeneralIS6_EE
FNDA:207,_ZN3s2120IteratorGeneralConstISt4pairIKiiENS_10My_CompareIS3_St7greaterIiEEEEppEv
FNDA:2,_ZN3s215BTreeISt4pairIKiNSt7__cxx1112basic_stringIcSt11char_traitsIcESaIcEEEENS_10My_CompareIS9_St4lessIiEEEEaSERKSE_
FNDA:340,_ZN3s215BTreeINSt7__cxx1112basic_stringIcSt11char_traitsIcESaIcEEESt4lessIS6_EE6insertERKS6_b
FNDA:48,_ZN3s215BTreeISt4pairIKiNSt7__cxx1112basic_stringIcSt11char_traitsIcESaIcEEEENS_10My_CompareIS9_St4lessIiEEEE12CreateAnchorEv
FNDA:63,_ZN3s215BTreeIiSt7greaterIiEE5clearEv
FNDA:3,_ZNK3s215BTreeIiSt4lessIiEE11equal_rangeERKi
FNDA:5,_ZNK3s215BTreeISt4pairIKiiENS_10My_CompareIS3_St7greaterIiEEEEneERS8_
FNDA:10,_ZNK3s215BTreeIiSt7greaterIiEEleERS3_
FNDA:8,_ZN3s2115IteratorGeneralINSt7__cxx1112basic_stringIcSt11char_traitsIcESaIcEEESt4lessIS6_EEmmEv
FNDA:17,_ZN3s215BTreeISt4pairIKiiENS_10My_CompareIS3_St4lessIiEEEEC2IPKS3_EET_SC_b
FNDA:225,_ZN3s215BTreeIiSt4lessIiEE10AdjustmentEPNS_13StructGeneralIiEE
FNDA:5,_ZN3s215BTreeISt4pairIKiNSt7__cxx1112basic_stringIcSt11char_traitsIcESaIcEEEENS_10My_CompareIS9_St4lessIiEEEE14ArgumentParserERSt6vectorIS1_INS_15IteratorGeneralIS9_SD_EEbESaISI_EEb
FNDA:35,_ZNK3s215BTreeISt4pairIKiNSt7__cxx1112basic_stringIcSt11char_traitsIcESaIcEEEENS_10My_CompareIS9_St4lessIiEEEE14ComparisonListERKSE_
FNDA:35,_ZN3s215BTreeIiSt4lessIiEEC2IPKiEET_S7_b
FNDA:285,_ZN3s2120IteratorGeneralConstIiSt7greaterIiEEppEv
FNDA:30,_ZN3s215BTreeISt4pairIKiiENS_10My_CompareIS3_St7greaterIiEEEE8LeftTurnEPNS_13StructGeneralIS3_EE
FNDA:68,_ZN3s215BTreeISt4pairIKiiENS_10My_CompareIS3_St4lessIiEEEE6insertERKS3_b
FNDA:234,_ZN3s2115IteratorGeneralISt4pairIKiiENS_10My_CompareIS3_St7greaterIiEEEEC2EPNS_13StructGeneralIS3_EEm
FNDA:6,_ZN3s215BTreeIiSt4lessIiEE11upper_boundERKi
FNDA:4,_ZN3s2115IteratorGeneralISt4pairIKiNSt7__cxx1112basic_stringIcSt11char_traitsIcESaIcEEEENS_10My_CompareIS9_St4lessIiEEEEmmEv
FNDA:10,_ZNK3s215BTreeISt4pairIKiNSt7__cxx1112basic_stringIcSt11char_traitsIcESaIcEEEENS_10My_CompareIS9_St4lessIiEEEEeqERSE_
FNDA:150,_ZNK3s2115IteratorGeneralISt4pairIKiNSt7__cxx1112basic_stringIcSt11char_traitsIcESaIcEEEENS_10My_CompareIS9_St4lessIiEEEEdeEv
FNDA:8,_ZNK3s2120IteratorGeneralConstINSt7__cxx1112basic_stringIcSt11char_traitsIcESaIcEEESt7greaterIS6_EEneERKS9_
FNDA:24,_ZNK3s215BTreeINSt7__cxx1112basic_stringIcSt11char_traitsIcESaIcEEESt7greaterIS6_EE4sizeEv
FNDA:2,_ZN3s215BTreeIiSt4lessIiEE8LeftTurnEPNS_13StructGeneralIiEE
FNDA:110,_ZN3s2120IteratorGeneralConstISt4pairIKiNSt7__cxx1112basic_stringIcSt11char_traitsIcESaIcEEEENS_10My_CompareIS9_St4lessIiEEEEC2EPNS_13StructGeneralIS9_EEm
FNDA:10,_ZNK3s215BTreeIiSt7greaterIiEE4findERKi
FNDA:12,_ZNK3s215BTreeISt4pairIKiNSt7__cxx1112basic_stringIcSt11char_traitsIcESaIcEEEENS_10My_CompareIS9_St7greaterIiEEEE4sizeEv
FNDA:6,_ZNK3s215BTreeISt4pairIKiNSt7__cxx1112basic_stringIcSt11char_traitsIcESaIcEEEENS_10My_CompareIS9_St7greaterIiEEEE11not_equallyERKS9_SG_
FNDA:2,_ZN3s2111ClosestLeftIKNS_13StructGeneralISt4pairIKiNSt7__cxx1112basic_stringIcSt11char_traitsIcESaIcEEEEEEEEPT_SE_
FNDA:25,_ZN3s215BTreeISt4pairIKiiENS_10My_CompareIS3_St7greaterIiEEEEC2IPKS3_EET_SC_b
FNDA:12,_ZNK3s215BTreeINSt7__cxx1112basic_stringIcSt11char_traitsIcESaIcEEESt4lessIS6_EEneERS9_
FNDA:2,_ZN3s215BTreeINSt7__cxx1112basic_stringIcSt11char_traitsIcESaIcEEESt7greaterIS6_EEC2ERKS9_
FNDA:48,_ZN3s215BTreeISt4pairIKiNSt7__cxx1112basic_stringIcSt11char_traitsIcESaIcEEEENS_10My_CompareIS9_St4lessIiEEEED2Ev
FNDA:159,_ZN3s2112ClosestRightINS_13StructGeneralISt4pairIKiNSt7__cxx1112basic_stringIcSt11char_traitsIcESaIcEEEEEEEEPT_SD_
FNDA:2,_ZN3s215BTreeINSt7__cxx1112basic_stringIcSt11char_traitsIcESaIcEEESt4lessIS6_EE14ArgumentParserIJPKcSC_SC_EEEvRSt6vectorISt4pairINS_15IteratorGeneralIS6_S8_EEbESaISH_EEbOS6_DpT_
FNDA:1,_ZN3s2120IteratorGeneralConstINSt7__cxx1112basic_stringIcSt11char_traitsIcESaIcEEESt4lessIS6_EEmmEi
FNDA:1,_ZN3s215BTreeISt4pairIKiiENS_10My_CompareIS3_St4lessIiEEEE8LeftTurnEPNS_13StructGeneralIS3_EE
FNDA:18,_ZN3s215BTreeINSt7__cxx1112basic_stringIcSt11char_traitsIcESaIcEEESt7greaterIS6_EE14InsertStandartEPNS_13StructGeneralIS6_EERKS6_b
FNDA:9,_ZN3s2115IteratorGeneralISt4pairIKiNSt7__cxx1112basic_stringIcSt11char_traitsIcESaIcEEEENS_10My_CompareIS9_St7greaterIiEEEEC2EPNS_13StructGeneralIS9_EEm
FNDA:4,_ZN3s215BTreeIiSt7greaterIiEE4swapERS3_
FNDA:149,_ZNK3s2120IteratorGeneralConstISt4pairIKiNSt7__cxx1112basic_stringIcSt11char_traitsIcESaIcEEEENS_10My_CompareIS9_St4lessIiEEEEneERKSE_
FNDA:21,_ZNK3s2120IteratorGeneralConstIiSt4lessIiEEdeEv
FNDA:1,_ZNK3s215BTreeISt4pairIKiNSt7__cxx1112basic_stringIcSt11char_traitsIcESaIcEEEENS_10My_CompareIS9_St7greaterIiEEEEgeERSE_
FNDA:6,_ZNK3s215BTreeISt4pairIKiNSt7__cxx1112basic_stringIcSt11char_traitsIcESaIcEEEENS_10My_CompareIS9_St7greaterIiEEEE14ComparisonListERKSE_
FNDA:32,_ZN3s215BTreeIiSt7greaterIiEE3endEv
FNDA:98,_ZN3s2115IteratorGeneralISt4pairIKiiENS_10My_CompareIS3_St4lessIiEEEEC2EPNS_13StructGeneralIS3_EEm
FNDA:6,_ZNK3s215BTreeIiSt4lessIiEE11lower_boundERKi
FNDA:9,_ZN3s215BTreeIiSt7greaterIiEE5eraseENS_15IteratorGeneralIiS2_EEb
FNDA:19,_ZN3s215BTreeISt4pairIKiNSt7__cxx1112basic_stringIcSt11char_traitsIcESaIcEEEENS_10My_CompareIS9_St4lessIiEEEEC2ERKSE_
FNDA:92,_ZN3s2115IteratorGeneralISt4pairIKiiENS_10My_CompareIS3_St7greaterIiEEEEppEv
FNDA:88,_ZNK3s2120IteratorGeneralConstISt4pairIKiiENS_10My_CompareIS3_St7greaterIiEEEEneERKS8_
FNDA:5,_ZN3s215BTreeIiSt7greaterIiEEC2ERKS3_
FNDA:197,_ZNK3s215BTreeIiSt7greaterIiEE11not_equallyERKiS5_
FNDA:93,_ZNK3s2115IteratorGeneralIiSt7greaterIiEEdeEv
FNDA:11,_ZN3s215BTreeINSt7__cxx1112basic_stringIcSt11char_traitsIcESaIcEEESt4lessIS6_EE4findERKS6_
FNDA:12,_ZN3s215BTreeISt4pairIKiiENS_10My_CompareIS3_St7greaterIiEEEE3endEv
FNDA:2,_ZN3s215BTreeISt4pairIKiiENS_10My_CompareIS3_St7greaterIiEEEE4swapERS8_
FNDA:10,_ZN3s2111ClosestLeftINS_13StructGeneralINSt7__cxx1112basic_stringIcSt11char_traitsIcESaIcEEEEEEEPT_SA_
FNDA:323,_ZN3s2115IteratorGeneralIiSt7greaterIiEEC2EPNS_13StructGeneralIiEEm
FNDA:2,_ZN3s2115IteratorGeneralIiSt7greaterIiEEmmEi
FNDA:19,_ZN3s215BTreeISt4pairIKiiENS_10My_CompareIS3_St7greaterIiEEEE5beginEv
FNDA:2,_ZN3s215BTreeINSt7__cxx1112basic_stringIcSt11char_traitsIcESaIcEEESt4lessIS6_EE9swap_nodeEPNS_13StructGeneralIS6_EESC_
FNDA:308,_ZN3s2113StructGeneralISt4pairIKiNSt7__cxx1112basic_stringIcSt11char_traitsIcESaIcEEEEEC2ES9_
FNDA:5,_ZNK3s215BTreeISt4pairIKiiENS_10My_CompareIS3_St7greaterIiEEEEgeERS8_
FNDA:68,_ZN3s215BTreeISt4pairIKiiENS_10My_CompareIS3_St4lessIiEEEE14InsertStandartEPNS_13StructGeneralIS3_EERKS3_b
FNDA:9,_ZN3s215BTreeISt4pairIKiNSt7__cxx1112basic_stringIcSt11char_traitsIcESaIcEEEENS_10My_CompareIS9_St7greaterIiEEEE6insertERKS9_b
FNDA:1,_ZNK3s2120IteratorGeneralConstINSt7__cxx1112basic_stringIcSt11char_traitsIcESaIcEEESt4lessIS6_EEeqERKS9_
FNDA:5,_ZNK3s2120IteratorGeneralConstISt4pairIKiiENS_10My_CompareIS3_St4lessIiEEEEneERKS8_
FNDA:10,_ZN3s215BTreeIiSt7greaterIiEE4findERKi
FNDA:21,_ZN3s215BTreeISt4pairIKiNSt7__cxx1112basic_stringIcSt11char_traitsIcESaIcEEEENS_10My_CompareIS9_St4lessIiEEEE4findERKS9_
FNDA:10,_ZNK3s215BTreeIiSt7greaterIiEEeqERS3_
FNDA:2,_ZNK3s215BTreeINSt7__cxx1112basic_stringIcSt11char_traitsIcESaIcEEESt7greaterIS6_EEleERS9_
FNDA:2,_ZN3s215BTreeINSt7__cxx1112basic_stringIcSt11char_traitsIcESaIcEEESt7greaterIS6_EEaSERKS9_
FNDA:26,_ZNK3s215BTreeINSt7__cxx1112basic_stringIcSt11char_traitsIcESaIcEEESt7greaterIS6_EE5beginEv
FNDA:10,_ZNK3s215BTreeIiSt7greaterIiEEneERS3_
FNDA:6,_ZN3s215BTreeIiSt4lessIiEE11lower_boundERKi
FNDA:650,_ZN3s2120IteratorGeneralConstINSt7__cxx1112basic_stringIcSt11char_traitsIcESaIcEEESt4lessIS6_EEppEi
FNDA:19,_ZN3s215BTreeISt4pairIKiiENS_10My_CompareIS3_St4lessIiEEEE5clearEv
FNDA:7,_ZNK3s2120IteratorGeneralConstISt4pairIKiiENS_10My_CompareIS3_St4lessIiEEEEdeEv
FNDA:11,_ZN3s215BTreeISt4pairIKiiENS_10My_CompareIS3_St7greaterIiEEEE5EraseEPNS_13StructGeneralIS3_EE
FNDA:39,_ZN3s215BTreeIiSt4lessIiEE5clearEv
FNDA:6,_ZNK3s215BTreeIiSt7greaterIiEE5countERKi
FNDA:2,_ZNK3s215BTreeINSt7__cxx1112basic_stringIcSt11char_traitsIcESaIcEEESt7greaterIS6_EEgtERS9_
FNDA:5,_ZNK3s215BTreeISt4pairIKiNSt7__cxx1112basic_stringIcSt11char_traitsIcESaIcEEEENS_10My_CompareIS9_St4lessIiEEEEgeERSE_
FNDA:2,_ZN3s215BTreeIiSt7greaterIiEE14ArgumentParserIJiEEEvRSt6vectorISt4pairINS_15IteratorGeneralIiS2_EEbESaIS9_EEbOiDpT_
FNDA:173,_ZNK3s215BTreeINSt7__cxx1112basic_stringIcSt11char_traitsIcESaIcEEESt4lessIS6_EE4sizeEv
FNDA:226,_ZN3s215BTreeIiSt7greaterIiEE7FreeSetEPNS_13StructGeneralIiEE
FNDA:9,_ZN3s215BTreeISt4pairIKiNSt7__cxx1112basic_stringIcSt11char_traitsIcESaIcEEEENS_10My_CompareIS9_St7greaterIiEEEE10AdjustmentEPNS_13StructGeneralIS9_EE
FNDA:234,_ZN3s215BTreeIiSt7greaterIiEE6insertERKib
FNDA:32,_ZN3s215BTreeIiSt7greaterIiEE9RightTurnEPNS_13StructGeneralIiEE
FNDA:12,_ZN3s2115IteratorGeneralISt4pairIKiiENS_10My_CompareIS3_St4lessIiEEEEppEv
FNDA:3,_ZN3s215BTreeIiSt7greaterIiEE11equal_rangeERKi
FNDA:5,_ZNK3s215BTreeISt4pairIKiNSt7__cxx1112basic_stringIcSt11char_traitsIcESaIcEEEENS_10My_CompareIS9_St4lessIiEEEEltERSE_
FNDA:68,_ZN3s215BTreeISt4pairIKiiENS_10My_CompareIS3_St4lessIiEEEE7FreeSetEPNS_13StructGeneralIS3_EE
FNDA:2,_ZN3s215BTreeIiSt7greaterIiEE14ArgumentParserERSt6vectorISt4pairINS_15IteratorGeneralIiS2_EEbESaIS8_EEb
FNDA:1,_ZN3s215BTreeISt4pairIKiNSt7__cxx1112basic_stringIcSt11char_traitsIcESaIcEEEENS_10My_CompareIS9_St4lessIiEEEEC2INS_15IteratorGeneralIS9_SD_EEEET_SI_b
FNDA:263,_ZN3s215BTreeISt4pairIKiiENS_10My_CompareIS3_St7greaterIiEEEE10AdjustmentEPNS_13StructGeneralIS3_EE
FNDA:5,_ZNK3s215BTreeISt4pairIKiNSt7__cxx1112basic_stringIcSt11char_traitsIcESaIcEEEENS_10My_CompareIS9_St4lessIiEEEEgtERSE_
FNDA:12,_ZNK3s215BTreeINSt7__cxx1112basic_stringIcSt11char_traitsIcESaIcEEESt4lessIS6_EEgtERS9_
FNDA:5,_ZNK3s215BTreeISt4pairIKiNSt7__cxx1112basic_stringIcSt11char_traitsIcESaIcEEEENS_10My_CompareIS9_St4lessIiEEEEleERSE_
FNDA:232,_ZN3s215BTreeISt4pairIKiNSt7__cxx1112basic_stringIcSt11char_traitsIcESaIcEEEENS_10My_CompareIS9_St4lessIiEEEE7FreeSetEPNS_13StructGeneralIS9_EE
FNDA:9,_ZNK3s215BTreeISt4pairIKiiENS_10My_CompareIS3_St4lessIiEEEE8SmallestEPNS_13StructGeneralIS3_EE
FNDA:207,_ZN3s2120IteratorGeneralConstISt4pairIKiiENS_10My_CompareIS3_St7greaterIiEEEEppEi
FNDA:10,_ZN3s215BTreeINSt7__cxx1112basic_stringIcSt11char_traitsIcESaIcEEESt4lessIS6_EE14ArgumentParserIJPKcSC_EEEvRSt6vectorISt4pairINS_15IteratorGeneralIS6_S8_EEbESaISH_EEbOS6_DpT_
FNDA:13,_ZN3s215BTreeINSt7__cxx1112basic_stringIcSt11char_traitsIcESaIcEEESt4lessIS6_EEC2ERKS9_
FNDA:87,_ZN3s215BTreeIiSt4lessIiEE9RightTurnEPNS_13StructGeneralIiEE
FNDA:3,_ZN3s215BTreeISt4pairIKiNSt7__cxx1112basic_stringIcSt11char_traitsIcESaIcEEEENS_10My_CompareIS9_St7greaterIiEEEE12CreateAnchorEv
FNDA:227,_ZNK3s215BTreeISt4pairIKiNSt7__cxx1112basic_stringIcSt11char_traitsIcESaIcEEEENS_10My_CompareIS9_St4lessIiEEEE11not_equallyERKS9_SG_
FNDA:4,_ZN3s215BTreeINSt7__cxx1112basic_stringIcSt11char_traitsIcESaIcEEESt7greaterIS6_EEC2IPKS6_EET_SD_b
FNDA:1,_ZNK3s215BTreeISt4pairIKiNSt7__cxx1112basic_stringIcSt11char_traitsIcESaIcEEEENS_10My_CompareIS9_St7greaterIiEEEE3endEv
FNDA:16,_ZN3s215BTreeISt4pairIKiiENS_10My_CompareIS3_St4lessIiEEEE3endEv
FNDA:14,_ZNK3s215BTreeIiSt4lessIiEE5countERKi
FNDA:348,_ZN3s2120IteratorGeneralConstISt4pairIKiNSt7__cxx1112basic_stringIcSt11char_traitsIcESaIcEEEENS_10My_CompareIS9_St4lessIiEEEEppEi
FNDA:2,_ZNK3s215BTreeISt4pairIKiiENS_10My_CompareIS3_St7greaterIiEEEE5emptyEv
FNDA:28,_ZN3s2120IteratorGeneralConstINSt7__cxx1112basic_stringIcSt11char_traitsIcESaIcEEESt7greaterIS6_EEC2EPNS_13StructGeneralIS6_EEm
FNDA:2,_ZNK3s215BTreeISt4pairIKiiENS_10My_CompareIS3_St4lessIiEEEE5beginEv
FNDA:170,_ZN3s215BTreeISt4pairIKiiENS_10My_CompareIS3_St7greaterIiEEEE7FreeSetEPNS_13StructGeneralIS3_EE
FNDA:3,_ZN3s215BTreeISt4pairIKiiENS_10My_CompareIS3_St4lessIiEEEE4swapERS8_
FNDA:2,_ZN3s2115IteratorGeneralINSt7__cxx1112basic_stringIcSt11char_traitsIcESaIcEEESt4lessIS6_EEmmEi
FNDA:7,_ZN3s2111ClosestLeftINS_13StructGeneralISt4pairIKiiEEEEEPT_S7_
FNDA:87,_ZN3s2112ClosestRightINS_13StructGeneralINSt7__cxx1112basic_stringIcSt11char_traitsIcESaIcEEEEEEEPT_SA_
FNDA:1,_ZN3s215BTreeISt4pairIKiNSt7__cxx1112basic_stringIcSt11char_traitsIcESaIcEEEENS_10My_CompareIS9_St4lessIiEEEE5mergeERSE_b
FNDA:2,_ZN3s215BTreeIiSt7greaterIiEE7emplaceIJiiiEEESt6vectorISt4pairINS_15IteratorGeneralIiS2_EEbESaIS9_EEbDpOT_
FNDA:20,_ZN3s215BTreeINSt7__cxx1112basic_stringIcSt11char_traitsIcESaIcEEESt4lessIS6_EE8LeftTurnEPNS_13StructGeneralIS6_EE
FNDA:12,_ZNK3s215BTreeINSt7__cxx1112basic_stringIcSt11char_traitsIcESaIcEEESt4lessIS6_EEltERS9_
FNDA:4,_ZN3s2115IteratorGeneralISt4pairIKiiENS_10My_CompareIS3_St7greaterIiEEEEmmEv
FNDA:255,_ZNK3s2120IteratorGeneralConstISt4pairIKiiENS_10My_CompareIS3_St7greaterIiEEEEdeEv
FNDA:5,_ZNK3s215BTreeISt4pairIKiNSt7__cxx1112basic_stringIcSt11char_traitsIcESaIcEEEENS_10My_CompareIS9_St4lessIiEEEEneERSE_
FNDA:35,_ZN3s215BTreeISt4pairIKiiENS_10My_CompareIS3_St4lessIiEEEE9RightTurnEPNS_13StructGeneralIS3_EE
FNDA:5,_ZNK3s215BTreeISt4pairIKiiENS_10My_CompareIS3_St7greaterIiEEEEltERS8_
FNDA:78,_ZNK3s2120IteratorGeneralConstINSt7__cxx1112basic_stringIcSt11char_traitsIcESaIcEEESt7greaterIS6_EEdeEv
FNDA:2,_ZN3s215BTreeIiSt7greaterIiEE14ArgumentParserIJEEEvRSt6vectorISt4pairINS_15IteratorGeneralIiS2_EEbESaIS9_EEbOiDpT_
FNDA:13,_ZNK3s215BTreeISt4pairIKiNSt7__cxx1112basic_stringIcSt11char_traitsIcESaIcEEEENS_10My_CompareIS9_St7greaterIiEEEE5beginEv
FNDA:13,_ZNK3s215BTreeISt4pairIKiiENS_10My_CompareIS3_St4lessIiEEEE4findERKS3_
FNDA:10,_ZN3s215BTreeINSt7__cxx1112basic_stringIcSt11char_traitsIcESaIcEEESt4lessIS6_EE14ArgumentParserIJPKcEEEvRSt6vectorISt4pairINS_15IteratorGeneralIS6_S8_EEbESaISH_EEbOS6_DpT_
FNDA:2,_ZN3s215BTreeISt4pairIKiNSt7__cxx1112basic_stringIcSt11char_traitsIcESaIcEEEENS_10My_CompareIS9_St4lessIiEEEE4swapERSE_
FNDA:135,_ZN3s2115IteratorGeneralISt4pairIKiNSt7__cxx1112basic_stringIcSt11char_traitsIcESaIcEEEENS_10My_CompareIS9_St4lessIiEEEEppEi
FNDA:311,_ZNK3s215BTreeISt4pairIKiiENS_10My_CompareIS3_St7greaterIiEEEE12FindPositionEPNS_13StructGeneralIS3_EERKS3_
FNDA:4,_ZNK3s2115IteratorGeneralISt4pairIKiNSt7__cxx1112basic_stringIcSt11char_traitsIcESaIcEEEENS_10My_CompareIS9_St4lessIiEEEEptEv
FNDA:6,_ZN3s215BTreeINSt7__cxx1112basic_stringIcSt11char_traitsIcESaIcEEESt7greaterIS6_EED2Ev
FNDA:1,_ZN3s215BTreeISt4pairIKiNSt7__cxx1112basic_stringIcSt11char_traitsIcESaIcEEEENS_10My_CompareIS9_St7greaterIiEEEEaSERKSE_
FNDA:1,_ZNK3s215BTreeISt4pairIKiNSt7__cxx1112basic_stringIcSt11char_traitsIcESaIcEEEENS_10My_CompareIS9_St7greaterIiEEEEeqERSE_
FNDA:70,_ZNK3s215BTreeISt4pairIKiiENS_10My_CompareIS3_St7greaterIiEEEE5beginEv
FNDA:37,_ZN3s215BTreeIiSt4lessIiEE12CreateAnchorEv
FNDA:43,_ZN3s215BTreeISt4pairIKiiENS_10My_CompareIS3_St7greaterIiEEEE10SwapColorsEPNS_13StructGeneralIS3_EE
FNDA:91,_ZN3s215BTreeISt4pairIKiiENS_10My_CompareIS3_St4lessIiEEEE10AdjustmentEPNS_13StructGeneralIS3_EE
FNDA:5,_ZN3s215BTreeISt4pairIKiNSt7__cxx1112basic_stringIcSt11char_traitsIcESaIcEEEENS_10My_CompareIS9_St4lessIiEEEE14ArgumentParserIJS9_S9_EEEvRSt6vectorIS1_INS_15IteratorGeneralIS9_SD_EEbESaISJ_EEbOS9_DpT_
FNDA:25,_ZN3s215BTreeISt4pairIKiNSt7__cxx1112basic_stringIcSt11char_traitsIcESaIcEEEENS_10My_CompareIS9_St4lessIiEEEE5beginEv
FNDA:2,_ZN3s215BTreeISt4pairIKiNSt7__cxx1112basic_stringIcSt11char_traitsIcESaIcEEEENS_10My_CompareIS9_St7greaterIiEEEE8LeftTurnEPNS_13StructGeneralIS9_EE
FNDA:1,_ZN3s215BTreeISt4pairIKiiENS_10My_CompareIS3_St7greaterIiEEEE14ArgumentParserERSt6vectorIS1_INS_15IteratorGeneralIS3_S7_EEbESaISC_EEb
FNDA:19,_ZN3s215BTreeISt4pairIKiNSt7__cxx1112basic_stringIcSt11char_traitsIcESaIcEEEENS_10My_CompareIS9_St4lessIiEEEE5EraseEPNS_13StructGeneralIS9_EE
FNDA:175,_ZNK3s215BTreeINSt7__cxx1112basic_stringIcSt11char_traitsIcESaIcEEESt4lessIS6_EE5beginEv
FNDA:14,_ZN3s215BTreeINSt7__cxx1112basic_stringIcSt11char_traitsIcESaIcEEESt4lessIS6_EE5eraseENS_15IteratorGeneralIS6_S8_EEb
FNDA:6,_ZNK3s215BTreeIiSt4lessIiEE8containsERKi
FNDA:5,_ZN3s215BTreeISt4pairIKiNSt7__cxx1112basic_stringIcSt11char_traitsIcESaIcEEEENS_10My_CompareIS9_St4lessIiEEEE14ArgumentParserIJS9_EEEvRSt6vectorIS1_INS_15IteratorGeneralIS9_SD_EEbESaISJ_EEbOS9_DpT_
FNDA:1,_ZN3s215BTreeISt4pairIKiiENS_10My_CompareIS3_St7greaterIiEEEEaSERKS8_
FNDA:5,_ZNK3s215BTreeISt4pairIKiiENS_10My_CompareIS3_St7greaterIiEEEEgtERS8_
FNDA:1,_ZNK3s215BTreeISt4pairIKiNSt7__cxx1112basic_stringIcSt11char_traitsIcESaIcEEEENS_10My_CompareIS9_St7greaterIiEEEEleERSE_
FNDA:3,_ZNK3s2120IteratorGeneralConstISt4pairIKiiENS_10My_CompareIS3_St4lessIiEEEEeqERKS8_
FNDA:23,_ZN3s215BTreeIiSt7greaterIiEE5beginEv
FNDA:89,_ZNK3s215BTreeISt4pairIKiiENS_10My_CompareIS3_St7greaterIiEEEE8SmallestEPNS_13StructGeneralIS3_EE
FNDA:34,_ZN3s2120IteratorGeneralConstISt4pairIKiiENS_10My_CompareIS3_St4lessIiEEEEC2EPNS_13StructGeneralIS3_EEm
FNDA:29,_ZN3s215BTreeINSt7__cxx1112basic_stringIcSt11char_traitsIcESaIcEEESt4lessIS6_EE3endEv
FNDA:4,_ZN3s215BTreeINSt7__cxx1112basic_stringIcSt11char_traitsIcESaIcEEESt7greaterIS6_EE8LeftTurnEPNS_13StructGeneralIS6_EE
FNDA:179,_ZN3s215BTreeISt4pairIKiiENS_10My_CompareIS3_St7greaterIiEEEE14InsertStandartEPNS_13StructGeneralIS3_EERKS3_b
FNDA:201,_ZNK3s215BTreeINSt7__cxx1112basic_stringIcSt11char_traitsIcESaIcEEESt4lessIS6_EE8SmallestEPNS_13StructGeneralIS6_EE
FNDA:10,_ZNK3s2115IteratorGeneralISt4pairIKiNSt7__cxx1112basic_stringIcSt11char_traitsIcESaIcEEEENS_10My_CompareIS9_St4lessIiEEEEneERKSE_
FNDA:5,_ZNK3s215BTreeIiSt4lessIiEE5beginEv
FNDA:135,_ZNK3s215BTreeIiSt7greaterIiEE4sizeEv
FNDA:4,_ZNK3s215BTreeISt4pairIKiiENS_10My_CompareIS3_St4lessIiEEEE4sizeEv
FNDA:125,_ZNK3s215BTreeIiSt7greaterIiEE5beginEv
FNDA:6,_ZN3s215BTreeINSt7__cxx1112basic_stringIcSt11char_traitsIcESaIcEEESt4lessIS6_EE7emplaceIJRA2_KcSD_SD_EEESt6vectorISt4pairINS_15IteratorGeneralIS6_S8_EEbESaISI_EEbDpOT_
FNDA:2,_ZNK3s2115IteratorGeneralINSt7__cxx1112basic_stringIcSt11char_traitsIcESaIcEEESt4lessIS6_EEeqERKS9_
FNDA:1,_ZN3s215BTreeISt4pairIKiiENS_10My_CompareIS3_St4lessIiEEEEC2EOS8_
FNDA:4,_ZNK3s215BTreeIiSt7greaterIiEE5emptyEv
FNDA:7,_ZN3s215BTreeISt4pairIKiiENS_10My_CompareIS3_St4lessIiEEEE5beginEv
FNDA:6,_ZN3s215BTreeIiSt4lessIiEE4swapERS3_
FNDA:106,_ZNK3s2115IteratorGeneralISt4pairIKiiENS_10My_CompareIS3_St7greaterIiEEEEdeEv
FNDA:14,_ZN3s215BTreeIiSt4lessIiEE5beginEv
FNDA:2,_ZN3s215BTreeIiSt7greaterIiEEC2INS_15IteratorGeneralIiS2_EEEET_S7_b
FNDA:60,_ZNK3s215BTreeIiSt7greaterIiEE14ComparisonListERKS3_
FNDA:12,_ZNK3s215BTreeINSt7__cxx1112basic_stringIcSt11char_traitsIcESaIcEEESt4lessIS6_EEgeERS9_
FNDA:357,_ZNK3s215BTreeIiSt4lessIiEE12FindPositionEPNS_13StructGeneralIiEERKi
FNDA:112,_ZN3s2112ClosestRightINS_13StructGeneralIiEEEEPT_S4_
FNDA:2,_ZN3s215BTreeIiSt7greaterIiEEaSERKS3_
FNDA:112,_ZNK3s215BTreeISt4pairIKiNSt7__cxx1112basic_stringIcSt11char_traitsIcESaIcEEEENS_10My_CompareIS9_St4lessIiEEEE8SmallestEPNS_13StructGeneralIS9_EE
FNDA:10,_ZN3s215BTreeISt4pairIKiiENS_10My_CompareIS3_St7greaterIiEEEEC2ERKS8_
FNDA:207,_ZN3s2112ClosestRightIKNS_13StructGeneralISt4pairIKiiEEEEEPT_S8_
FNDA:7,_ZN3s2111ClosestLeftINS_13StructGeneralISt4pairIKiNSt7__cxx1112basic_stringIcSt11char_traitsIcESaIcEEEEEEEEPT_SD_
FNDA:707,_ZNK3s2120IteratorGeneralConstINSt7__cxx1112basic_stringIcSt11char_traitsIcESaIcEEESt4lessIS6_EEdeEv
FNDA:33,_ZN3s215BTreeISt4pairIKiNSt7__cxx1112basic_stringIcSt11char_traitsIcESaIcEEEENS_10My_CompareIS9_St4lessIiEEEE3endEv
FNDA:20,_ZNK3s2115IteratorGeneralINSt7__cxx1112basic_stringIcSt11char_traitsIcESaIcEEESt4lessIS6_EEneERKS9_
FNDA:268,_ZN3s215BTreeIiSt7greaterIiEE10AdjustmentEPNS_13StructGeneralIiEE
FNDA:1,_ZN3s215BTreeISt4pairIKiiENS_10My_CompareIS3_St4lessIiEEEEaSEOS8_
FNDA:2,_ZNK3s215BTreeINSt7__cxx1112basic_stringIcSt11char_traitsIcESaIcEEESt7greaterIS6_EEltERS9_
FNDA:1,_ZN3s215BTreeISt4pairIKiiENS_10My_CompareIS3_St7greaterIiEEEEC2INS_15IteratorGeneralIS3_S7_EEEET_SC_b
FNDA:124,_ZNK3s215BTreeISt4pairIKiiENS_10My_CompareIS3_St4lessIiEEEE12FindPositionEPNS_13StructGeneralIS3_EERKS3_
FNDA:254,_ZN3s215BTreeISt4pairIKiNSt7__cxx1112basic_stringIcSt11char_traitsIcESaIcEEEENS_10My_CompareIS9_St4lessIiEEEE14InsertStandartEPNS_13StructGeneralIS9_EERKS9_b
FNDA:16,_ZN3s215BTreeIiSt4lessIiEE3endEv
FNDA:6,_ZNK3s2115IteratorGeneralISt4pairIKiNSt7__cxx1112basic_stringIcSt11char_traitsIcESaIcEEEENS_10My_CompareIS9_St4lessIiEEEEeqERKSE_
FNDA:5,_ZNK3s215BTreeISt4pairIKiiENS_10My_CompareIS3_St7greaterIiEEEEleERS8_
FNDA:2,_ZN3s215BTreeIiSt7greaterIiEE14ArgumentParserIJiiEEEvRSt6vectorISt4pairINS_15IteratorGeneralIiS2_EEbESaIS9_EEbOiDpT_
FNDA:374,_ZNK3s2120IteratorGeneralConstISt4pairIKiNSt7__cxx1112basic_stringIcSt11char_traitsIcESaIcEEEENS_10My_CompareIS9_St4lessIiEEEEdeEv
FNDA:8,_ZN3s2115IteratorGeneralIiSt7greaterIiEEmmEv
FNDA:1,_ZNK3s215BTreeISt4pairIKiNSt7__cxx1112basic_stringIcSt11char_traitsIcESaIcEEEENS_10My_CompareIS9_St7greaterIiEEEEltERSE_
FNDA:92,_ZN3s2120IteratorGeneralConstIiSt4lessIiEEC2EPNS_13StructGeneralIiEEm
FNDA:2,_ZN3s2120IteratorGeneralConstISt4pairIKiNSt7__cxx1112basic_stringIcSt11char_traitsIcESaIcEEEENS_10My_CompareIS9_St4lessIiEEEEmmEv
FNDA:18,_ZNK3s215BTreeINSt7__cxx1112basic_stringIcSt11char_traitsIcESaIcEEESt4lessIS6_EE3endEv
FNDA:274,_ZNK3s215BTreeINSt7__cxx1112basic_stringIcSt11char_traitsIcESaIcEEESt4lessIS6_EE11not_equallyERKS6_SB_
FNDA:2,_ZNK3s215BTreeINSt7__cxx1112basic_stringIcSt11char_traitsIcESaIcEEESt7greaterIS6_EEgeERS9_
FNDA:58,_ZN3s215BTreeIiSt7greaterIiEE8LeftTurnEPNS_13StructGeneralIiEE
FNDA:8,_ZN3s2120IteratorGeneralConstINSt7__cxx1112basic_stringIcSt11char_traitsIcESaIcEEESt4lessIS6_EEmmEv
FNDA:12,_ZN3s2115IteratorGeneralISt4pairIKiiENS_10My_CompareIS3_St4lessIiEEEEppEi
FNDA:19,_ZN3s215BTreeISt4pairIKiNSt7__cxx1112basic_stringIcSt11char_traitsIcESaIcEEEENS_10My_CompareIS9_St4lessIiEEEE5eraseENS_15IteratorGeneralIS9_SD_EEb
FNDA:2,_ZNK3s215BTreeINSt7__cxx1112basic_stringIcSt11char_traitsIcESaIcEEESt7greaterIS6_EEneERS9_
FNDA:26,_ZN3s215BTreeINSt7__cxx1112basic_stringIcSt11char_traitsIcESaIcEEESt4lessIS6_EE5beginEv
FNDA:2,_ZN3s215BTreeINSt7__cxx1112basic_stringIcSt11char_traitsIcESaIcEEESt4lessIS6_EEC2INS_15IteratorGeneralIS6_S8_EEEET_SD_b
FNDA:12,_ZNK3s215BTreeINSt7__cxx1112basic_stringIcSt11char_traitsIcESaIcEEESt7greaterIS6_EE11not_equallyERKS6_SB_
FNDA:59,_ZN3s215BTreeIiSt7greaterIiEED2Ev
FNDA:1,_ZN3s215BTreeISt4pairIKiNSt7__cxx1112basic_stringIcSt11char_traitsIcESaIcEEEENS_10My_CompareIS9_St7greaterIiEEEE10SwapColorsEPNS_13StructGeneralIS9_EE
FNDA:5,_ZN3s215BTreeISt4pairIKiNSt7__cxx1112basic_stringIcSt11char_traitsIcESaIcEEEENS_10My_CompareIS9_St4lessIiEEEE14ArgumentParserIJEEEvRSt6vectorIS1_INS_15IteratorGeneralIS9_SD_EEbESaISJ_EEbOS9_DpT_
FNDA:158,_ZNK3s215BTreeISt4pairIKiiENS_10My_CompareIS3_St7greaterIiEEEE11not_equallyERKS3_SA_
FNDA:354,_ZN3s2115IteratorGeneralISt4pairIKiNSt7__cxx1112basic_stringIcSt11char_traitsIcESaIcEEEENS_10My_CompareIS9_St4lessIiEEEEC2EPNS_13StructGeneralIS9_EEm
FNDA:58,_ZN3s215BTreeINSt7__cxx1112basic_stringIcSt11char_traitsIcESaIcEEESt4lessIS6_EEC2IPKS6_EET_SD_b
FNDA:9,_ZN3s215BTreeISt4pairIKiiENS_10My_CompareIS3_St4lessIiEEEE4findERKS3_
FNDA:10,_ZN3s215BTreeINSt7__cxx1112basic_stringIcSt11char_traitsIcESaIcEEESt4lessIS6_EE14ArgumentParserERSt6vectorISt4pairINS_15IteratorGeneralIS6_S8_EEbESaISE_EEb
FNDA:30,_ZNK3s215BTreeISt4pairIKiiENS_10My_CompareIS3_St7greaterIiEEEE14ComparisonListERKS8_
FNDA:18,_ZN3s2115IteratorGeneralINSt7__cxx1112basic_stringIcSt11char_traitsIcESaIcEEESt7greaterIS6_EEC2EPNS_13StructGeneralIS6_EEm
FNDA:21,_ZNK3s215BTreeISt4pairIKiNSt7__cxx1112basic_stringIcSt11char_traitsIcESaIcEEEENS_10My_CompareIS9_St4lessIiEEEE3endEv
FNDA:425,_ZNK3s215BTreeINSt7__cxx1112basic_stringIcSt11char_traitsIcESaIcEEESt4lessIS6_EE12FindPositionEPNS_13StructGeneralIS6_EERKS6_
FNDA:79,_ZN3s215BTreeINSt7__cxx1112basic_stringIcSt11char_traitsIcESaIcEEESt4lessIS6_EE5clearEv
FNDA:193,_ZN3s2120IteratorGeneralConstINSt7__cxx1112basic_stringIcSt11char_traitsIcESaIcEEESt4lessIS6_EEC2EPNS_13StructGeneralIS6_EEm
FNDA:14,_ZN3s2120IteratorGeneralConstISt4pairIKiNSt7__cxx1112basic_stringIcSt11char_traitsIcESaIcEEEENS_10My_CompareIS9_St7greaterIiEEEEC2EPNS_13StructGeneralIS9_EEm
FNDA:2,_ZN3s215BTreeIiSt4lessIiEEC2EOS3_
FNDA:1,_ZNK3s2115IteratorGeneralISt4pairIKiiENS_10My_CompareIS3_St7greaterIiEEEEeqERKS8_
FNDA:2,_ZNK3s215BTreeINSt7__cxx1112basic_stringIcSt11char_traitsIcESaIcEEESt7greaterIS6_EEeqERS9_
FNDA:5,_ZNK3s215BTreeISt4pairIKiiENS_10My_CompareIS3_St7greaterIiEEEEeqERS8_
FNDA:154,_ZN3s2120IteratorGeneralConstIiSt7greaterIiEEC2EPNS_13StructGeneralIiEEm
FNDA:4,_ZN3s215BTreeIiSt4lessIiEE4findERKi
FNDA:75,_ZNK3s215BTreeISt4pairIKiiENS_10My_CompareIS3_St7greaterIiEEEE4sizeEv
FNDA:10,_ZN3s215BTreeINSt7__cxx1112basic_stringIcSt11char_traitsIcESaIcEEESt4lessIS6_EE14ArgumentParserIJEEEvRSt6vectorISt4pairINS_15IteratorGeneralIS6_S8_EEbESaISF_EEbOS6_DpT_
FNDA:2,_ZNK3s215BTreeISt4pairIKiiENS_10My_CompareIS3_St4lessIiEEEE8containsERKS3_
FNDA:68,_ZN3s2115IteratorGeneralINSt7__cxx1112basic_stringIcSt11char_traitsIcESaIcEEESt4lessIS6_EEppEi
FNDA:4,_ZN3s215BTreeINSt7__cxx1112basic_stringIcSt11char_traitsIcESaIcEEESt4lessIS6_EEaSERKS9_
FNDA:1,_ZNK3s215BTreeISt4pairIKiNSt7__cxx1112basic_stringIcSt11char_traitsIcESaIcEEEENS_10My_CompareIS9_St7greaterIiEEEEneERSE_
FNDA:381,_ZNK3s2120IteratorGeneralConstIiSt7greaterIiEEdeEv
FNDA:14,_ZNK3s2120IteratorGeneralConstIiSt4lessIiEEneERKS3_
FNDA:2,_ZN3s215BTreeINSt7__cxx1112basic_stringIcSt11char_traitsIcESaIcEEESt7greaterIS6_EE9RightTurnEPNS_13StructGeneralIS6_EE
FNDA:1,_ZN3s215BTreeISt4pairIKiNSt7__cxx1112basic_stringIcSt11char_traitsIcESaIcEEEENS_10My_CompareIS9_St7greaterIiEEEE9RightTurnEPNS_13StructGeneralIS9_EE
FNDA:28,_ZNK3s2115IteratorGeneralISt4pairIKiiENS_10My_CompareIS3_St4lessIiEEEEdeEv
FNDA:94,_ZNK3s2115IteratorGeneralINSt7__cxx1112basic_stringIcSt11char_traitsIcESaIcEEESt4lessIS6_EEdeEv
FNDA:75,_ZN3s215BTreeINSt7__cxx1112basic_stringIcSt11char_traitsIcESaIcEEESt4lessIS6_EE12CreateAnchorEv
FNDA:5,_ZNK3s2115IteratorGeneralISt4pairIKiiENS_10My_CompareIS3_St7greaterIiEEEEneERKS8_
FNDA:52,_ZN3s215BTreeIiSt7greaterIiEEC2IPKiEET_S7_b
FNDA:418,_ZN3s2115IteratorGeneralINSt7__cxx1112basic_stringIcSt11char_traitsIcESaIcEEESt4lessIS6_EEC2EPNS_13StructGeneralIS6_EEm
FNDA:13,_ZNK3s215BTreeISt4pairIKiNSt7__cxx1112basic_stringIcSt11char_traitsIcESaIcEEEENS_10My_CompareIS9_St7greaterIiEEEE8SmallestEPNS_13StructGeneralIS9_EE
FNDA:37,_ZN3s215BTreeIiSt4lessIiEED2Ev
FNDA:16,_ZNK3s215BTreeINSt7__cxx1112basic_stringIcSt11char_traitsIcESaIcEEESt7greaterIS6_EE12FindPositionEPNS_13StructGeneralIS6_EERKS6_
FNDA:3,_ZN3s215BTreeIiSt4lessIiEE11equal_rangeERKi
FNDA:9,_ZN3s215BTreeIiSt7greaterIiEE5EraseEPNS_13StructGeneralIiEE
FNDA:18,_ZN3s215BTreeISt4pairIKiiENS_10My_CompareIS3_St4lessIiEEEE12CreateAnchorEv
FNDA:2,_ZNK3s215BTreeISt4pairIKiiENS_10My_CompareIS3_St4lessIiEEEE5emptyEv
FNDA:26,_ZNK3s215BTreeINSt7__cxx1112basic_stringIcSt11char_traitsIcESaIcEEESt7greaterIS6_EE8SmallestEPNS_13StructGeneralIS6_EE
FNDA:4,_ZN3s215BTreeINSt7__cxx1112basic_stringIcSt11char_traitsIcESaIcEEESt4lessIS6_EE4swapERS9_
FNDA:18,_ZN3s215BTreeINSt7__cxx1112basic_stringIcSt11char_traitsIcESaIcEEESt7greaterIS6_EE10AdjustmentEPNS_13StructGeneralIS6_EE
FNDA:78,_ZN3s2120IteratorGeneralConstINSt7__cxx1112basic_stringIcSt11char_traitsIcESaIcEEESt7greaterIS6_EEppEv
FNDA:32,_ZNK3s2120IteratorGeneralConstIiSt7greaterIiEEneERKS3_
FNDA:51,_ZN3s215BTreeIiSt4lessIiEE10SwapColorsEPNS_13StructGeneralIiEE
FNDA:2,_ZN3s215BTreeIiSt4lessIiEEaSEOS3_
FNDA:404,_ZN3s2113StructGeneralINSt7__cxx1112basic_stringIcSt11char_traitsIcESaIcEEEEC2ES6_
FNDA:10,_ZNK3s215BTreeIiSt7greaterIiEEgtERS3_
FNDA:3,_ZN3s215BTreeISt4pairIKiiENS_10My_CompareIS3_St7greaterIiEEEE9swap_nodeEPNS_13StructGeneralIS3_EESB_
FNDA:2,_ZN3s215BTreeINSt7__cxx1112basic_stringIcSt11char_traitsIcESaIcEEESt4lessIS6_EE14ArgumentParserIJPKcSC_SC_SC_SC_SC_EEEvRSt6vectorISt4pairINS_15IteratorGeneralIS6_S8_EEbESaISH_EEbOS6_DpT_
FNDA:39,_ZN3s2120IteratorGeneralConstISt4pairIKiNSt7__cxx1112basic_stringIcSt11char_traitsIcESaIcEEEENS_10My_CompareIS9_St7greaterIiEEEEppEi
FNDA:92,_ZN3s2120IteratorGeneralConstISt4pairIKiiENS_10My_CompareIS3_St7greaterIiEEEEC2EPNS_13StructGeneralIS3_EEm
FNDA:2,_ZN3s215BTreeINSt7__cxx1112basic_stringIcSt11char_traitsIcESaIcEEESt4lessIS6_EE14ArgumentParserIJPKcSC_SC_SC_EEEvRSt6vectorISt4pairINS_15IteratorGeneralIS6_S8_EEbESaISH_EEbOS6_DpT_
FNDA:26,_ZN3s2115IteratorGeneralIiSt4lessIiEEppEv
FNDA:2,_ZN3s215BTreeINSt7__cxx1112basic_stringIcSt11char_traitsIcESaIcEEESt7greaterIS6_EE10SwapColorsEPNS_13StructGeneralIS6_EE
FNDA:8,_ZNK3s215BTreeIiSt4lessIiEE4sizeEv
FNDA:3,_ZN3s215BTreeISt4pairIKiNSt7__cxx1112basic_stringIcSt11char_traitsIcESaIcEEEENS_10My_CompareIS9_St7greaterIiEEEE5clearEv
FNDA:10,_ZN3s215BTreeINSt7__cxx1112basic_stringIcSt11char_traitsIcESaIcEEESt4lessIS6_EE5EraseEPNS_13StructGeneralIS6_EE
FNDA:19,_ZNK3s215BTreeIiSt4lessIiEE8SmallestEPNS_13StructGeneralIiEE
FNDA:168,_ZNK3s215BTreeIiSt4lessIiEE11not_equallyERKiS5_
FNDA:36,_ZN3s215BTreeISt4pairIKiiENS_10My_CompareIS3_St7greaterIiEEEE12CreateAnchorEv
FNDA:6,_ZN3s215BTreeINSt7__cxx1112basic_stringIcSt11char_traitsIcESaIcEEESt7greaterIS6_EE5clearEv
FNDA:2,_ZN3s215BTreeISt4pairIKiNSt7__cxx1112basic_stringIcSt11char_traitsIcESaIcEEEENS_10My_CompareIS9_St7greaterIiEEEEC2IPKS9_EET_SI_b
FNDA:66,_ZN3s215BTreeISt4pairIKiiENS_10My_CompareIS3_St7greaterIiEEEE9RightTurnEPNS_13StructGeneralIS3_EE
FNDA:9,_ZN3s215BTreeISt4pairIKiNSt7__cxx1112basic_stringIcSt11char_traitsIcESaIcEEEENS_10My_CompareIS9_St4lessIiEEEE8LeftTurnEPNS_13StructGeneralIS9_EE
FNDA:4,_ZNK3s215BTreeIiSt4lessIiEE5emptyEv
FNDA:27,_ZN3s215BTreeISt4pairIKiNSt7__cxx1112basic_stringIcSt11char_traitsIcESaIcEEEENS_10My_CompareIS9_St4lessIiEEEEC2IPKS9_EET_SI_b
FNDA:78,_ZN3s215BTreeINSt7__cxx1112basic_stringIcSt11char_traitsIcESaIcEEESt4lessIS6_EE10SwapColorsEPNS_13StructGeneralIS6_EE
FNDA:1,_ZN3s215BTreeISt4pairIKiiENS_10My_CompareIS3_St7greaterIiEEEE14ArgumentParserIJS3_EEEvRSt6vectorIS1_INS_15IteratorGeneralIS3_S7_EEbESaISD_EEbOS3_DpT_
FNDA:18,_ZN3s215BTreeINSt7__cxx1112basic_stringIcSt11char_traitsIcESaIcEEESt7greaterIS6_EE6insertERKS6_b
FNDA:8,_ZNK3s215BTreeISt4pairIKiNSt7__cxx1112basic_stringIcSt11char_traitsIcESaIcEEEENS_10My_CompareIS9_St7greaterIiEEEE12FindPositionEPNS_13StructGeneralIS9_EERKS9_
FNDA:1,_ZNK3s2115IteratorGeneralISt4pairIKiiENS_10My_CompareIS3_St4lessIiEEEEptEv
FNDA:2,_ZN3s215BTreeINSt7__cxx1112basic_stringIcSt11char_traitsIcESaIcEEESt4lessIS6_EEC2Ev
FNDA:39,_ZN3s2120IteratorGeneralConstISt4pairIKiNSt7__cxx1112basic_stringIcSt11char_traitsIcESaIcEEEENS_10My_CompareIS9_St7greaterIiEEEEppEv
FNDA:140,_ZN3s2115IteratorGeneralISt4pairIKiNSt7__cxx1112basic_stringIcSt11char_traitsIcESaIcEEEENS_10My_CompareIS9_St4lessIiEEEEppEv
FNDA:3,_ZN3s215BTreeIiSt7greaterIiEE9swap_nodeEPNS_13StructGeneralIiEES6_
FNDA:146,_ZN3s215BTreeISt4pairIKiNSt7__cxx1112basic_stringIcSt11char_traitsIcESaIcEEEENS_10My_CompareIS9_St4lessIiEEEE9RightTurnEPNS_13StructGeneralIS9_EE
FNDA:89,_ZNK3s215BTreeISt4pairIKiNSt7__cxx1112basic_stringIcSt11char_traitsIcESaIcEEEENS_10My_CompareIS9_St4lessIiEEEE5beginEv
FNDA:10,_ZN3s215BTreeISt4pairIKiiENS_10My_CompareIS3_St7greaterIiEEEE4findERKS3_
FNDA:80,_ZNK3s215BTreeINSt7__cxx1112basic_stringIcSt11char_traitsIcESaIcEEESt4lessIS6_EE14ComparisonListERKS9_
FNDA:6,_ZNK3s215BTreeIiSt4lessIiEE11upper_boundERKi
FNDA:2,_ZN3s215BTreeINSt7__cxx1112basic_stringIcSt11char_traitsIcESaIcEEESt4lessIS6_EE7emplaceIJRA2_KcRA3_SB_SF_EEESt6vectorISt4pairINS_15IteratorGeneralIS6_S8_EEbESaISK_EEbDpOT_
FNDA:5,_ZNK3s215BTreeISt4pairIKiiENS_10My_CompareIS3_St4lessIiEEEE5countERKS3_
FNDA:2,_ZNK3s2115IteratorGeneralIiSt7greaterIiEEeqERKS3_
FNDA:651,_ZN3s2120IteratorGeneralConstINSt7__cxx1112basic_stringIcSt11char_traitsIcESaIcEEESt4lessIS6_EEppEv
FNDA:340,_ZN3s215BTreeINSt7__cxx1112basic_stringIcSt11char_traitsIcESaIcEEESt4lessIS6_EE14InsertStandartEPNS_13StructGeneralIS6_EERKS6_b
FNDA:20,_ZNK3s215BTreeINSt7__cxx1112basic_stringIcSt11char_traitsIcESaIcEEESt4lessIS6_EEeqERS9_
FNDA:12,_ZNK3s215BTreeINSt7__cxx1112basic_stringIcSt11char_traitsIcESaIcEEESt7greaterIS6_EE14ComparisonListERKS9_
FNDA:164,_ZN3s215BTreeIiSt4lessIiEE6insertERKib
FNDA:10,_ZNK3s215BTreeIiSt7greaterIiEEgeERS3_
FNDA:1,_ZN3s215BTreeISt4pairIKiiENS_10My_CompareIS3_St7greaterIiEEEE14ArgumentParserIJS3_S3_EEEvRSt6vectorIS1_INS_15IteratorGeneralIS3_S7_EEbESaISD_EEbOS3_DpT_
FNDA:115,_ZN3s2112ClosestRightINS_13StructGeneralISt4pairIKiiEEEEEPT_S7_
FNDA:18,_ZN3s215BTreeINSt7__cxx1112basic_stringIcSt11char_traitsIcESaIcEEESt7greaterIS6_EE7FreeSetEPNS_13StructGeneralIS6_EE
FNDA:254,_ZN3s215BTreeISt4pairIKiNSt7__cxx1112basic_stringIcSt11char_traitsIcESaIcEEEENS_10My_CompareIS9_St4lessIiEEEE6insertERKS9_b
FNDA:2,_ZN3s215BTreeINSt7__cxx1112basic_stringIcSt11char_traitsIcESaIcEEESt7greaterIS6_EE4swapERS9_
FNDA:1,_ZN3s215BTreeISt4pairIKiiENS_10My_CompareIS3_St7greaterIiEEEE14ArgumentParserIJS3_S3_S3_EEEvRSt6vectorIS1_INS_15IteratorGeneralIS3_S7_EEbESaISD_EEbOS3_DpT_
FNDA:11,_ZN3s215BTreeISt4pairIKiiENS_10My_CompareIS3_St7greaterIiEEEE5eraseENS_15IteratorGeneralIS3_S7_EEb
FNDA:24,_ZN3s2115IteratorGeneralIiSt4lessIiEEppEi
FNDA:7,_ZNK3s2115IteratorGeneralISt4pairIKiiENS_10My_CompareIS3_St4lessIiEEEEeqERKS8_
FNDA:2,_ZNK3s215BTreeINSt7__cxx1112basic_stringIcSt11char_traitsIcESaIcEEESt7greaterIS6_EE3endEv
FNDA:8,_ZN3s2111ClosestLeftIKNS_13StructGeneralINSt7__cxx1112basic_stringIcSt11char_traitsIcESaIcEEEEEEEPT_SB_
FNF:394
FNH:394
DA:18,1496
DA:26,2043
DA:28,2043
DA:29,657
DA:30,891
DA:31,657
DA:33,1386
DA:34,2431
DA:35,1045
DA:36,1045
DA:39,2043
DA:43,45
DA:45,45
DA:46,38
DA:47,60
DA:48,38
DA:50,7
DA:51,7
DA:52,0
DA:53,0
DA:56,45
DA:72,1664
DA:73,1664
DA:74,525
DA:75,5
DA:76,406
DA:77,406
DA:78,4
DA:80,402
DA:81,402
DA:83,406
DA:85,381
DA:86,381
DA:87,381
DA:88,381
DA:90,24
DA:91,24
DA:92,0
DA:94,24
DA:95,24
DA:97,24
DA:99,6
DA:100,6
DA:101,6
DA:102,6
DA:104,18
DA:105,18
DA:110,45
DA:111,45
DA:135,717
DA:136,717
DA:139,1862
DA:141,1608
DA:142,1608
DA:143,38
DA:145,1570
DA:146,1570
DA:148,1608
DA:150,1607
DA:151,1607
DA:152,1607
DA:153,1607
DA:155,10
DA:156,10
DA:157,0
DA:159,10
DA:160,10
DA:162,10
DA:164,1
DA:165,1
DA:166,1
DA:167,1
DA:169,4
DA:170,4
DA:175,370
DA:176,370
DA:193,3
DA:196,226
DA:198,1104
DA:199,878
DA:200,878
DA:202,0
DA:203,0
DA:204,0
DA:205,0
DA:207,226
DA:209,50
DA:210,50
DA:212,341
DA:213,291
DA:214,291
DA:216,0
DA:217,0
DA:218,0
DA:219,0
DA:221,50
DA:223,3
DA:225,12
DA:226,12
DA:227,12
DA:228,12
DA:229,12
DA:231,3
DA:232,3
DA:233,3
DA:236,282
DA:237,282
DA:238,282
DA:239,282
DA:241,35
DA:242,35
DA:243,48
DA:244,35
DA:245,35
DA:246,35
DA:249,18
DA:251,18
DA:252,18
DA:253,18
DA:254,0
DA:256,6
DA:257,6
DA:260,3
DA:261,3
DA:262,6
DA:265,12
DA:266,12
DA:267,12
DA:268,12
DA:269,12
DA:270,6
DA:272,6
DA:274,12
DA:277,6
DA:278,6
DA:279,6
DA:280,6
DA:281,6
DA:282,2
DA:284,4
DA:286,6
DA:289,12
DA:290,12
DA:291,12
DA:292,12
DA:293,12
DA:294,10
DA:296,2
DA:299,12
DA:302,6
DA:303,6
DA:304,6
DA:305,6
DA:306,6
DA:307,4
DA:309,2
DA:312,6
DA:315,65
DA:316,65
DA:317,65
DA:318,65
DA:319,65
DA:321,65
DA:324,55
DA:325,55
DA:326,55
DA:327,55
DA:328,55
DA:330,55
DA:333,28
DA:334,28
DA:337,8
DA:339,3
DA:340,3
DA:341,15
DA:342,12
DA:343,12
DA:345,3
DA:347,24
DA:348,24
DA:349,24
DA:350,24
DA:352,1266
DA:354,1266
DA:357,53
DA:358,53
DA:359,10
DA:360,10
DA:361,4
DA:362,4
DA:363,4
DA:364,1
DA:366,3
DA:369,6
DA:371,10
DA:374,297
DA:375,297
DA:376,280
DA:377,297
DA:378,297
DA:380,12
DA:382,523
DA:389,138
DA:391,155
DA:393,114
DA:394,114
DA:397,505
DA:398,505
DA:408,1266
DA:411,1266
DA:412,1266
DA:413,1266
DA:414,1266
DA:415,281
DA:416,281
DA:417,281
DA:419,985
DA:420,985
DA:421,933
DA:422,707
DA:423,707
DA:424,707
DA:426,226
DA:427,226
DA:428,226
DA:430,933
DA:431,933
DA:433,52
DA:434,28
DA:436,24
DA:440,1266
DA:441,2532
DA:442,2532
DA:445,49
DA:446,49
DA:447,49
DA:448,49
DA:449,49
DA:450,26
DA:451,11
DA:453,15
DA:455,23
DA:456,7
DA:457,5
DA:458,5
DA:460,2
DA:461,2
DA:463,16
DA:464,5
DA:465,3
DA:466,3
DA:468,2
DA:469,2
DA:472,11
DA:473,11
DA:474,11
DA:475,11
DA:477,38
DA:478,38
DA:479,38
DA:480,38
DA:483,2069
DA:485,2069
DA:486,2069
DA:487,1243
DA:488,733
DA:490,510
DA:492,826
DA:493,655
DA:494,237
DA:496,418
DA:499,2069
DA:502,223
DA:503,223
DA:504,223
DA:505,223
DA:506,223
DA:507,880
DA:508,711
DA:509,54
DA:510,54
DA:513,223
DA:514,223
DA:517,1115
DA:518,1115
DA:522,63
DA:524,63
DA:525,63
DA:526,63
DA:528,18
DA:530,18
DA:532,617
DA:533,1432
DA:534,617
DA:537,282
DA:539,282
DA:540,282
DA:541,282
DA:544,11
DA:546,11
DA:547,10
DA:549,1
DA:551,11
DA:552,7
DA:554,4
DA:556,11
DA:557,11
DA:558,11
DA:559,11
DA:561,11
DA:562,11
DA:563,11
DA:564,11
DA:565,11
DA:566,11
DA:568,1673
DA:569,1673
DA:570,1673
DA:571,823
DA:572,316
DA:573,1673
DA:574,914
DA:575,507
DA:576,1673
DA:577,1673
DA:579,126
DA:580,126
DA:581,126
DA:582,126
DA:583,93
DA:584,93
DA:586,126
DA:587,126
DA:588,126
DA:589,126
DA:590,126
DA:591,126
DA:592,126
DA:593,126
DA:594,22
DA:596,104
DA:599,126
DA:600,126
DA:601,126
DA:602,126
DA:603,126
DA:604,126
DA:606,507
DA:607,507
DA:608,507
DA:609,267
DA:610,267
DA:612,507
DA:613,507
DA:614,507
DA:615,83
DA:617,507
DA:618,507
DA:619,507
DA:620,507
DA:621,507
DA:622,507
DA:623,507
DA:624,53
DA:626,454
DA:629,507
DA:630,507
DA:631,507
DA:632,507
DA:634,316
DA:635,316
DA:636,316
DA:637,316
DA:638,316
DA:639,107
DA:640,107
DA:642,316
DA:644,1176
DA:645,1176
DA:646,1176
DA:647,1176
DA:648,1176
DA:649,1176
LF:383
LH:370
end_of_record
TN:
SF:/home/usup/Desktop/CPP2_s21_containers-0/src/s21_array.h
FN:21,_ZN3s215arrayINSt7__cxx1112basic_stringIcSt11char_traitsIcESaIcEEELm3EEC2Ev
FN:22,_ZN3s215arrayINSt7__cxx1112basic_stringIcSt11char_traitsIcESaIcEEELm3EEC2ERKS7_
FN:28,_ZN3s215arrayINSt7__cxx1112basic_stringIcSt11char_traitsIcESaIcEEELm3EED2Ev
FN:57,_ZN3s215arrayIiLm3EE4swapERS1_
FN:57,_ZN3s215arrayINSt7__cxx1112basic_stringIcSt11char_traitsIcESaIcEEELm3EE4swapERS7_
FN:64,_ZNK3s215arrayIiLm3EE4sizeEv
FN:74,_ZNK3s215arrayIiLm3EE5frontEv
FN:79,_ZN3s215arrayIiLm3EE5frontEv
FN:84,_ZN3s215arrayIiLm3EE2atEm
FN:90,_ZNK3s215arrayIiLm3EE2atEm
FN:97,_ZN3s215arrayINSt7__cxx1112basic_stringIcSt11char_traitsIcESaIcEEELm3EE4fillERKS6_
FN:104,_ZNK3s215arrayIiLm0EE5emptyEv
FN:104,_ZNK3s215arrayIiLm15EE5emptyEv
FN:109,_ZNK3s215arrayIiLm3EE4dataEv
FN:114,_ZN3s215arrayIiLm3EE4dataEv
FN:119,_ZN3s215arrayIiLm3EE4backEv
FN:124,_ZNK3s215arrayIiLm3EE4backEv
FN:129,_ZN3s215arrayINSt7__cxx1112basic_stringIcSt11char_traitsIcESaIcEEELm3EE8CopyListESt16initializer_listIS6_E
FN:129,_ZN3s215arrayIiLm15EE8CopyListESt16initializer_listIiE
FN:129,_ZN3s215arrayIiLm3EE8CopyListESt16initializer_listIiE
FN:135,_ZN3s215arrayIiLm3EEC2EOS1_
FN:135,_ZN3s215arrayINSt7__cxx1112basic_stringIcSt11char_traitsIcESaIcEEELm3EEC2EOS7_
FN:140,_ZN3s215arrayINSt7__cxx1112basic_stringIcSt11char_traitsIcESaIcEEELm3EEC2ESt16initializer_listIS6_E
FN:140,_ZN3s215arrayIiLm15EEC2ESt16initializer_listIiE
FN:140,_ZN3s215arrayIiLm3EEC2ESt16initializer_listIiE
FN:145,_ZN3s215arrayINSt7__cxx1112basic_stringIcSt11char_traitsIcESaIcEEELm3EEaSERKS7_
FN:151,_ZN3s215arrayIiLm3EEaSEOS1_
FN:151,_ZN3s215arrayINSt7__cxx1112basic_stringIcSt11char_traitsIcESaIcEEELm3EEaSEOS7_
FN:157,_ZN3s215arrayIiLm3EEixEm
FN:157,_ZN3s215arrayINSt7__cxx1112basic_stringIcSt11char_traitsIcESaIcEEELm3EEixEm
FN:162,_ZNK3s215arrayINSt7__cxx1112basic_stringIcSt11char_traitsIcESaIcEEELm3EEixEm
FN:168,_ZNK3s215arrayINSt7__cxx1112basic_stringIcSt11char_traitsIcESaIcEEELm3EE3endEv
FN:173,_ZNK3s215arrayINSt7__cxx1112basic_stringIcSt11char_traitsIcESaIcEEELm3EE4cendEv
FN:178,_ZN3s215arrayINSt7__cxx1112basic_stringIcSt11char_traitsIcESaIcEEELm3EE3endEv
FN:183,_ZN3s215arrayIiLm3EE5beginEv
FN:183,_ZN3s215arrayINSt7__cxx1112basic_stringIcSt11char_traitsIcESaIcEEELm3EE5beginEv
FN:188,_ZNK3s215arrayINSt7__cxx1112basic_stringIcSt11char_traitsIcESaIcEEELm3EE5beginEv
FN:193,_ZNK3s215arrayIiLm3EE6cbeginEv
FNDA:15,_ZN3s215arrayIiLm3EEC2ESt16initializer_listIiE
FNDA:3,_ZN3s215arrayINSt7__cxx1112basic_stringIcSt11char_traitsIcESaIcEEELm3EEaSEOS7_
FNDA:15,_ZN3s215arrayIiLm3EE8CopyListESt16initializer_listIiE
FNDA:1,_ZN3s215arrayIiLm3EE5frontEv
FNDA:1,_ZN3s215arrayINSt7__cxx1112basic_stringIcSt11char_traitsIcESaIcEEELm3EE4swapERS7_
FNDA:1,_ZNK3s215arrayIiLm0EE5emptyEv
FNDA:1,_ZNK3s215arrayIiLm3EE4dataEv
FNDA:1,_ZNK3s215arrayIiLm15EE5emptyEv
FNDA:1,_ZNK3s215arrayINSt7__cxx1112basic_stringIcSt11char_traitsIcESaIcEEELm3EE4cendEv
FNDA:1,_ZNK3s215arrayIiLm3EE5frontEv
FNDA:1,_ZN3s215arrayIiLm3EE4dataEv
FNDA:1,_ZNK3s215arrayIiLm3EE4sizeEv
FNDA:1,_ZN3s215arrayIiLm15EEC2ESt16initializer_listIiE
FNDA:1,_ZN3s215arrayINSt7__cxx1112basic_stringIcSt11char_traitsIcESaIcEEELm3EEC2ERKS7_
FNDA:2,_ZN3s215arrayINSt7__cxx1112basic_stringIcSt11char_traitsIcESaIcEEELm3EEC2EOS7_
FNDA:1,_ZN3s215arrayINSt7__cxx1112basic_stringIcSt11char_traitsIcESaIcEEELm3EEaSERKS7_
FNDA:1,_ZNK3s215arrayIiLm3EE6cbeginEv
FNDA:18,_ZN3s215arrayINSt7__cxx1112basic_stringIcSt11char_traitsIcESaIcEEELm3EEixEm
FNDA:1,_ZNK3s215arrayINSt7__cxx1112basic_stringIcSt11char_traitsIcESaIcEEELm3EE5beginEv
FNDA:2,_ZNK3s215arrayIiLm3EE4backEv
FNDA:1,_ZN3s215arrayINSt7__cxx1112basic_stringIcSt11char_traitsIcESaIcEEELm3EE4fillERKS6_
FNDA:1,_ZNK3s215arrayIiLm3EE2atEm
FNDA:1,_ZN3s215arrayIiLm3EE4swapERS1_
FNDA:2,_ZN3s215arrayIiLm3EE4backEv
FNDA:6,_ZN3s215arrayIiLm3EEixEm
FNDA:1,_ZN3s215arrayINSt7__cxx1112basic_stringIcSt11char_traitsIcESaIcEEELm3EEC2Ev
FNDA:1,_ZN3s215arrayIiLm3EE5beginEv
FNDA:1,_ZN3s215arrayIiLm15EE8CopyListESt16initializer_listIiE
FNDA:16,_ZN3s215arrayINSt7__cxx1112basic_stringIcSt11char_traitsIcESaIcEEELm3EED2Ev
FNDA:2,_ZN3s215arrayINSt7__cxx1112basic_stringIcSt11char_traitsIcESaIcEEELm3EE5beginEv
FNDA:1,_ZNK3s215arrayINSt7__cxx1112basic_stringIcSt11char_traitsIcESaIcEEELm3EE3endEv
FNDA:1,_ZN3s215arrayIiLm3EEC2EOS1_
FNDA:1,_ZN3s215arrayINSt7__cxx1112basic_stringIcSt11char_traitsIcESaIcEEELm3EE3endEv
FNDA:12,_ZN3s215arrayINSt7__cxx1112basic_stringIcSt11char_traitsIcESaIcEEELm3EE8CopyListESt16initializer_listIS6_E
FNDA:12,_ZN3s215arrayINSt7__cxx1112basic_stringIcSt11char_traitsIcESaIcEEELm3EEC2ESt16initializer_listIS6_E
FNDA:2,_ZN3s215arrayIiLm3EE2atEm
FNDA:3,_ZNK3s215arrayINSt7__cxx1112basic_stringIcSt11char_traitsIcESaIcEEELm3EEixEm
FNDA:2,_ZN3s215arrayIiLm3EEaSEOS1_
FNF:38
FNH:38
DA:21,1
DA:22,1
DA:23,4
DA:24,1
DA:28,80
DA:57,2
DA:58,2
DA:59,2
DA:60,2
DA:61,2
DA:64,1
DA:65,1
DA:74,1
DA:75,1
DA:79,1
DA:80,1
DA:84,2
DA:85,2
DA:86,1
DA:90,1
DA:92,1
DA:93,1
DA:97,1
DA:98,1
DA:99,4
DA:100,1
DA:101,1
DA:104,2
DA:105,2
DA:109,1
DA:110,1
DA:114,1
DA:115,1
DA:119,2
DA:120,2
DA:124,2
DA:125,2
DA:129,28
DA:130,28
DA:131,115
DA:132,28
DA:135,3
DA:136,12
DA:137,3
DA:140,28
DA:141,28
DA:142,28
DA:145,1
DA:146,4
DA:147,1
DA:151,5
DA:152,20
DA:153,5
DA:157,24
DA:158,24
DA:162,3
DA:164,3
DA:168,1
DA:169,1
DA:173,1
DA:174,1
DA:178,1
DA:179,1
DA:183,3
DA:184,3
DA:188,1
DA:189,1
DA:193,1
DA:194,1
LF:69
LH:69
end_of_record
TN:
SF:/home/usup/Desktop/CPP2_s21_containers-0/src/s21_list.h
FN:17,_ZN3s2110StructListIiEC2Ei
FN:17,_ZN3s2110StructListINSt7__cxx1112basic_stringIcSt11char_traitsIcESaIcEEEEC2ES6_
FN:36,_ZN3s2112ListIteratorINSt7__cxx1112basic_stringIcSt11char_traitsIcESaIcEEEEC2EPNS_10StructListIS6_EE
FN:36,_ZN3s2112ListIteratorIiEC2EPNS_10StructListIiEE
FN:37,_ZNK3s2112ListIteratorIiEdeEv
FN:37,_ZNK3s2112ListIteratorINSt7__cxx1112basic_stringIcSt11char_traitsIcESaIcEEEEdeEv
FN:38,_ZN3s2112ListIteratorINSt7__cxx1112basic_stringIcSt11char_traitsIcESaIcEEEEppEv
FN:42,_ZN3s2112ListIteratorIiEppEi
FN:42,_ZN3s2112ListIteratorINSt7__cxx1112basic_stringIcSt11char_traitsIcESaIcEEEEppEi
FN:46,_ZN3s2112ListIteratorINSt7__cxx1112basic_stringIcSt11char_traitsIcESaIcEEEEmmEv
FN:50,_ZN3s2112ListIteratorINSt7__cxx1112basic_stringIcSt11char_traitsIcESaIcEEEEmmEi
FN:54,_ZN3s2112ListIteratorINSt7__cxx1112basic_stringIcSt11char_traitsIcESaIcEEEEeqERKS7_
FN:58,_ZNK3s2112ListIteratorINSt7__cxx1112basic_stringIcSt11char_traitsIcESaIcEEEEneERKS7_
FN:82,_ZN3s2117ListIteratorConstIiEC2EPKNS_10StructListIiEE
FN:82,_ZN3s2117ListIteratorConstINSt7__cxx1112basic_stringIcSt11char_traitsIcESaIcEEEEC2EPKNS_10StructListIS6_EE
FN:88,_ZNK3s2117ListIteratorConstIiEdeEv
FN:88,_ZNK3s2117ListIteratorConstINSt7__cxx1112basic_stringIcSt11char_traitsIcESaIcEEEEdeEv
FN:89,_ZN3s2117ListIteratorConstINSt7__cxx1112basic_stringIcSt11char_traitsIcESaIcEEEEppEv
FN:93,_ZN3s2117ListIteratorConstINSt7__cxx1112basic_stringIcSt11char_traitsIcESaIcEEEEppEi
FN:93,_ZN3s2117ListIteratorConstIiEppEi
FN:97,_ZN3s2117ListIteratorConstINSt7__cxx1112basic_stringIcSt11char_traitsIcESaIcEEEEmmEv
FN:101,_ZN3s2117ListIteratorConstINSt7__cxx1112basic_stringIcSt11char_traitsIcESaIcEEEEmmEi
FN:105,_ZNK3s2117ListIteratorConstINSt7__cxx1112basic_stringIcSt11char_traitsIcESaIcEEEEeqERKS7_
FN:111,_ZNK3s2117ListIteratorConstINSt7__cxx1112basic_stringIcSt11char_traitsIcESaIcEEEEneERKS7_
FN:146,_ZNK3s214listIiEltERS1_
FN:146,_ZNK3s214listINSt7__cxx1112basic_stringIcSt11char_traitsIcESaIcEEEEltERS7_
FN:147,_ZNK3s214listINSt7__cxx1112basic_stringIcSt11char_traitsIcESaIcEEEEgtERS7_
FN:147,_ZNK3s214listIiEgtERS1_
FN:148,_ZNK3s214listIiEeqERS1_
FN:148,_ZNK3s214listINSt7__cxx1112basic_stringIcSt11char_traitsIcESaIcEEEEeqERS7_
FN:149,_ZNK3s214listINSt7__cxx1112basic_stringIcSt11char_traitsIcESaIcEEEEneERS7_
FN:149,_ZNK3s214listIiEneERS1_
FN:150,_ZNK3s214listIiEleERS1_
FN:150,_ZNK3s214listINSt7__cxx1112basic_stringIcSt11char_traitsIcESaIcEEEEleERS7_
FN:153,_ZNK3s214listINSt7__cxx1112basic_stringIcSt11char_traitsIcESaIcEEEEgeERS7_
FN:153,_ZNK3s214listIiEgeERS1_
FN:214,_ZN3s214listINSt7__cxx1112basic_stringIcSt11char_traitsIcESaIcEEEE14ArgumentParserEPNS_10StructListIS6_EE
FN:225,_ZN3s214listINSt7__cxx1112basic_stringIcSt11char_traitsIcESaIcEEEE12emplace_backIJRA2_KcSB_SB_EEEvDpOT_
FN:225,_ZN3s214listINSt7__cxx1112basic_stringIcSt11char_traitsIcESaIcEEEE12emplace_backIJRA5_KcEEEvDpOT_
FN:231,_ZN3s214listINSt7__cxx1112basic_stringIcSt11char_traitsIcESaIcEEEE13emplace_frontIJRA2_KcSB_SB_EEEvDpOT_
FN:231,_ZN3s214listINSt7__cxx1112basic_stringIcSt11char_traitsIcESaIcEEEE13emplace_frontIJRA5_KcEEEvDpOT_
FN:236,_ZN3s214listIiEC2Ev
FN:236,_ZN3s214listINSt7__cxx1112basic_stringIcSt11char_traitsIcESaIcEEEEC2Ev
FN:242,_ZN3s214listINSt7__cxx1112basic_stringIcSt11char_traitsIcESaIcEEEEC2INS_12ListIteratorIS6_EEEET_SB_
FN:248,_ZN3s214listINSt7__cxx1112basic_stringIcSt11char_traitsIcESaIcEEEEaSIS7_EERS7_RKT_
FN:254,_ZN3s214listINSt7__cxx1112basic_stringIcSt11char_traitsIcESaIcEEEEaSERS7_
FN:260,_ZN3s214listIiEaSEOS1_
FN:267,_ZN3s214listINSt7__cxx1112basic_stringIcSt11char_traitsIcESaIcEEEE8CopyListINS_17ListIteratorConstIS6_EEEEvT_SB_
FN:267,_ZN3s214listINSt7__cxx1112basic_stringIcSt11char_traitsIcESaIcEEEE8CopyListINS_12ListIteratorIS6_EEEEvT_SB_
FN:275,_ZN3s214listINSt7__cxx1112basic_stringIcSt11char_traitsIcESaIcEEEE5mergeERS7_
FN:298,_ZN3s214listINSt7__cxx1112basic_stringIcSt11char_traitsIcESaIcEEEE4sortEv
FN:315,_ZN3s214listINSt7__cxx1112basic_stringIcSt11char_traitsIcESaIcEEEE7reverseEv
FN:326,_ZN3s214listINSt7__cxx1112basic_stringIcSt11char_traitsIcESaIcEEEE6spliceENS_17ListIteratorConstIS6_EERS7_S9_
FN:341,_ZN3s214listINSt7__cxx1112basic_stringIcSt11char_traitsIcESaIcEEEE7AddListEPNS_10StructListIS6_EESA_SA_
FN:352,_ZN3s214listINSt7__cxx1112basic_stringIcSt11char_traitsIcESaIcEEEE6spliceENS_17ListIteratorConstIS6_EERS7_
FN:362,_ZN3s214listINSt7__cxx1112basic_stringIcSt11char_traitsIcESaIcEEEE6uniqueEv
FN:378,_ZN3s214listINSt7__cxx1112basic_stringIcSt11char_traitsIcESaIcEEEE14ArgumentParserIJPKcSA_SA_EEEvPNS_10StructListIS6_EEOS6_DpT_
FN:378,_ZN3s214listINSt7__cxx1112basic_stringIcSt11char_traitsIcESaIcEEEE14ArgumentParserIJPKcSA_EEEvPNS_10StructListIS6_EEOS6_DpT_
FN:378,_ZN3s214listINSt7__cxx1112basic_stringIcSt11char_traitsIcESaIcEEEE14ArgumentParserIJPKcEEEvPNS_10StructListIS6_EEOS6_DpT_
FN:378,_ZN3s214listINSt7__cxx1112basic_stringIcSt11char_traitsIcESaIcEEEE14ArgumentParserIJEEEvPNS_10StructListIS6_EEOS6_DpT_
FN:378,_ZN3s214listINSt7__cxx1112basic_stringIcSt11char_traitsIcESaIcEEEE14ArgumentParserIJPKcSA_SA_SA_EEEvPNS_10StructListIS6_EEOS6_DpT_
FN:378,_ZN3s214listINSt7__cxx1112basic_stringIcSt11char_traitsIcESaIcEEEE14ArgumentParserIJPKcSA_SA_SA_SA_EEEvPNS_10StructListIS6_EEOS6_DpT_
FN:378,_ZN3s214listINSt7__cxx1112basic_stringIcSt11char_traitsIcESaIcEEEE14ArgumentParserIJPKcSA_SA_SA_SA_SA_EEEvPNS_10StructListIS6_EEOS6_DpT_
FN:387,_ZN3s214listINSt7__cxx1112basic_stringIcSt11char_traitsIcESaIcEEEE7emplaceIJRA2_KcSB_SB_EEENS_12ListIteratorIS6_EESD_DpOT_
FN:387,_ZN3s214listINSt7__cxx1112basic_stringIcSt11char_traitsIcESaIcEEEE7emplaceIJRA2_KcSB_SB_RA3_S9_SD_SD_RA4_S9_EEENS_12ListIteratorIS6_EESH_DpOT_
FN:387,_ZN3s214listINSt7__cxx1112basic_stringIcSt11char_traitsIcESaIcEEEE7emplaceIJRA2_KcRA3_S9_SD_EEENS_12ListIteratorIS6_EESF_DpOT_
FN:387,_ZN3s214listINSt7__cxx1112basic_stringIcSt11char_traitsIcESaIcEEEE7emplaceIJRA5_KcEEENS_12ListIteratorIS6_EESD_DpOT_
FN:399,_ZN3s214listINSt7__cxx1112basic_stringIcSt11char_traitsIcESaIcEEEE5clearEv
FN:399,_ZN3s214listIiE5clearEv
FN:404,_ZN3s214listINSt7__cxx1112basic_stringIcSt11char_traitsIcESaIcEEEE6resizeEmS6_
FN:417,_ZN3s214listIiE6removeERKi
FN:427,_ZN3s214listIiE14FreeMemoryListEPNS_10StructListIiEES4_
FN:427,_ZN3s214listINSt7__cxx1112basic_stringIcSt11char_traitsIcESaIcEEEE14FreeMemoryListEPNS_10StructListIS6_EESA_
FN:441,_ZN3s214listIiE10DeliteListEPNS_10StructListIiEES4_
FN:441,_ZN3s214listINSt7__cxx1112basic_stringIcSt11char_traitsIcESaIcEEEE10DeliteListEPNS_10StructListIS6_EESA_
FN:450,_ZN3s214listINSt7__cxx1112basic_stringIcSt11char_traitsIcESaIcEEEE5eraseENS_12ListIteratorIS6_EES9_
FN:457,_ZN3s214listIiE5eraseENS_12ListIteratorIiEE
FN:457,_ZN3s214listINSt7__cxx1112basic_stringIcSt11char_traitsIcESaIcEEEE5eraseENS_12ListIteratorIS6_EE
FN:465,_ZN3s214listINSt7__cxx1112basic_stringIcSt11char_traitsIcESaIcEEEE6insertINS_12ListIteratorIS6_EEEEvSA_T_SB_
FN:473,_ZN3s214listINSt7__cxx1112basic_stringIcSt11char_traitsIcESaIcEEEE6insertENS_12ListIteratorIS6_EESt16initializer_listIS6_E
FN:484,_ZN3s214listINSt7__cxx1112basic_stringIcSt11char_traitsIcESaIcEEEE6insertENS_12ListIteratorIS6_EEmRKS6_
FN:492,_ZN3s214listINSt7__cxx1112basic_stringIcSt11char_traitsIcESaIcEEEE6insertENS_12ListIteratorIS6_EERKS6_
FN:500,_ZN3s214listIiE10push_frontERKi
FN:506,_ZN3s214listINSt7__cxx1112basic_stringIcSt11char_traitsIcESaIcEEEE8AddValueEPNS_10StructListIS6_EESA_
FN:506,_ZN3s214listIiE8AddValueEPNS_10StructListIiEES4_
FN:516,_ZNK3s214listINSt7__cxx1112basic_stringIcSt11char_traitsIcESaIcEEEE8BindListEPNS_10StructListIS6_EESA_
FN:516,_ZNK3s214listIiE8BindListEPNS_10StructListIiEES4_
FN:523,_ZN3s214listIiE11DeliteValueEPNS_10StructListIiEE
FN:523,_ZN3s214listINSt7__cxx1112basic_stringIcSt11char_traitsIcESaIcEEEE11DeliteValueEPNS_10StructListIS6_EE
FN:532,_ZN3s214listINSt7__cxx1112basic_stringIcSt11char_traitsIcESaIcEEEE8pop_backEv
FN:537,_ZN3s214listINSt7__cxx1112basic_stringIcSt11char_traitsIcESaIcEEEE9pop_frontEv
FN:542,_ZN3s214listINSt7__cxx1112basic_stringIcSt11char_traitsIcESaIcEEEE9push_backERKS6_
FN:548,_ZNK3s214listIiE4backEv
FN:553,_ZN3s214listINSt7__cxx1112basic_stringIcSt11char_traitsIcESaIcEEEE4backEv
FN:553,_ZN3s214listIiE4backEv
FN:558,_ZNK3s214listIiE5frontEv
FN:563,_ZN3s214listIiE5frontEv
FN:563,_ZN3s214listINSt7__cxx1112basic_stringIcSt11char_traitsIcESaIcEEEE5frontEv
FN:568,_ZN3s214listIiE4swapERS1_
FN:568,_ZN3s214listINSt7__cxx1112basic_stringIcSt11char_traitsIcESaIcEEEE4swapERS7_
FN:574,_ZN3s214listINSt7__cxx1112basic_stringIcSt11char_traitsIcESaIcEEEE6assignESt16initializer_listIS6_E
FN:581,_ZN3s214listINSt7__cxx1112basic_stringIcSt11char_traitsIcESaIcEEEE6assignINS_12ListIteratorIS6_EEEEvT_SB_
FN:587,_ZN3s214listINSt7__cxx1112basic_stringIcSt11char_traitsIcESaIcEEEE6assignEmS6_
FN:593,_ZNK3s214listIiE5emptyEv
FN:593,_ZNK3s214listINSt7__cxx1112basic_stringIcSt11char_traitsIcESaIcEEEE5emptyEv
FN:598,_ZNK3s214listIiE14ComparisonListERKS1_
FN:598,_ZNK3s214listINSt7__cxx1112basic_stringIcSt11char_traitsIcESaIcEEEE14ComparisonListERKS7_
FN:614,_ZN3s214listINSt7__cxx1112basic_stringIcSt11char_traitsIcESaIcEEEE3endEv
FN:619,_ZNK3s214listINSt7__cxx1112basic_stringIcSt11char_traitsIcESaIcEEEE3endEv
FN:624,_ZNK3s214listINSt7__cxx1112basic_stringIcSt11char_traitsIcESaIcEEEE4cendEv
FN:629,_ZN3s214listIiE5beginEv
FN:629,_ZN3s214listINSt7__cxx1112basic_stringIcSt11char_traitsIcESaIcEEEE5beginEv
FN:634,_ZNK3s214listINSt7__cxx1112basic_stringIcSt11char_traitsIcESaIcEEEE5beginEv
FN:634,_ZNK3s214listIiE5beginEv
FN:639,_ZNK3s214listINSt7__cxx1112basic_stringIcSt11char_traitsIcESaIcEEEE6cbeginEv
FN:639,_ZNK3s214listIiE6cbeginEv
FN:644,_ZN3s214listINSt7__cxx1112basic_stringIcSt11char_traitsIcESaIcEEEEC2ERKS7_
FN:649,_ZN3s214listIiEC2EOS1_
FN:654,_ZN3s214listIiEC2ESt16initializer_listIiE
FN:654,_ZN3s214listINSt7__cxx1112basic_stringIcSt11char_traitsIcESaIcEEEEC2ESt16initializer_listIS6_E
FN:667,_ZN3s214listINSt7__cxx1112basic_stringIcSt11char_traitsIcESaIcEEEEC2Em
FN:678,_ZN3s214listINSt7__cxx1112basic_stringIcSt11char_traitsIcESaIcEEEEC2EmS6_
FN:689,_ZN3s214listINSt7__cxx1112basic_stringIcSt11char_traitsIcESaIcEEEE12CreateAnchorEv
FN:689,_ZN3s214listIiE12CreateAnchorEv
FN:696,_ZN3s214listIiED2Ev
FN:696,_ZN3s214listINSt7__cxx1112basic_stringIcSt11char_traitsIcESaIcEEEED2Ev
FN:701,_ZN3s214listIiE8AddToEndEPNS_10StructListIiEE
FN:701,_ZN3s214listINSt7__cxx1112basic_stringIcSt11char_traitsIcESaIcEEEE8AddToEndEPNS_10StructListIS6_EE
FN:711,_ZNK3s214listIiE4sizeEv
FN:711,_ZNK3s214listINSt7__cxx1112basic_stringIcSt11char_traitsIcESaIcEEEE4sizeEv
FNDA:1,_ZN3s214listINSt7__cxx1112basic_stringIcSt11char_traitsIcESaIcEEEE6insertENS_12ListIteratorIS6_EESt16initializer_listIS6_E
FNDA:21,_ZN3s214listIiEC2ESt16initializer_listIiE
FNDA:1,_ZN3s214listIiEaSEOS1_
FNDA:9,_ZN3s2112ListIteratorIiEppEi
FNDA:2,_ZN3s214listINSt7__cxx1112basic_stringIcSt11char_traitsIcESaIcEEEE6assignEmS6_
FNDA:1,_ZN3s214listINSt7__cxx1112basic_stringIcSt11char_traitsIcESaIcEEEE12emplace_backIJRA2_KcSB_SB_EEEvDpOT_
FNDA:98,_ZN3s2112ListIteratorINSt7__cxx1112basic_stringIcSt11char_traitsIcESaIcEEEEppEi
FNDA:2,_ZN3s214listIiE5frontEv
FNDA:1,_ZN3s214listINSt7__cxx1112basic_stringIcSt11char_traitsIcESaIcEEEE14ArgumentParserIJPKcSA_SA_EEEvPNS_10StructListIS6_EEOS6_DpT_
FNDA:2,_ZNK3s214listIiEltERS1_
FNDA:121,_ZNK3s2117ListIteratorConstIiEdeEv
FNDA:3,_ZN3s214listIiE10push_frontERKi
FNDA:226,_ZNK3s214listINSt7__cxx1112basic_stringIcSt11char_traitsIcESaIcEEEE4sizeEv
FNDA:18,_ZNK3s2117ListIteratorConstINSt7__cxx1112basic_stringIcSt11char_traitsIcESaIcEEEEneERKS7_
FNDA:2,_ZN3s214listINSt7__cxx1112basic_stringIcSt11char_traitsIcESaIcEEEEaSIS7_EERS7_RKT_
FNDA:2,_ZN3s214listINSt7__cxx1112basic_stringIcSt11char_traitsIcESaIcEEEE6assignESt16initializer_listIS6_E
FNDA:1,_ZN3s214listINSt7__cxx1112basic_stringIcSt11char_traitsIcESaIcEEEE6assignINS_12ListIteratorIS6_EEEEvT_SB_
FNDA:2,_ZN3s214listINSt7__cxx1112basic_stringIcSt11char_traitsIcESaIcEEEE6insertENS_12ListIteratorIS6_EERKS6_
FNDA:209,_ZN3s2112ListIteratorINSt7__cxx1112basic_stringIcSt11char_traitsIcESaIcEEEEC2EPNS_10StructListIS6_EE
FNDA:1,_ZN3s214listINSt7__cxx1112basic_stringIcSt11char_traitsIcESaIcEEEE7reverseEv
FNDA:33,_ZN3s214listINSt7__cxx1112basic_stringIcSt11char_traitsIcESaIcEEEE8AddValueEPNS_10StructListIS6_EESA_
FNDA:29,_ZNK3s214listINSt7__cxx1112basic_stringIcSt11char_traitsIcESaIcEEEE8BindListEPNS_10StructListIS6_EESA_
FNDA:76,_ZN3s214listIiE8AddToEndEPNS_10StructListIiEE
FNDA:120,_ZN3s2117ListIteratorConstIiEppEi
FNDA:1,_ZN3s214listINSt7__cxx1112basic_stringIcSt11char_traitsIcESaIcEEEE6spliceENS_17ListIteratorConstIS6_EERS7_S9_
FNDA:32,_ZNK3s214listIiE4sizeEv
FNDA:15,_ZN3s214listINSt7__cxx1112basic_stringIcSt11char_traitsIcESaIcEEEE4backEv
FNDA:13,_ZNK3s214listINSt7__cxx1112basic_stringIcSt11char_traitsIcESaIcEEEEgeERS7_
FNDA:12,_ZNK3s2112ListIteratorIiEdeEv
FNDA:1,_ZN3s214listINSt7__cxx1112basic_stringIcSt11char_traitsIcESaIcEEEE5mergeERS7_
FNDA:1,_ZN3s214listINSt7__cxx1112basic_stringIcSt11char_traitsIcESaIcEEEE6spliceENS_17ListIteratorConstIS6_EERS7_
FNDA:22,_ZN3s214listIiE12CreateAnchorEv
FNDA:5,_ZN3s214listIiE11DeliteValueEPNS_10StructListIiEE
FNDA:1,_ZN3s214listIiEC2Ev
FNDA:23,_ZN3s214listIiE14FreeMemoryListEPNS_10StructListIiEES4_
FNDA:4,_ZNK3s214listINSt7__cxx1112basic_stringIcSt11char_traitsIcESaIcEEEE6cbeginEv
FNDA:10,_ZN3s214listINSt7__cxx1112basic_stringIcSt11char_traitsIcESaIcEEEEC2Em
FNDA:1,_ZN3s214listIiEC2EOS1_
FNDA:1,_ZN3s214listIiE10DeliteListEPNS_10StructListIiEES4_
FNDA:1,_ZNK3s2117ListIteratorConstINSt7__cxx1112basic_stringIcSt11char_traitsIcESaIcEEEEeqERKS7_
FNDA:3,_ZNK3s214listINSt7__cxx1112basic_stringIcSt11char_traitsIcESaIcEEEE3endEv
FNDA:2,_ZNK3s214listIiE5emptyEv
FNDA:2,_ZNK3s214listIiEgtERS1_
FNDA:94,_ZN3s214listINSt7__cxx1112basic_stringIcSt11char_traitsIcESaIcEEEE12CreateAnchorEv
FNDA:145,_ZN3s2117ListIteratorConstIiEC2EPKNS_10StructListIiEE
FNDA:431,_ZN3s2110StructListINSt7__cxx1112basic_stringIcSt11char_traitsIcESaIcEEEEC2ES6_
FNDA:2,_ZNK3s214listIiEeqERS1_
FNDA:10,_ZN3s2112ListIteratorINSt7__cxx1112basic_stringIcSt11char_traitsIcESaIcEEEEmmEv
FNDA:2,_ZN3s214listINSt7__cxx1112basic_stringIcSt11char_traitsIcESaIcEEEE6insertENS_12ListIteratorIS6_EEmRKS6_
FNDA:13,_ZNK3s214listINSt7__cxx1112basic_stringIcSt11char_traitsIcESaIcEEEEneERS7_
FNDA:99,_ZN3s214listINSt7__cxx1112basic_stringIcSt11char_traitsIcESaIcEEEED2Ev
FNDA:1,_ZN3s2112ListIteratorINSt7__cxx1112basic_stringIcSt11char_traitsIcESaIcEEEEmmEi
FNDA:1,_ZN3s214listINSt7__cxx1112basic_stringIcSt11char_traitsIcESaIcEEEEC2ERKS7_
FNDA:13,_ZNK3s214listINSt7__cxx1112basic_stringIcSt11char_traitsIcESaIcEEEEgtERS7_
FNDA:793,_ZN3s2117ListIteratorConstINSt7__cxx1112basic_stringIcSt11char_traitsIcESaIcEEEEppEi
FNDA:3,_ZN3s214listINSt7__cxx1112basic_stringIcSt11char_traitsIcESaIcEEEE5clearEv
FNDA:22,_ZN3s214listIiED2Ev
FNDA:12,_ZNK3s214listIiE14ComparisonListERKS1_
FNDA:3,_ZN3s214listIiE4swapERS1_
FNDA:101,_ZN3s2110StructListIiEC2Ei
FNDA:3,_ZN3s214listINSt7__cxx1112basic_stringIcSt11char_traitsIcESaIcEEEE8CopyListINS_17ListIteratorConstIS6_EEEEvT_SB_
FNDA:1,_ZN3s214listINSt7__cxx1112basic_stringIcSt11char_traitsIcESaIcEEEE13emplace_frontIJRA2_KcSB_SB_EEEvDpOT_
FNDA:3,_ZN3s214listINSt7__cxx1112basic_stringIcSt11char_traitsIcESaIcEEEE9pop_frontEv
FNDA:1,_ZN3s214listINSt7__cxx1112basic_stringIcSt11char_traitsIcESaIcEEEE5eraseENS_12ListIteratorIS6_EES9_
FNDA:54,_ZN3s214listINSt7__cxx1112basic_stringIcSt11char_traitsIcESaIcEEEE5beginEv
FNDA:2,_ZN3s214listINSt7__cxx1112basic_stringIcSt11char_traitsIcESaIcEEEE6insertINS_12ListIteratorIS6_EEEEvSA_T_SB_
FNDA:3,_ZN3s214listIiE8AddValueEPNS_10StructListIiEES4_
FNDA:5,_ZNK3s214listIiE8BindListEPNS_10StructListIiEES4_
FNDA:1,_ZN3s214listINSt7__cxx1112basic_stringIcSt11char_traitsIcESaIcEEEE14ArgumentParserIJPKcSA_SA_SA_SA_EEEvPNS_10StructListIS6_EEOS6_DpT_
FNDA:15,_ZN3s214listINSt7__cxx1112basic_stringIcSt11char_traitsIcESaIcEEEEC2Ev
FNDA:1,_ZN3s214listINSt7__cxx1112basic_stringIcSt11char_traitsIcESaIcEEEE14ArgumentParserIJPKcSA_SA_SA_SA_SA_EEEvPNS_10StructListIS6_EEOS6_DpT_
FNDA:16,_ZN3s214listINSt7__cxx1112basic_stringIcSt11char_traitsIcESaIcEEEE3endEv
FNDA:9,_ZN3s214listINSt7__cxx1112basic_stringIcSt11char_traitsIcESaIcEEEE14ArgumentParserEPNS_10StructListIS6_EE
FNDA:1,_ZN3s214listINSt7__cxx1112basic_stringIcSt11char_traitsIcESaIcEEEE6uniqueEv
FNDA:13,_ZNK3s214listINSt7__cxx1112basic_stringIcSt11char_traitsIcESaIcEEEEleERS7_
FNDA:3,_ZN3s2112ListIteratorINSt7__cxx1112basic_stringIcSt11char_traitsIcESaIcEEEEeqERKS7_
FNDA:1,_ZN3s2117ListIteratorConstINSt7__cxx1112basic_stringIcSt11char_traitsIcESaIcEEEEmmEi
FNDA:2,_ZN3s214listINSt7__cxx1112basic_stringIcSt11char_traitsIcESaIcEEEE6resizeEmS6_
FNDA:1,_ZN3s214listINSt7__cxx1112basic_stringIcSt11char_traitsIcESaIcEEEE14ArgumentParserIJPKcSA_SA_SA_EEEvPNS_10StructListIS6_EEOS6_DpT_
FNDA:1,_ZN3s214listIiE5clearEv
FNDA:8,_ZN3s2117ListIteratorConstINSt7__cxx1112basic_stringIcSt11char_traitsIcESaIcEEEEppEv
FNDA:2,_ZN3s214listINSt7__cxx1112basic_stringIcSt11char_traitsIcESaIcEEEE7emplaceIJRA5_KcEEENS_12ListIteratorIS6_EESD_DpOT_
FNDA:2,_ZN3s214listIiE4backEv
FNDA:7,_ZN3s214listINSt7__cxx1112basic_stringIcSt11char_traitsIcESaIcEEEEC2EmS6_
FNDA:1,_ZN3s214listIiE6removeERKi
FNDA:1,_ZN3s214listINSt7__cxx1112basic_stringIcSt11char_traitsIcESaIcEEEE7emplaceIJRA2_KcRA3_S9_SD_EEENS_12ListIteratorIS6_EESF_DpOT_
FNDA:2,_ZNK3s214listIiEleERS1_
FNDA:1,_ZN3s214listINSt7__cxx1112basic_stringIcSt11char_traitsIcESaIcEEEE7emplaceIJRA2_KcSB_SB_RA3_S9_SD_SD_RA4_S9_EEENS_12ListIteratorIS6_EESH_DpOT_
FNDA:1,_ZN3s214listINSt7__cxx1112basic_stringIcSt11char_traitsIcESaIcEEEE13emplace_frontIJRA5_KcEEEvDpOT_
FNDA:98,_ZN3s214listINSt7__cxx1112basic_stringIcSt11char_traitsIcESaIcEEEE14FreeMemoryListEPNS_10StructListIS6_EESA_
FNDA:15,_ZN3s214listINSt7__cxx1112basic_stringIcSt11char_traitsIcESaIcEEEE11DeliteValueEPNS_10StructListIS6_EE
FNDA:4,_ZN3s214listINSt7__cxx1112basic_stringIcSt11char_traitsIcESaIcEEEEC2INS_12ListIteratorIS6_EEEET_SB_
FNDA:4,_ZN3s214listINSt7__cxx1112basic_stringIcSt11char_traitsIcESaIcEEEE8pop_backEv
FNDA:2,_ZNK3s214listIiE4backEv
FNDA:3,_ZN3s214listINSt7__cxx1112basic_stringIcSt11char_traitsIcESaIcEEEE5frontEv
FNDA:1,_ZNK3s214listIiE6cbeginEv
FNDA:18,_ZN3s2112ListIteratorIiEC2EPNS_10StructListIiEE
FNDA:17,_ZNK3s214listINSt7__cxx1112basic_stringIcSt11char_traitsIcESaIcEEEEeqERS7_
FNDA:830,_ZNK3s2117ListIteratorConstINSt7__cxx1112basic_stringIcSt11char_traitsIcESaIcEEEEdeEv
FNDA:13,_ZNK3s214listINSt7__cxx1112basic_stringIcSt11char_traitsIcESaIcEEEEltERS7_
FNDA:978,_ZN3s2117ListIteratorConstINSt7__cxx1112basic_stringIcSt11char_traitsIcESaIcEEEEC2EPKNS_10StructListIS6_EE
FNDA:1,_ZN3s214listINSt7__cxx1112basic_stringIcSt11char_traitsIcESaIcEEEE12emplace_backIJRA5_KcEEEvDpOT_
FNDA:62,_ZN3s214listINSt7__cxx1112basic_stringIcSt11char_traitsIcESaIcEEEEC2ESt16initializer_listIS6_E
FNDA:9,_ZN3s214listINSt7__cxx1112basic_stringIcSt11char_traitsIcESaIcEEEE14ArgumentParserIJEEEvPNS_10StructListIS6_EEOS6_DpT_
FNDA:2,_ZNK3s214listIiEneERS1_
FNDA:16,_ZN3s214listINSt7__cxx1112basic_stringIcSt11char_traitsIcESaIcEEEE4swapERS7_
FNDA:2,_ZN3s214listINSt7__cxx1112basic_stringIcSt11char_traitsIcESaIcEEEEaSERS7_
FNDA:73,_ZN3s2112ListIteratorINSt7__cxx1112basic_stringIcSt11char_traitsIcESaIcEEEEppEv
FNDA:125,_ZNK3s2112ListIteratorINSt7__cxx1112basic_stringIcSt11char_traitsIcESaIcEEEEdeEv
FNDA:24,_ZNK3s214listIiE5beginEv
FNDA:9,_ZN3s214listINSt7__cxx1112basic_stringIcSt11char_traitsIcESaIcEEEE9push_backERKS6_
FNDA:2,_ZNK3s214listINSt7__cxx1112basic_stringIcSt11char_traitsIcESaIcEEEE4cendEv
FNDA:6,_ZN3s214listINSt7__cxx1112basic_stringIcSt11char_traitsIcESaIcEEEE8CopyListINS_12ListIteratorIS6_EEEEvT_SB_
FNDA:1,_ZN3s214listINSt7__cxx1112basic_stringIcSt11char_traitsIcESaIcEEEE4sortEv
FNDA:2,_ZNK3s214listIiEgeERS1_
FNDA:15,_ZN3s214listINSt7__cxx1112basic_stringIcSt11char_traitsIcESaIcEEEE7AddListEPNS_10StructListIS6_EESA_SA_
FNDA:5,_ZN3s214listINSt7__cxx1112basic_stringIcSt11char_traitsIcESaIcEEEE5eraseENS_12ListIteratorIS6_EE
FNDA:86,_ZNK3s214listINSt7__cxx1112basic_stringIcSt11char_traitsIcESaIcEEEE14ComparisonListERKS7_
FNDA:4,_ZN3s214listINSt7__cxx1112basic_stringIcSt11char_traitsIcESaIcEEEE10DeliteListEPNS_10StructListIS6_EESA_
FNDA:6,_ZNK3s214listINSt7__cxx1112basic_stringIcSt11char_traitsIcESaIcEEEE5emptyEv
FNDA:2,_ZNK3s214listIiE5frontEv
FNDA:3,_ZN3s214listIiE5eraseENS_12ListIteratorIiEE
FNDA:5,_ZN3s214listINSt7__cxx1112basic_stringIcSt11char_traitsIcESaIcEEEE7emplaceIJRA2_KcSB_SB_EEENS_12ListIteratorIS6_EESD_DpOT_
FNDA:175,_ZNK3s214listINSt7__cxx1112basic_stringIcSt11char_traitsIcESaIcEEEE5beginEv
FNDA:6,_ZN3s214listIiE5beginEv
FNDA:4,_ZN3s2117ListIteratorConstINSt7__cxx1112basic_stringIcSt11char_traitsIcESaIcEEEEmmEv
FNDA:120,_ZNK3s2112ListIteratorINSt7__cxx1112basic_stringIcSt11char_traitsIcESaIcEEEEneERKS7_
FNDA:308,_ZN3s214listINSt7__cxx1112basic_stringIcSt11char_traitsIcESaIcEEEE8AddToEndEPNS_10StructListIS6_EE
FNDA:7,_ZN3s214listINSt7__cxx1112basic_stringIcSt11char_traitsIcESaIcEEEE14ArgumentParserIJPKcSA_EEEvPNS_10StructListIS6_EEOS6_DpT_
FNDA:7,_ZN3s214listINSt7__cxx1112basic_stringIcSt11char_traitsIcESaIcEEEE14ArgumentParserIJPKcEEEvPNS_10StructListIS6_EEOS6_DpT_
FNF:130
FNH:130
DA:17,532
DA:36,227
DA:37,137
DA:38,73
DA:39,73
DA:40,73
DA:42,107
DA:43,107
DA:44,107
DA:46,10
DA:47,10
DA:48,10
DA:50,1
DA:51,1
DA:52,1
DA:54,3
DA:58,120
DA:59,120
DA:82,1123
DA:88,951
DA:89,8
DA:90,8
DA:91,8
DA:93,913
DA:94,913
DA:95,913
DA:97,4
DA:98,4
DA:99,4
DA:101,1
DA:102,1
DA:103,1
DA:105,1
DA:106,1
DA:111,18
DA:112,18
DA:146,15
DA:147,15
DA:148,19
DA:149,15
DA:150,15
DA:151,15
DA:153,15
DA:154,15
DA:214,9
DA:225,2
DA:226,2
DA:227,2
DA:231,2
DA:232,2
DA:233,2
DA:236,16
DA:237,16
DA:238,16
DA:242,4
DA:243,4
DA:244,4
DA:248,2
DA:249,2
DA:250,2
DA:254,2
DA:255,2
DA:256,2
DA:260,1
DA:261,1
DA:262,1
DA:267,9
DA:268,9
DA:269,9
DA:270,40
DA:271,9
DA:272,9
DA:275,1
DA:276,1
DA:278,5
DA:279,5
DA:280,5
DA:281,3
DA:282,3
DA:283,3
DA:285,2
DA:287,5
DA:288,1
DA:289,1
DA:292,1
DA:293,1
DA:294,1
DA:295,1
DA:298,1
DA:299,1
DA:300,1
DA:301,6
DA:302,20
DA:303,15
DA:304,8
DA:305,8
DA:306,8
DA:308,15
DA:310,5
DA:312,1
DA:315,1
DA:317,8
DA:318,7
DA:319,7
DA:320,7
DA:321,7
DA:323,1
DA:326,1
DA:328,1
DA:329,1
DA:330,1
DA:331,1
DA:332,1
DA:333,0
DA:335,1
DA:338,1
DA:341,15
DA:343,15
DA:344,15
DA:345,15
DA:346,15
DA:347,15
DA:348,15
DA:349,15
DA:352,1
DA:353,1
DA:354,1
DA:355,1
DA:356,1
DA:357,1
DA:358,1
DA:362,1
DA:363,1
DA:364,1
DA:365,6
DA:366,5
DA:367,5
DA:368,2
DA:370,3
DA:372,5
DA:374,1
DA:378,27
DA:380,27
DA:381,27
DA:382,27
DA:383,27
DA:387,9
DA:389,9
DA:390,9
DA:391,9
DA:392,9
DA:393,9
DA:394,9
DA:395,9
DA:396,9
DA:399,4
DA:400,4
DA:401,4
DA:404,2
DA:405,2
DA:406,2
DA:407,1
DA:408,1
DA:409,2
DA:410,2
DA:411,1
DA:414,2
DA:417,1
DA:418,1
DA:419,7
DA:420,6
DA:421,6
DA:422,6
DA:424,1
DA:427,121
DA:430,512
DA:431,391
DA:432,391
DA:433,391
DA:434,391
DA:436,121
DA:437,121
DA:438,121
DA:441,5
DA:442,5
DA:443,5
DA:444,5
DA:445,5
DA:446,5
DA:447,5
DA:450,1
DA:451,1
DA:452,1
DA:453,1
DA:457,8
DA:458,8
DA:459,8
DA:460,8
DA:465,2
DA:466,2
DA:467,2
DA:468,2
DA:469,2
DA:470,2
DA:473,1
DA:475,1
DA:476,1
DA:477,1
DA:478,1
DA:479,1
DA:480,1
DA:481,1
DA:484,2
DA:485,2
DA:486,1
DA:487,1
DA:488,1
DA:489,1
DA:492,2
DA:494,2
DA:495,2
DA:496,2
DA:500,3
DA:501,3
DA:502,3
DA:503,3
DA:506,36
DA:507,36
DA:508,36
DA:509,36
DA:510,36
DA:511,36
DA:512,36
DA:513,36
DA:516,34
DA:518,34
DA:519,34
DA:520,34
DA:523,20
DA:524,20
DA:525,20
DA:526,20
DA:527,20
DA:529,20
DA:532,4
DA:533,4
DA:534,4
DA:537,3
DA:538,3
DA:539,3
DA:542,9
DA:543,9
DA:544,9
DA:545,9
DA:548,2
DA:549,2
DA:553,17
DA:554,17
DA:558,2
DA:559,2
DA:563,5
DA:564,5
DA:568,19
DA:569,19
DA:570,19
DA:571,19
DA:574,2
DA:575,2
DA:576,2
DA:577,2
DA:581,1
DA:582,1
DA:583,1
DA:584,1
DA:587,2
DA:588,2
DA:589,2
DA:590,2
DA:593,8
DA:594,8
DA:598,98
DA:599,98
DA:600,98
DA:601,98
DA:602,98
DA:603,551
DA:604,461
DA:605,8
DA:606,8
DA:609,98
DA:610,98
DA:614,16
DA:615,16
DA:619,3
DA:620,3
DA:624,2
DA:625,2
DA:629,60
DA:630,60
DA:634,199
DA:635,199
DA:639,5
DA:640,5
DA:644,1
DA:645,1
DA:646,1
DA:649,1
DA:650,1
DA:651,1
DA:654,83
DA:655,83
DA:656,83
DA:658,400
DA:659,317
DA:660,0
DA:661,0
DA:662,0
DA:664,83
DA:667,10
DA:668,10
DA:670,44
DA:671,0
DA:672,0
DA:673,0
DA:675,10
DA:678,7
DA:679,7
DA:681,31
DA:682,0
DA:683,0
DA:684,0
DA:686,7
DA:689,116
DA:690,116
DA:691,116
DA:692,116
DA:693,116
DA:696,121
DA:697,121
DA:698,121
DA:701,384
DA:702,384
DA:703,384
DA:704,384
DA:705,384
DA:706,384
DA:707,384
DA:708,384
DA:711,258
DA:712,258
LF:350
LH:340
end_of_record
TN:
SF:/home/usup/Desktop/CPP2_s21_containers-0/src/s21_map.h
FN:14,_ZNK3s2110My_CompareISt4pairIKiNSt7__cxx1112basic_stringIcSt11char_traitsIcESaIcEEEESt4lessIiEEclERKS9_SE_
FN:14,_ZNK3s2110My_CompareISt4pairIKiiESt4lessIiEEclERKS3_S8_
FN:14,_ZNK3s2110My_CompareISt4pairIKiiESt7greaterIiEEclERKS3_S8_
FN:14,_ZNK3s2110My_CompareISt4pairIKiNSt7__cxx1112basic_stringIcSt11char_traitsIcESaIcEEEESt7greaterIiEEclERKS9_SE_
FN:36,_ZN3s213mapIiNSt7__cxx1112basic_stringIcSt11char_traitsIcESaIcEEESt4lessIiEEC2Ev
FN:37,_ZN3s213mapIiiSt4lessIiEEC2ESt16initializer_listISt4pairIKiiEE
FN:37,_ZN3s213mapIiiSt7greaterIiEEC2ESt16initializer_listISt4pairIKiiEE
FN:37,_ZN3s213mapIiNSt7__cxx1112basic_stringIcSt11char_traitsIcESaIcEEESt7greaterIiEEC2ESt16initializer_listISt4pairIKiS6_EE
FN:37,_ZN3s213mapIiNSt7__cxx1112basic_stringIcSt11char_traitsIcESaIcEEESt4lessIiEEC2ESt16initializer_listISt4pairIKiS6_EE
FN:40,_ZN3s213mapIiiSt7greaterIiEEC2INS_15IteratorGeneralISt4pairIKiiENS_10My_CompareIS8_S2_EEEEEET_SC_
FN:40,_ZN3s213mapIiNSt7__cxx1112basic_stringIcSt11char_traitsIcESaIcEEESt4lessIiEEC2INS_15IteratorGeneralISt4pairIKiS6_ENS_10My_CompareISE_S8_EEEEEET_SI_
FN:41,_ZN3s213mapIiiSt7greaterIiEEC2ERKS3_
FN:41,_ZN3s213mapIiNSt7__cxx1112basic_stringIcSt11char_traitsIcESaIcEEESt4lessIiEEC2ERKS9_
FN:42,_ZN3s213mapIiiSt4lessIiEEC2EOS3_
FN:43,_ZN3s213mapIiNSt7__cxx1112basic_stringIcSt11char_traitsIcESaIcEEESt7greaterIiEEaSERKS9_
FN:43,_ZN3s213mapIiNSt7__cxx1112basic_stringIcSt11char_traitsIcESaIcEEESt4lessIiEEaSERKS9_
FN:43,_ZN3s213mapIiiSt7greaterIiEEaSERKS3_
FN:47,_ZN3s213mapIiiSt4lessIiEEaSEOS3_
FN:51,_ZN3s213mapIiNSt7__cxx1112basic_stringIcSt11char_traitsIcESaIcEEESt7greaterIiEED2Ev
FN:51,_ZN3s213mapIiiSt7greaterIiEED2Ev
FN:51,_ZN3s213mapIiNSt7__cxx1112basic_stringIcSt11char_traitsIcESaIcEEESt4lessIiEED2Ev
FN:51,_ZN3s213mapIiiSt4lessIiEED2Ev
FN:52,_ZNK3s213mapIiNSt7__cxx1112basic_stringIcSt11char_traitsIcESaIcEEESt4lessIiEEltERS9_
FN:52,_ZNK3s213mapIiiSt7greaterIiEEltERS3_
FN:52,_ZNK3s213mapIiNSt7__cxx1112basic_stringIcSt11char_traitsIcESaIcEEESt7greaterIiEEltERS9_
FN:53,_ZNK3s213mapIiNSt7__cxx1112basic_stringIcSt11char_traitsIcESaIcEEESt4lessIiEEgtERS9_
FN:53,_ZNK3s213mapIiNSt7__cxx1112basic_stringIcSt11char_traitsIcESaIcEEESt7greaterIiEEgtERS9_
FN:53,_ZNK3s213mapIiiSt7greaterIiEEgtERS3_
FN:54,_ZNK3s213mapIiNSt7__cxx1112basic_stringIcSt11char_traitsIcESaIcEEESt7greaterIiEEeqERS9_
FN:54,_ZNK3s213mapIiiSt7greaterIiEEeqERS3_
FN:54,_ZNK3s213mapIiNSt7__cxx1112basic_stringIcSt11char_traitsIcESaIcEEESt4lessIiEEeqERS9_
FN:55,_ZNK3s213mapIiNSt7__cxx1112basic_stringIcSt11char_traitsIcESaIcEEESt7greaterIiEEneERS9_
FN:55,_ZNK3s213mapIiiSt7greaterIiEEneERS3_
FN:55,_ZNK3s213mapIiNSt7__cxx1112basic_stringIcSt11char_traitsIcESaIcEEESt4lessIiEEneERS9_
FN:56,_ZNK3s213mapIiiSt7greaterIiEEleERS3_
FN:56,_ZNK3s213mapIiNSt7__cxx1112basic_stringIcSt11char_traitsIcESaIcEEESt4lessIiEEleERS9_
FN:56,_ZNK3s213mapIiNSt7__cxx1112basic_stringIcSt11char_traitsIcESaIcEEESt7greaterIiEEleERS9_
FN:57,_ZNK3s213mapIiNSt7__cxx1112basic_stringIcSt11char_traitsIcESaIcEEESt7greaterIiEEgeERS9_
FN:57,_ZNK3s213mapIiiSt7greaterIiEEgeERS3_
FN:57,_ZNK3s213mapIiNSt7__cxx1112basic_stringIcSt11char_traitsIcESaIcEEESt4lessIiEEgeERS9_
FN:59,_ZN3s213mapIiNSt7__cxx1112basic_stringIcSt11char_traitsIcESaIcEEESt4lessIiEE7emplaceIJSt4pairIKiS6_ESD_SD_EEESt6vectorISB_INS_15IteratorGeneralISD_NS_10My_CompareISD_S8_EEEEbESaISJ_EEDpOT_
FN:59,_ZN3s213mapIiiSt7greaterIiEE7emplaceIJSt4pairIKiiES7_S7_S7_EEESt6vectorIS5_INS_15IteratorGeneralIS7_NS_10My_CompareIS7_S2_EEEEbESaISD_EEDpOT_
FN:62,_ZN3s213mapIiNSt7__cxx1112basic_stringIcSt11char_traitsIcESaIcEEESt4lessIiEEixERKi
FN:70,_ZN3s213mapIiNSt7__cxx1112basic_stringIcSt11char_traitsIcESaIcEEESt4lessIiEE2atERKi
FN:70,_ZN3s213mapIiiSt4lessIiEE2atERKi
FN:75,_ZNK3s213mapIiiSt4lessIiEE2atERKi
FN:80,_ZN3s213mapIiiSt7greaterIiEE6insertERKSt4pairIKiiE
FN:80,_ZN3s213mapIiNSt7__cxx1112basic_stringIcSt11char_traitsIcESaIcEEESt4lessIiEE6insertERKSt4pairIKiS6_E
FN:80,_ZN3s213mapIiiSt4lessIiEE6insertERKSt4pairIKiiE
FN:83,_ZN3s213mapIiiSt4lessIiEE6insertERKiS5_
FN:86,_ZN3s213mapIiiSt4lessIiEE16insert_or_assignERKiS5_
FN:95,_ZNK3s213mapIiiSt4lessIiEE8containsERKi
FN:98,_ZN3s213mapIiNSt7__cxx1112basic_stringIcSt11char_traitsIcESaIcEEESt4lessIiEE5beginEv
FN:98,_ZN3s213mapIiiSt7greaterIiEE5beginEv
FN:98,_ZN3s213mapIiiSt4lessIiEE5beginEv
FN:99,_ZNK3s213mapIiiSt4lessIiEE5beginEv
FN:100,_ZNK3s213mapIiiSt4lessIiEE6cbeginEv
FN:101,_ZN3s213mapIiiSt7greaterIiEE3endEv
FN:101,_ZN3s213mapIiNSt7__cxx1112basic_stringIcSt11char_traitsIcESaIcEEESt4lessIiEE3endEv
FN:101,_ZN3s213mapIiiSt4lessIiEE3endEv
FN:102,_ZNK3s213mapIiiSt4lessIiEE3endEv
FN:102,_ZNK3s213mapIiNSt7__cxx1112basic_stringIcSt11char_traitsIcESaIcEEESt4lessIiEE3endEv
FN:103,_ZNK3s213mapIiNSt7__cxx1112basic_stringIcSt11char_traitsIcESaIcEEESt4lessIiEE4cendEv
FN:104,_ZN3s213mapIiNSt7__cxx1112basic_stringIcSt11char_traitsIcESaIcEEESt4lessIiEE5eraseENS_15IteratorGeneralISt4pairIKiS6_ENS_10My_CompareISD_S8_EEEE
FN:104,_ZN3s213mapIiiSt7greaterIiEE5eraseENS_15IteratorGeneralISt4pairIKiiENS_10My_CompareIS7_S2_EEEE
FN:105,_ZNK3s213mapIiiSt4lessIiEE4sizeEv
FN:105,_ZNK3s213mapIiNSt7__cxx1112basic_stringIcSt11char_traitsIcESaIcEEESt4lessIiEE4sizeEv
FN:105,_ZNK3s213mapIiiSt7greaterIiEE4sizeEv
FN:107,_ZNK3s213mapIiiSt7greaterIiEE5emptyEv
FN:107,_ZNK3s213mapIiiSt4lessIiEE5emptyEv
FN:108,_ZNK3s213mapIiiSt7greaterIiEE5countERKi
FN:108,_ZNK3s213mapIiiSt4lessIiEE5countERKi
FN:111,_ZN3s213mapIiiSt7greaterIiEE4findERKi
FN:111,_ZN3s213mapIiNSt7__cxx1112basic_stringIcSt11char_traitsIcESaIcEEESt4lessIiEE4findERKi
FN:111,_ZN3s213mapIiiSt4lessIiEE4findERKi
FN:114,_ZNK3s213mapIiiSt4lessIiEE4findERKi
FN:117,_ZN3s213mapIiiSt4lessIiEE5clearEv
FN:117,_ZN3s213mapIiiSt7greaterIiEE5clearEv
FN:117,_ZN3s213mapIiNSt7__cxx1112basic_stringIcSt11char_traitsIcESaIcEEESt4lessIiEE5clearEv
FN:118,_ZN3s213mapIiiSt4lessIiEE4swapERS3_
FN:118,_ZN3s213mapIiiSt7greaterIiEE4swapERS3_
FN:119,_ZN3s213mapIiNSt7__cxx1112basic_stringIcSt11char_traitsIcESaIcEEESt4lessIiEE5mergeERS9_
FNDA:1,_ZN3s213mapIiiSt4lessIiEE4swapERS3_
FNDA:1,_ZNK3s213mapIiNSt7__cxx1112basic_stringIcSt11char_traitsIcESaIcEEESt7greaterIiEEgeERS9_
FNDA:5,_ZNK3s213mapIiiSt4lessIiEE4findERKi
FNDA:1,_ZNK3s213mapIiNSt7__cxx1112basic_stringIcSt11char_traitsIcESaIcEEESt7greaterIiEEeqERS9_
FNDA:1,_ZN3s213mapIiiSt4lessIiEEC2EOS3_
FNDA:2,_ZNK3s213mapIiiSt7greaterIiEE5emptyEv
FNDA:3,_ZNK3s213mapIiiSt4lessIiEE3endEv
FNDA:1,_ZN3s213mapIiNSt7__cxx1112basic_stringIcSt11char_traitsIcESaIcEEESt7greaterIiEEaSERKS9_
FNDA:5,_ZNK3s213mapIiiSt7greaterIiEEeqERS3_
FNDA:2,_ZN3s213mapIiiSt7greaterIiEE3endEv
FNDA:1,_ZNK3s213mapIiNSt7__cxx1112basic_stringIcSt11char_traitsIcESaIcEEESt4lessIiEE4cendEv
FNDA:1,_ZN3s213mapIiNSt7__cxx1112basic_stringIcSt11char_traitsIcESaIcEEESt4lessIiEE5mergeERS9_
FNDA:1,_ZN3s213mapIiiSt7greaterIiEE4swapERS3_
FNDA:10,_ZN3s213mapIiiSt7greaterIiEE4findERKi
FNDA:5,_ZNK3s213mapIiNSt7__cxx1112basic_stringIcSt11char_traitsIcESaIcEEESt4lessIiEEltERS9_
FNDA:2,_ZN3s213mapIiiSt4lessIiEE6insertERKiS5_
FNDA:3,_ZNK3s213mapIiiSt7greaterIiEE5countERKi
FNDA:21,_ZN3s213mapIiNSt7__cxx1112basic_stringIcSt11char_traitsIcESaIcEEESt4lessIiEE4findERKi
FNDA:1,_ZN3s213mapIiNSt7__cxx1112basic_stringIcSt11char_traitsIcESaIcEEESt4lessIiEE2atERKi
FNDA:5,_ZNK3s213mapIiiSt7greaterIiEEgeERS3_
FNDA:1142,_ZNK3s2110My_CompareISt4pairIKiNSt7__cxx1112basic_stringIcSt11char_traitsIcESaIcEEEESt4lessIiEEclERKS9_SE_
FNDA:3,_ZNK3s213mapIiiSt4lessIiEE2atERKi
FNDA:5,_ZNK3s213mapIiiSt7greaterIiEEleERS3_
FNDA:24,_ZN3s213mapIiNSt7__cxx1112basic_stringIcSt11char_traitsIcESaIcEEESt4lessIiEE5beginEv
FNDA:1,_ZNK3s213mapIiNSt7__cxx1112basic_stringIcSt11char_traitsIcESaIcEEESt7greaterIiEEneERS9_
FNDA:16,_ZN3s213mapIiNSt7__cxx1112basic_stringIcSt11char_traitsIcESaIcEEESt4lessIiEE5eraseENS_15IteratorGeneralISt4pairIKiS6_ENS_10My_CompareISD_S8_EEEE
FNDA:17,_ZN3s213mapIiiSt4lessIiEEC2ESt16initializer_listISt4pairIKiiEE
FNDA:5,_ZNK3s213mapIiiSt7greaterIiEEltERS3_
FNDA:1,_ZNK3s213mapIiiSt4lessIiEE6cbeginEv
FNDA:2,_ZN3s213mapIiNSt7__cxx1112basic_stringIcSt11char_traitsIcESaIcEEESt7greaterIiEED2Ev
FNDA:5,_ZNK3s213mapIiNSt7__cxx1112basic_stringIcSt11char_traitsIcESaIcEEESt4lessIiEEleERS9_
FNDA:5,_ZNK3s213mapIiNSt7__cxx1112basic_stringIcSt11char_traitsIcESaIcEEESt4lessIiEEgeERS9_
FNDA:7,_ZN3s213mapIiNSt7__cxx1112basic_stringIcSt11char_traitsIcESaIcEEESt4lessIiEE3endEv
FNDA:1,_ZNK3s213mapIiNSt7__cxx1112basic_stringIcSt11char_traitsIcESaIcEEESt4lessIiEE3endEv
FNDA:5,_ZNK3s213mapIiNSt7__cxx1112basic_stringIcSt11char_traitsIcESaIcEEESt4lessIiEEgtERS9_
FNDA:355,_ZNK3s2110My_CompareISt4pairIKiiESt4lessIiEEclERKS3_S8_
FNDA:10,_ZNK3s213mapIiNSt7__cxx1112basic_stringIcSt11char_traitsIcESaIcEEESt4lessIiEEeqERS9_
FNDA:4,_ZNK3s213mapIiiSt4lessIiEE4sizeEv
FNDA:35,_ZN3s213mapIiiSt7greaterIiEED2Ev
FNDA:2,_ZN3s213mapIiNSt7__cxx1112basic_stringIcSt11char_traitsIcESaIcEEESt4lessIiEEaSERKS9_
FNDA:9,_ZN3s213mapIiiSt7greaterIiEEC2ERKS3_
FNDA:1,_ZNK3s213mapIiNSt7__cxx1112basic_stringIcSt11char_traitsIcESaIcEEESt7greaterIiEEgtERS9_
FNDA:1,_ZN3s213mapIiiSt4lessIiEE5clearEv
FNDA:913,_ZNK3s2110My_CompareISt4pairIKiiESt7greaterIiEEclERKS3_S8_
FNDA:3,_ZN3s213mapIiiSt7greaterIiEE6insertERKSt4pairIKiiE
FNDA:32,_ZNK3s2110My_CompareISt4pairIKiNSt7__cxx1112basic_stringIcSt11char_traitsIcESaIcEEEESt7greaterIiEEclERKS9_SE_
FNDA:25,_ZN3s213mapIiiSt7greaterIiEEC2ESt16initializer_listISt4pairIKiiEE
FNDA:1,_ZN3s213mapIiNSt7__cxx1112basic_stringIcSt11char_traitsIcESaIcEEESt4lessIiEE6insertERKSt4pairIKiS6_E
FNDA:2,_ZN3s213mapIiiSt7greaterIiEE5clearEv
FNDA:8,_ZN3s213mapIiiSt7greaterIiEE5eraseENS_15IteratorGeneralISt4pairIKiiENS_10My_CompareIS7_S2_EEEE
FNDA:19,_ZN3s213mapIiiSt7greaterIiEE5beginEv
FNDA:4,_ZN3s213mapIiNSt7__cxx1112basic_stringIcSt11char_traitsIcESaIcEEESt4lessIiEEixERKi
FNDA:46,_ZN3s213mapIiNSt7__cxx1112basic_stringIcSt11char_traitsIcESaIcEEESt4lessIiEED2Ev
FNDA:3,_ZNK3s213mapIiiSt4lessIiEE5countERKi
FNDA:2,_ZN3s213mapIiiSt4lessIiEE6insertERKSt4pairIKiiE
FNDA:2,_ZN3s213mapIiiSt4lessIiEE16insert_or_assignERKiS5_
FNDA:17,_ZN3s213mapIiNSt7__cxx1112basic_stringIcSt11char_traitsIcESaIcEEESt4lessIiEEC2ERKS9_
FNDA:2,_ZN3s213mapIiNSt7__cxx1112basic_stringIcSt11char_traitsIcESaIcEEESt7greaterIiEEC2ESt16initializer_listISt4pairIKiS6_EE
FNDA:27,_ZN3s213mapIiNSt7__cxx1112basic_stringIcSt11char_traitsIcESaIcEEESt4lessIiEEC2ESt16initializer_listISt4pairIKiS6_EE
FNDA:1,_ZN3s213mapIiiSt4lessIiEEaSEOS3_
FNDA:1,_ZN3s213mapIiiSt7greaterIiEEC2INS_15IteratorGeneralISt4pairIKiiENS_10My_CompareIS8_S2_EEEEEET_SC_
FNDA:1,_ZNK3s213mapIiiSt4lessIiEE5beginEv
FNDA:2,_ZN3s213mapIiNSt7__cxx1112basic_stringIcSt11char_traitsIcESaIcEEESt4lessIiEE5clearEv
FNDA:18,_ZN3s213mapIiiSt4lessIiEED2Ev
FNDA:1,_ZNK3s213mapIiNSt7__cxx1112basic_stringIcSt11char_traitsIcESaIcEEESt7greaterIiEEltERS9_
FNDA:7,_ZN3s213mapIiiSt4lessIiEE3endEv
FNDA:5,_ZN3s213mapIiNSt7__cxx1112basic_stringIcSt11char_traitsIcESaIcEEESt4lessIiEE7emplaceIJSt4pairIKiS6_ESD_SD_EEESt6vectorISB_INS_15IteratorGeneralISD_NS_10My_CompareISD_S8_EEEEbESaISJ_EEDpOT_
FNDA:22,_ZNK3s213mapIiNSt7__cxx1112basic_stringIcSt11char_traitsIcESaIcEEESt4lessIiEE4sizeEv
FNDA:5,_ZNK3s213mapIiiSt7greaterIiEEneERS3_
FNDA:2,_ZNK3s213mapIiiSt4lessIiEE8containsERKi
FNDA:1,_ZNK3s213mapIiNSt7__cxx1112basic_stringIcSt11char_traitsIcESaIcEEESt7greaterIiEEleERS9_
FNDA:5,_ZNK3s213mapIiNSt7__cxx1112basic_stringIcSt11char_traitsIcESaIcEEESt4lessIiEEneERS9_
FNDA:1,_ZN3s213mapIiiSt7greaterIiEEaSERKS3_
FNDA:7,_ZN3s213mapIiiSt4lessIiEE5beginEv
FNDA:1,_ZN3s213mapIiiSt7greaterIiEE7emplaceIJSt4pairIKiiES7_S7_S7_EEESt6vectorIS5_INS_15IteratorGeneralIS7_NS_10My_CompareIS7_S2_EEEEbESaISD_EEDpOT_
FNDA:5,_ZN3s213mapIiiSt4lessIiEE2atERKi
FNDA:1,_ZN3s213mapIiNSt7__cxx1112basic_stringIcSt11char_traitsIcESaIcEEESt4lessIiEEC2Ev
FNDA:9,_ZN3s213mapIiiSt4lessIiEE4findERKi
FNDA:5,_ZNK3s213mapIiiSt7greaterIiEEgtERS3_
FNDA:2,_ZNK3s213mapIiiSt4lessIiEE5emptyEv
FNDA:15,_ZNK3s213mapIiiSt7greaterIiEE4sizeEv
FNDA:1,_ZN3s213mapIiNSt7__cxx1112basic_stringIcSt11char_traitsIcESaIcEEESt4lessIiEEC2INS_15IteratorGeneralISt4pairIKiS6_ENS_10My_CompareISE_S8_EEEEEET_SI_
FNF:82
FNH:82
DA:14,2442
DA:15,2442
DA:36,1
DA:37,71
DA:38,71
DA:40,2
DA:41,26
DA:42,1
DA:43,4
DA:44,4
DA:45,4
DA:47,1
DA:48,1
DA:49,1
DA:51,101
DA:52,11
DA:53,11
DA:54,16
DA:55,11
DA:56,11
DA:57,11
DA:59,6
DA:60,6
DA:62,4
DA:63,4
DA:64,4
DA:65,1
DA:67,3
DA:70,6
DA:71,6
DA:72,6
DA:73,5
DA:75,3
DA:76,3
DA:77,3
DA:78,3
DA:80,6
DA:81,6
DA:83,2
DA:84,2
DA:86,2
DA:87,2
DA:88,2
DA:89,1
DA:91,1
DA:92,1
DA:95,2
DA:96,2
DA:98,50
DA:99,1
DA:100,1
DA:101,16
DA:102,4
DA:103,1
DA:104,24
DA:105,41
DA:107,4
DA:108,6
DA:109,6
DA:111,40
DA:112,40
DA:114,5
DA:115,5
DA:117,5
DA:118,2
DA:119,1
LF:66
LH:66
end_of_record
TN:
SF:/home/usup/Desktop/CPP2_s21_containers-0/src/s21_multiset.h
FN:24,_ZN3s218multisetINSt7__cxx1112basic_stringIcSt11char_traitsIcESaIcEEESt4lessIS6_EEC2Ev
FN:25,_ZN3s218multisetIiSt7greaterIiEEC2ESt16initializer_listIiE
FN:25,_ZN3s218multisetIiSt4lessIiEEC2ESt16initializer_listIiE
FN:25,_ZN3s218multisetINSt7__cxx1112basic_stringIcSt11char_traitsIcESaIcEEESt4lessIS6_EEC2ESt16initializer_listIS6_E
FN:25,_ZN3s218multisetINSt7__cxx1112basic_stringIcSt11char_traitsIcESaIcEEESt7greaterIS6_EEC2ESt16initializer_listIS6_E
FN:28,_ZN3s218multisetINSt7__cxx1112basic_stringIcSt11char_traitsIcESaIcEEESt4lessIS6_EEC2INS_15IteratorGeneralIS6_S8_EEEET_SD_
FN:28,_ZN3s218multisetIiSt7greaterIiEEC2INS_15IteratorGeneralIiS2_EEEET_S7_
FN:29,_ZN3s218multisetINSt7__cxx1112basic_stringIcSt11char_traitsIcESaIcEEESt4lessIS6_EEC2ERKS9_
FN:29,_ZN3s218multisetIiSt7greaterIiEEC2ERKS3_
FN:30,_ZN3s218multisetIiSt4lessIiEEC2EOS3_
FN:31,_ZN3s218multisetINSt7__cxx1112basic_stringIcSt11char_traitsIcESaIcEEESt4lessIS6_EEaSERKS9_
FN:31,_ZN3s218multisetINSt7__cxx1112basic_stringIcSt11char_traitsIcESaIcEEESt7greaterIS6_EEaSERKS9_
FN:31,_ZN3s218multisetIiSt7greaterIiEEaSERKS3_
FN:35,_ZN3s218multisetIiSt4lessIiEEaSEOS3_
FN:39,_ZN3s218multisetIiSt4lessIiEED2Ev
FN:39,_ZN3s218multisetINSt7__cxx1112basic_stringIcSt11char_traitsIcESaIcEEESt7greaterIS6_EED2Ev
FN:39,_ZN3s218multisetIiSt7greaterIiEED2Ev
FN:39,_ZN3s218multisetINSt7__cxx1112basic_stringIcSt11char_traitsIcESaIcEEESt4lessIS6_EED2Ev
FN:40,_ZNK3s218multisetINSt7__cxx1112basic_stringIcSt11char_traitsIcESaIcEEESt4lessIS6_EEltERS9_
FN:40,_ZNK3s218multisetINSt7__cxx1112basic_stringIcSt11char_traitsIcESaIcEEESt7greaterIS6_EEltERS9_
FN:40,_ZNK3s218multisetIiSt7greaterIiEEltERS3_
FN:41,_ZNK3s218multisetINSt7__cxx1112basic_stringIcSt11char_traitsIcESaIcEEESt4lessIS6_EEgtERS9_
FN:41,_ZNK3s218multisetINSt7__cxx1112basic_stringIcSt11char_traitsIcESaIcEEESt7greaterIS6_EEgtERS9_
FN:41,_ZNK3s218multisetIiSt7greaterIiEEgtERS3_
FN:42,_ZNK3s218multisetINSt7__cxx1112basic_stringIcSt11char_traitsIcESaIcEEESt4lessIS6_EEeqERS9_
FN:42,_ZNK3s218multisetINSt7__cxx1112basic_stringIcSt11char_traitsIcESaIcEEESt7greaterIS6_EEeqERS9_
FN:42,_ZNK3s218multisetIiSt7greaterIiEEeqERS3_
FN:43,_ZNK3s218multisetINSt7__cxx1112basic_stringIcSt11char_traitsIcESaIcEEESt7greaterIS6_EEneERS9_
FN:43,_ZNK3s218multisetIiSt7greaterIiEEneERS3_
FN:43,_ZNK3s218multisetINSt7__cxx1112basic_stringIcSt11char_traitsIcESaIcEEESt4lessIS6_EEneERS9_
FN:44,_ZNK3s218multisetINSt7__cxx1112basic_stringIcSt11char_traitsIcESaIcEEESt4lessIS6_EEleERS9_
FN:44,_ZNK3s218multisetINSt7__cxx1112basic_stringIcSt11char_traitsIcESaIcEEESt7greaterIS6_EEleERS9_
FN:44,_ZNK3s218multisetIiSt7greaterIiEEleERS3_
FN:45,_ZNK3s218multisetIiSt7greaterIiEEgeERS3_
FN:45,_ZNK3s218multisetINSt7__cxx1112basic_stringIcSt11char_traitsIcESaIcEEESt7greaterIS6_EEgeERS9_
FN:45,_ZNK3s218multisetINSt7__cxx1112basic_stringIcSt11char_traitsIcESaIcEEESt4lessIS6_EEgeERS9_
FN:47,_ZN3s218multisetINSt7__cxx1112basic_stringIcSt11char_traitsIcESaIcEEESt4lessIS6_EE7emplaceIJRA2_KcSD_SD_RA3_SB_SF_SF_RA4_SB_EEESt6vectorISt4pairINS_15IteratorGeneralIS6_S8_EEbESaISM_EEDpOT_
FN:47,_ZN3s218multisetINSt7__cxx1112basic_stringIcSt11char_traitsIcESaIcEEESt4lessIS6_EE7emplaceIJRA2_KcSD_SD_EEESt6vectorISt4pairINS_15IteratorGeneralIS6_S8_EEbESaISI_EEDpOT_
FN:47,_ZN3s218multisetIiSt7greaterIiEE7emplaceIJiiiEEESt6vectorISt4pairINS_15IteratorGeneralIiS2_EEbESaIS9_EEDpOT_
FN:47,_ZN3s218multisetINSt7__cxx1112basic_stringIcSt11char_traitsIcESaIcEEESt4lessIS6_EE7emplaceIJRA2_KcRA3_SB_SF_EEESt6vectorISt4pairINS_15IteratorGeneralIS6_S8_EEbESaISK_EEDpOT_
FN:50,_ZN3s218multisetIiSt4lessIiEE6insertERKi
FN:50,_ZN3s218multisetIiSt7greaterIiEE6insertERKi
FN:53,_ZN3s218multisetIiSt4lessIiEE5beginEv
FN:53,_ZN3s218multisetINSt7__cxx1112basic_stringIcSt11char_traitsIcESaIcEEESt4lessIS6_EE5beginEv
FN:53,_ZN3s218multisetIiSt7greaterIiEE5beginEv
FN:54,_ZNK3s218multisetIiSt4lessIiEE5beginEv
FN:55,_ZNK3s218multisetIiSt4lessIiEE6cbeginEv
FN:56,_ZN3s218multisetIiSt7greaterIiEE3endEv
FN:56,_ZN3s218multisetINSt7__cxx1112basic_stringIcSt11char_traitsIcESaIcEEESt4lessIS6_EE3endEv
FN:57,_ZNK3s218multisetINSt7__cxx1112basic_stringIcSt11char_traitsIcESaIcEEESt4lessIS6_EE3endEv
FN:58,_ZNK3s218multisetINSt7__cxx1112basic_stringIcSt11char_traitsIcESaIcEEESt4lessIS6_EE4cendEv
FN:59,_ZN3s218multisetIiSt7greaterIiEE5eraseENS_15IteratorGeneralIiS2_EE
FN:59,_ZN3s218multisetINSt7__cxx1112basic_stringIcSt11char_traitsIcESaIcEEESt4lessIS6_EE5eraseENS_15IteratorGeneralIS6_S8_EE
FN:60,_ZNK3s218multisetIiSt7greaterIiEE4sizeEv
FN:60,_ZNK3s218multisetIiSt4lessIiEE4sizeEv
FN:60,_ZNK3s218multisetINSt7__cxx1112basic_stringIcSt11char_traitsIcESaIcEEESt4lessIS6_EE4sizeEv
FN:62,_ZNK3s218multisetIiSt7greaterIiEE5emptyEv
FN:62,_ZNK3s218multisetIiSt4lessIiEE5emptyEv
FN:63,_ZNK3s218multisetIiSt4lessIiEE5countERKi
FN:63,_ZNK3s218multisetIiSt7greaterIiEE5countERKi
FN:64,_ZN3s218multisetIiSt4lessIiEE4findERKi
FN:64,_ZN3s218multisetIiSt7greaterIiEE4findERKi
FN:64,_ZN3s218multisetINSt7__cxx1112basic_stringIcSt11char_traitsIcESaIcEEESt4lessIS6_EE4findERKS6_
FN:65,_ZNK3s218multisetIiSt4lessIiEE4findERKi
FN:66,_ZNK3s218multisetIiSt4lessIiEE8containsERKi
FN:67,_ZN3s218multisetIiSt4lessIiEE11lower_boundERKi
FN:67,_ZN3s218multisetIiSt7greaterIiEE11lower_boundERKi
FN:70,_ZNK3s218multisetIiSt4lessIiEE11lower_boundERKi
FN:73,_ZN3s218multisetIiSt4lessIiEE11upper_boundERKi
FN:73,_ZN3s218multisetIiSt7greaterIiEE11upper_boundERKi
FN:76,_ZNK3s218multisetIiSt4lessIiEE11upper_boundERKi
FN:79,_ZN3s218multisetINSt7__cxx1112basic_stringIcSt11char_traitsIcESaIcEEESt4lessIS6_EE5clearEv
FN:79,_ZN3s218multisetIiSt7greaterIiEE5clearEv
FN:79,_ZN3s218multisetIiSt4lessIiEE5clearEv
FN:80,_ZN3s218multisetIiSt7greaterIiEE4swapERS3_
FN:80,_ZN3s218multisetIiSt4lessIiEE4swapERS3_
FN:81,_ZN3s218multisetIiSt7greaterIiEE11equal_rangeERKi
FN:81,_ZN3s218multisetIiSt4lessIiEE11equal_rangeERKi
FN:84,_ZNK3s218multisetIiSt4lessIiEE11equal_rangeERKi
FN:88,_ZN3s218multisetINSt7__cxx1112basic_stringIcSt11char_traitsIcESaIcEEESt4lessIS6_EE5mergeERS9_
FNDA:22,_ZN3s218multisetIiSt4lessIiEED2Ev
FNDA:8,_ZN3s218multisetIiSt7greaterIiEE4findERKi
FNDA:3,_ZNK3s218multisetIiSt4lessIiEE11lower_boundERKi
FNDA:2,_ZNK3s218multisetIiSt4lessIiEE5emptyEv
FNDA:5,_ZNK3s218multisetIiSt4lessIiEE5countERKi
FNDA:3,_ZNK3s218multisetIiSt4lessIiEE11upper_boundERKi
FNDA:1,_ZN3s218multisetIiSt7greaterIiEEC2INS_15IteratorGeneralIiS2_EEEET_S7_
FNDA:6,_ZNK3s218multisetINSt7__cxx1112basic_stringIcSt11char_traitsIcESaIcEEESt4lessIS6_EEgtERS9_
FNDA:5,_ZNK3s218multisetIiSt7greaterIiEEneERS3_
FNDA:2,_ZN3s218multisetIiSt7greaterIiEE3endEv
FNDA:1,_ZNK3s218multisetINSt7__cxx1112basic_stringIcSt11char_traitsIcESaIcEEESt7greaterIS6_EEgeERS9_
FNDA:1,_ZNK3s218multisetIiSt4lessIiEE5beginEv
FNDA:1,_ZNK3s218multisetINSt7__cxx1112basic_stringIcSt11char_traitsIcESaIcEEESt7greaterIS6_EEgtERS9_
FNDA:1,_ZNK3s218multisetINSt7__cxx1112basic_stringIcSt11char_traitsIcESaIcEEESt7greaterIS6_EEeqERS9_
FNDA:3,_ZN3s218multisetIiSt7greaterIiEE11equal_rangeERKi
FNDA:1,_ZNK3s218multisetINSt7__cxx1112basic_stringIcSt11char_traitsIcESaIcEEESt7greaterIS6_EEltERS9_
FNDA:3,_ZN3s218multisetIiSt7greaterIiEE6insertERKi
FNDA:2,_ZN3s218multisetINSt7__cxx1112basic_stringIcSt11char_traitsIcESaIcEEESt7greaterIS6_EED2Ev
FNDA:1,_ZN3s218multisetINSt7__cxx1112basic_stringIcSt11char_traitsIcESaIcEEESt4lessIS6_EE7emplaceIJRA2_KcSD_SD_RA3_SB_SF_SF_RA4_SB_EEESt6vectorISt4pairINS_15IteratorGeneralIS6_S8_EEbESaISM_EEDpOT_
FNDA:3,_ZNK3s218multisetIiSt7greaterIiEE5countERKi
FNDA:8,_ZNK3s218multisetIiSt7greaterIiEE4sizeEv
FNDA:3,_ZNK3s218multisetIiSt4lessIiEE11equal_rangeERKi
FNDA:6,_ZNK3s218multisetINSt7__cxx1112basic_stringIcSt11char_traitsIcESaIcEEESt4lessIS6_EEleERS9_
FNDA:1,_ZN3s218multisetINSt7__cxx1112basic_stringIcSt11char_traitsIcESaIcEEESt7greaterIS6_EEaSERKS9_
FNDA:28,_ZN3s218multisetIiSt7greaterIiEEC2ESt16initializer_listIiE
FNDA:6,_ZN3s218multisetIiSt7greaterIiEE5eraseENS_15IteratorGeneralIiS2_EE
FNDA:1,_ZNK3s218multisetINSt7__cxx1112basic_stringIcSt11char_traitsIcESaIcEEESt7greaterIS6_EEneERS9_
FNDA:2,_ZN3s218multisetINSt7__cxx1112basic_stringIcSt11char_traitsIcESaIcEEESt4lessIS6_EE5clearEv
FNDA:2,_ZNK3s218multisetINSt7__cxx1112basic_stringIcSt11char_traitsIcESaIcEEESt4lessIS6_EE4cendEv
FNDA:1,_ZN3s218multisetINSt7__cxx1112basic_stringIcSt11char_traitsIcESaIcEEESt4lessIS6_EE5mergeERS9_
FNDA:2,_ZN3s218multisetINSt7__cxx1112basic_stringIcSt11char_traitsIcESaIcEEESt4lessIS6_EEaSERKS9_
FNDA:1,_ZN3s218multisetINSt7__cxx1112basic_stringIcSt11char_traitsIcESaIcEEESt4lessIS6_EEC2INS_15IteratorGeneralIS6_S8_EEEET_SD_
FNDA:2,_ZNK3s218multisetIiSt7greaterIiEE5emptyEv
FNDA:1,_ZN3s218multisetIiSt7greaterIiEEaSERKS3_
FNDA:2,_ZN3s218multisetIiSt4lessIiEE4findERKi
FNDA:4,_ZNK3s218multisetIiSt4lessIiEE4sizeEv
FNDA:1,_ZNK3s218multisetINSt7__cxx1112basic_stringIcSt11char_traitsIcESaIcEEESt4lessIS6_EE3endEv
FNDA:2,_ZNK3s218multisetIiSt4lessIiEE4findERKi
FNDA:5,_ZNK3s218multisetIiSt7greaterIiEEgeERS3_
FNDA:6,_ZNK3s218multisetINSt7__cxx1112basic_stringIcSt11char_traitsIcESaIcEEESt4lessIS6_EEltERS9_
FNDA:5,_ZN3s218multisetIiSt4lessIiEE6insertERKi
FNDA:10,_ZNK3s218multisetINSt7__cxx1112basic_stringIcSt11char_traitsIcESaIcEEESt4lessIS6_EEeqERS9_
FNDA:1,_ZN3s218multisetIiSt7greaterIiEE4swapERS3_
FNDA:2,_ZN3s218multisetINSt7__cxx1112basic_stringIcSt11char_traitsIcESaIcEEESt7greaterIS6_EEC2ESt16initializer_listIS6_E
FNDA:11,_ZN3s218multisetINSt7__cxx1112basic_stringIcSt11char_traitsIcESaIcEEESt4lessIS6_EE5beginEv
FNDA:3,_ZN3s218multisetINSt7__cxx1112basic_stringIcSt11char_traitsIcESaIcEEESt4lessIS6_EE4findERKS6_
FNDA:3,_ZN3s218multisetIiSt7greaterIiEE11upper_boundERKi
FNDA:5,_ZNK3s218multisetIiSt7greaterIiEEltERS3_
FNDA:1,_ZN3s218multisetINSt7__cxx1112basic_stringIcSt11char_traitsIcESaIcEEESt4lessIS6_EEC2Ev
FNDA:6,_ZNK3s218multisetINSt7__cxx1112basic_stringIcSt11char_traitsIcESaIcEEESt4lessIS6_EEgeERS9_
FNDA:6,_ZNK3s218multisetINSt7__cxx1112basic_stringIcSt11char_traitsIcESaIcEEESt4lessIS6_EEneERS9_
FNDA:2,_ZN3s218multisetIiSt7greaterIiEEC2ERKS3_
FNDA:2,_ZNK3s218multisetIiSt4lessIiEE6cbeginEv
FNDA:1,_ZN3s218multisetIiSt4lessIiEEC2EOS3_
FNDA:34,_ZN3s218multisetINSt7__cxx1112basic_stringIcSt11char_traitsIcESaIcEEESt4lessIS6_EED2Ev
FNDA:3,_ZNK3s218multisetIiSt4lessIiEE8containsERKi
FNDA:1,_ZN3s218multisetINSt7__cxx1112basic_stringIcSt11char_traitsIcESaIcEEESt4lessIS6_EE7emplaceIJRA2_KcRA3_SB_SF_EEESt6vectorISt4pairINS_15IteratorGeneralIS6_S8_EEbESaISK_EEDpOT_
FNDA:31,_ZN3s218multisetIiSt7greaterIiEED2Ev
FNDA:3,_ZN3s218multisetIiSt7greaterIiEE11lower_boundERKi
FNDA:1,_ZN3s218multisetIiSt4lessIiEE4swapERS3_
FNDA:12,_ZN3s218multisetIiSt7greaterIiEE5beginEv
FNDA:21,_ZN3s218multisetIiSt4lessIiEEC2ESt16initializer_listIiE
FNDA:5,_ZNK3s218multisetIiSt7greaterIiEEgtERS3_
FNDA:3,_ZN3s218multisetINSt7__cxx1112basic_stringIcSt11char_traitsIcESaIcEEESt4lessIS6_EEC2ERKS9_
FNDA:1,_ZN3s218multisetIiSt7greaterIiEE7emplaceIJiiiEEESt6vectorISt4pairINS_15IteratorGeneralIiS2_EEbESaIS9_EEDpOT_
FNDA:3,_ZN3s218multisetINSt7__cxx1112basic_stringIcSt11char_traitsIcESaIcEEESt4lessIS6_EE7emplaceIJRA2_KcSD_SD_EEESt6vectorISt4pairINS_15IteratorGeneralIS6_S8_EEbESaISI_EEDpOT_
FNDA:2,_ZN3s218multisetIiSt7greaterIiEE5clearEv
FNDA:1,_ZNK3s218multisetINSt7__cxx1112basic_stringIcSt11char_traitsIcESaIcEEESt7greaterIS6_EEleERS9_
FNDA:4,_ZN3s218multisetINSt7__cxx1112basic_stringIcSt11char_traitsIcESaIcEEESt4lessIS6_EE5eraseENS_15IteratorGeneralIS6_S8_EE
FNDA:3,_ZN3s218multisetIiSt4lessIiEE11lower_boundERKi
FNDA:7,_ZN3s218multisetIiSt4lessIiEE5beginEv
FNDA:3,_ZN3s218multisetIiSt4lessIiEE11upper_boundERKi
FNDA:1,_ZN3s218multisetIiSt4lessIiEE5clearEv
FNDA:2,_ZN3s218multisetINSt7__cxx1112basic_stringIcSt11char_traitsIcESaIcEEESt4lessIS6_EE3endEv
FNDA:5,_ZNK3s218multisetINSt7__cxx1112basic_stringIcSt11char_traitsIcESaIcEEESt4lessIS6_EE4sizeEv
FNDA:1,_ZN3s218multisetIiSt4lessIiEEaSEOS3_
FNDA:3,_ZN3s218multisetIiSt4lessIiEE11equal_rangeERKi
FNDA:29,_ZN3s218multisetINSt7__cxx1112basic_stringIcSt11char_traitsIcESaIcEEESt4lessIS6_EEC2ESt16initializer_listIS6_E
FNDA:5,_ZNK3s218multisetIiSt7greaterIiEEleERS3_
FNDA:5,_ZNK3s218multisetIiSt7greaterIiEEeqERS3_
FNF:80
FNH:80
DA:24,1
DA:25,80
DA:26,80
DA:28,2
DA:29,5
DA:30,1
DA:31,4
DA:32,4
DA:33,4
DA:35,1
DA:36,1
DA:37,1
DA:39,89
DA:40,12
DA:41,12
DA:42,16
DA:43,12
DA:44,12
DA:45,12
DA:47,6
DA:48,6
DA:50,8
DA:51,8
DA:53,30
DA:54,1
DA:55,2
DA:56,4
DA:57,1
DA:58,2
DA:59,10
DA:60,17
DA:62,4
DA:63,8
DA:64,13
DA:65,2
DA:66,3
DA:67,6
DA:68,6
DA:70,3
DA:71,3
DA:73,6
DA:74,6
DA:76,3
DA:77,3
DA:79,5
DA:80,2
DA:81,6
DA:82,6
DA:84,3
DA:86,3
DA:88,1
LF:51
LH:51
end_of_record
TN:
SF:/home/usup/Desktop/CPP2_s21_containers-0/src/s21_queue.h
FN:18,_ZN3s215queueINSt7__cxx1112basic_stringIcSt11char_traitsIcESaIcEEENS_4listIS6_EEEC2Ev
FN:18,_ZN3s215queueINSt7__cxx1112basic_stringIcSt11char_traitsIcESaIcEEENS_6vectorIS6_EEEC2Ev
FN:39,_ZN3s215queueINSt7__cxx1112basic_stringIcSt11char_traitsIcESaIcEEENS_6vectorIS6_EEE4swapERS9_
FN:39,_ZN3s215queueINSt7__cxx1112basic_stringIcSt11char_traitsIcESaIcEEENS_4listIS6_EEE4swapERS9_
FN:45,_ZN3s215queueINSt7__cxx1112basic_stringIcSt11char_traitsIcESaIcEEENS_4listIS6_EEEC2IS8_EERKT_
FN:45,_ZN3s215queueINSt7__cxx1112basic_stringIcSt11char_traitsIcESaIcEEENS_6vectorIS6_EEEC2IS8_EERKT_
FN:50,_ZN3s215queueINSt7__cxx1112basic_stringIcSt11char_traitsIcESaIcEEENS_4listIS6_EEEC2ERKSt16initializer_listIS6_E
FN:50,_ZN3s215queueINSt7__cxx1112basic_stringIcSt11char_traitsIcESaIcEEENS_6vectorIS6_EEEC2ERKSt16initializer_listIS6_E
FN:54,_ZNK3s215queueINSt7__cxx1112basic_stringIcSt11char_traitsIcESaIcEEENS_6vectorIS6_EEE5emptyEv
FN:54,_ZNK3s215queueINSt7__cxx1112basic_stringIcSt11char_traitsIcESaIcEEENS_4listIS6_EEE5emptyEv
FN:59,_ZN3s215queueINSt7__cxx1112basic_stringIcSt11char_traitsIcESaIcEEENS_4listIS6_EEE3popEv
FN:59,_ZN3s215queueINSt7__cxx1112basic_stringIcSt11char_traitsIcESaIcEEENS_6vectorIS6_EEE3popEv
FN:64,_ZN3s215queueINSt7__cxx1112basic_stringIcSt11char_traitsIcESaIcEEENS_6vectorIS6_EEE4pushERKS6_
FN:64,_ZN3s215queueINSt7__cxx1112basic_stringIcSt11char_traitsIcESaIcEEENS_4listIS6_EEE4pushERKS6_
FN:69,_ZNK3s215queueINSt7__cxx1112basic_stringIcSt11char_traitsIcESaIcEEENS_6vectorIS6_EEE4sizeEv
FN:69,_ZNK3s215queueINSt7__cxx1112basic_stringIcSt11char_traitsIcESaIcEEENS_4listIS6_EEE4sizeEv
FN:74,_ZN3s215queueINSt7__cxx1112basic_stringIcSt11char_traitsIcESaIcEEENS_4listIS6_EEE4backEv
FN:74,_ZN3s215queueINSt7__cxx1112basic_stringIcSt11char_traitsIcESaIcEEENS_6vectorIS6_EEE4backEv
FN:79,_ZNK3s215queueINSt7__cxx1112basic_stringIcSt11char_traitsIcESaIcEEENS_6vectorIS6_EEE4backEv
FN:85,_ZN3s215queueINSt7__cxx1112basic_stringIcSt11char_traitsIcESaIcEEENS_6vectorIS6_EEE5frontEv
FN:85,_ZN3s215queueINSt7__cxx1112basic_stringIcSt11char_traitsIcESaIcEEENS_4listIS6_EEE5frontEv
FN:90,_ZNK3s215queueINSt7__cxx1112basic_stringIcSt11char_traitsIcESaIcEEENS_6vectorIS6_EEE5frontEv
FN:97,_ZN3s215queueINSt7__cxx1112basic_stringIcSt11char_traitsIcESaIcEEENS_4listIS6_EEE12emplace_backIJRA5_KcEEEvDpOT_
FN:97,_ZN3s215queueINSt7__cxx1112basic_stringIcSt11char_traitsIcESaIcEEENS_6vectorIS6_EEE12emplace_backIJRA5_KcEEEvDpOT_
FNDA:2,_ZN3s215queueINSt7__cxx1112basic_stringIcSt11char_traitsIcESaIcEEENS_4listIS6_EEE3popEv
FNDA:1,_ZN3s215queueINSt7__cxx1112basic_stringIcSt11char_traitsIcESaIcEEENS_4listIS6_EEEC2IS8_EERKT_
FNDA:3,_ZNK3s215queueINSt7__cxx1112basic_stringIcSt11char_traitsIcESaIcEEENS_6vectorIS6_EEE5emptyEv
FNDA:5,_ZNK3s215queueINSt7__cxx1112basic_stringIcSt11char_traitsIcESaIcEEENS_6vectorIS6_EEE4sizeEv
FNDA:1,_ZNK3s215queueINSt7__cxx1112basic_stringIcSt11char_traitsIcESaIcEEENS_6vectorIS6_EEE5frontEv
FNDA:6,_ZN3s215queueINSt7__cxx1112basic_stringIcSt11char_traitsIcESaIcEEENS_6vectorIS6_EEE4backEv
FNDA:1,_ZN3s215queueINSt7__cxx1112basic_stringIcSt11char_traitsIcESaIcEEENS_6vectorIS6_EEE4swapERS9_
FNDA:1,_ZN3s215queueINSt7__cxx1112basic_stringIcSt11char_traitsIcESaIcEEENS_4listIS6_EEEC2ERKSt16initializer_listIS6_E
FNDA:6,_ZN3s215queueINSt7__cxx1112basic_stringIcSt11char_traitsIcESaIcEEENS_4listIS6_EEE4backEv
FNDA:1,_ZN3s215queueINSt7__cxx1112basic_stringIcSt11char_traitsIcESaIcEEENS_4listIS6_EEEC2Ev
FNDA:1,_ZN3s215queueINSt7__cxx1112basic_stringIcSt11char_traitsIcESaIcEEENS_6vectorIS6_EEEC2IS8_EERKT_
FNDA:1,_ZN3s215queueINSt7__cxx1112basic_stringIcSt11char_traitsIcESaIcEEENS_6vectorIS6_EEEC2Ev
FNDA:2,_ZN3s215queueINSt7__cxx1112basic_stringIcSt11char_traitsIcESaIcEEENS_6vectorIS6_EEEC2ERKSt16initializer_listIS6_E
FNDA:2,_ZN3s215queueINSt7__cxx1112basic_stringIcSt11char_traitsIcESaIcEEENS_6vectorIS6_EEE3popEv
FNDA:1,_ZN3s215queueINSt7__cxx1112basic_stringIcSt11char_traitsIcESaIcEEENS_4listIS6_EEE4swapERS9_
FNDA:5,_ZN3s215queueINSt7__cxx1112basic_stringIcSt11char_traitsIcESaIcEEENS_6vectorIS6_EEE4pushERKS6_
FNDA:5,_ZNK3s215queueINSt7__cxx1112basic_stringIcSt11char_traitsIcESaIcEEENS_4listIS6_EEE4sizeEv
FNDA:1,_ZN3s215queueINSt7__cxx1112basic_stringIcSt11char_traitsIcESaIcEEENS_6vectorIS6_EEE5frontEv
FNDA:3,_ZNK3s215queueINSt7__cxx1112basic_stringIcSt11char_traitsIcESaIcEEENS_4listIS6_EEE5emptyEv
FNDA:1,_ZN3s215queueINSt7__cxx1112basic_stringIcSt11char_traitsIcESaIcEEENS_6vectorIS6_EEE12emplace_backIJRA5_KcEEEvDpOT_
FNDA:1,_ZNK3s215queueINSt7__cxx1112basic_stringIcSt11char_traitsIcESaIcEEENS_6vectorIS6_EEE4backEv
FNDA:5,_ZN3s215queueINSt7__cxx1112basic_stringIcSt11char_traitsIcESaIcEEENS_4listIS6_EEE4pushERKS6_
FNDA:1,_ZN3s215queueINSt7__cxx1112basic_stringIcSt11char_traitsIcESaIcEEENS_4listIS6_EEE5frontEv
FNDA:1,_ZN3s215queueINSt7__cxx1112basic_stringIcSt11char_traitsIcESaIcEEENS_4listIS6_EEE12emplace_backIJRA5_KcEEEvDpOT_
FNF:24
FNH:24
DA:18,2
DA:39,2
DA:40,2
DA:41,2
DA:45,2
DA:46,2
DA:47,2
DA:50,3
DA:51,3
DA:54,6
DA:55,6
DA:59,4
DA:60,4
DA:61,4
DA:64,10
DA:65,10
DA:66,10
DA:69,10
DA:70,10
DA:74,12
DA:75,12
DA:79,1
DA:81,1
DA:85,2
DA:86,2
DA:90,1
DA:92,1
DA:97,2
DA:98,2
DA:99,2
LF:30
LH:30
end_of_record
TN:
SF:/home/usup/Desktop/CPP2_s21_containers-0/src/s21_set.h
FN:25,_ZN3s213setINSt7__cxx1112basic_stringIcSt11char_traitsIcESaIcEEESt4lessIS6_EEC2Ev
FN:26,_ZN3s213setIiSt7greaterIiEEC2ESt16initializer_listIiE
FN:26,_ZN3s213setINSt7__cxx1112basic_stringIcSt11char_traitsIcESaIcEEESt7greaterIS6_EEC2ESt16initializer_listIS6_E
FN:26,_ZN3s213setINSt7__cxx1112basic_stringIcSt11char_traitsIcESaIcEEESt4lessIS6_EEC2ESt16initializer_listIS6_E
FN:26,_ZN3s213setIiSt4lessIiEEC2ESt16initializer_listIiE
FN:29,_ZN3s213setIiSt7greaterIiEEC2INS_15IteratorGeneralIiS2_EEEET_S7_
FN:29,_ZN3s213setINSt7__cxx1112basic_stringIcSt11char_traitsIcESaIcEEESt4lessIS6_EEC2INS_15IteratorGeneralIS6_S8_EEEET_SD_
FN:30,_ZN3s213setIiSt7greaterIiEEC2ERKS3_
FN:30,_ZN3s213setINSt7__cxx1112basic_stringIcSt11char_traitsIcESaIcEEESt4lessIS6_EEC2ERKS9_
FN:31,_ZN3s213setIiSt4lessIiEEC2EOS3_
FN:32,_ZN3s213setINSt7__cxx1112basic_stringIcSt11char_traitsIcESaIcEEESt4lessIS6_EEaSERKS9_
FN:32,_ZN3s213setIiSt7greaterIiEEaSERKS3_
FN:32,_ZN3s213setINSt7__cxx1112basic_stringIcSt11char_traitsIcESaIcEEESt7greaterIS6_EEaSERKS9_
FN:36,_ZN3s213setIiSt4lessIiEEaSEOS3_
FN:40,_ZN3s213setINSt7__cxx1112basic_stringIcSt11char_traitsIcESaIcEEESt7greaterIS6_EED2Ev
FN:40,_ZN3s213setIiSt7greaterIiEED2Ev
FN:40,_ZN3s213setINSt7__cxx1112basic_stringIcSt11char_traitsIcESaIcEEESt4lessIS6_EED2Ev
FN:40,_ZN3s213setIiSt4lessIiEED2Ev
FN:41,_ZNK3s213setINSt7__cxx1112basic_stringIcSt11char_traitsIcESaIcEEESt7greaterIS6_EEltERS9_
FN:41,_ZNK3s213setINSt7__cxx1112basic_stringIcSt11char_traitsIcESaIcEEESt4lessIS6_EEltERS9_
FN:41,_ZNK3s213setIiSt7greaterIiEEltERS3_
FN:42,_ZNK3s213setIiSt7greaterIiEEgtERS3_
FN:42,_ZNK3s213setINSt7__cxx1112basic_stringIcSt11char_traitsIcESaIcEEESt7greaterIS6_EEgtERS9_
FN:42,_ZNK3s213setINSt7__cxx1112basic_stringIcSt11char_traitsIcESaIcEEESt4lessIS6_EEgtERS9_
FN:43,_ZNK3s213setINSt7__cxx1112basic_stringIcSt11char_traitsIcESaIcEEESt7greaterIS6_EEeqERS9_
FN:43,_ZNK3s213setIiSt7greaterIiEEeqERS3_
FN:43,_ZNK3s213setINSt7__cxx1112basic_stringIcSt11char_traitsIcESaIcEEESt4lessIS6_EEeqERS9_
FN:44,_ZNK3s213setINSt7__cxx1112basic_stringIcSt11char_traitsIcESaIcEEESt7greaterIS6_EEneERS9_
FN:44,_ZNK3s213setIiSt7greaterIiEEneERS3_
FN:44,_ZNK3s213setINSt7__cxx1112basic_stringIcSt11char_traitsIcESaIcEEESt4lessIS6_EEneERS9_
FN:45,_ZNK3s213setINSt7__cxx1112basic_stringIcSt11char_traitsIcESaIcEEESt7greaterIS6_EEleERS9_
FN:45,_ZNK3s213setINSt7__cxx1112basic_stringIcSt11char_traitsIcESaIcEEESt4lessIS6_EEleERS9_
FN:45,_ZNK3s213setIiSt7greaterIiEEleERS3_
FN:46,_ZNK3s213setINSt7__cxx1112basic_stringIcSt11char_traitsIcESaIcEEESt7greaterIS6_EEgeERS9_
FN:46,_ZNK3s213setINSt7__cxx1112basic_stringIcSt11char_traitsIcESaIcEEESt4lessIS6_EEgeERS9_
FN:46,_ZNK3s213setIiSt7greaterIiEEgeERS3_
FN:48,_ZN3s213setINSt7__cxx1112basic_stringIcSt11char_traitsIcESaIcEEESt4lessIS6_EE7emplaceIJRA2_KcSD_SD_RA3_SB_SF_SF_RA4_SB_EEESt6vectorISt4pairINS_15IteratorGeneralIS6_S8_EEbESaISM_EEDpOT_
FN:48,_ZN3s213setINSt7__cxx1112basic_stringIcSt11char_traitsIcESaIcEEESt4lessIS6_EE7emplaceIJRA2_KcSD_SD_EEESt6vectorISt4pairINS_15IteratorGeneralIS6_S8_EEbESaISI_EEDpOT_
FN:48,_ZN3s213setIiSt7greaterIiEE7emplaceIJiiiEEESt6vectorISt4pairINS_15IteratorGeneralIiS2_EEbESaIS9_EEDpOT_
FN:48,_ZN3s213setINSt7__cxx1112basic_stringIcSt11char_traitsIcESaIcEEESt4lessIS6_EE7emplaceIJRA2_KcRA3_SB_SF_EEESt6vectorISt4pairINS_15IteratorGeneralIS6_S8_EEbESaISK_EEDpOT_
FN:51,_ZN3s213setIiSt4lessIiEE6insertERKi
FN:51,_ZN3s213setIiSt7greaterIiEE6insertERKi
FN:54,_ZN3s213setIiSt7greaterIiEE5beginEv
FN:54,_ZN3s213setIiSt4lessIiEE5beginEv
FN:54,_ZN3s213setINSt7__cxx1112basic_stringIcSt11char_traitsIcESaIcEEESt4lessIS6_EE5beginEv
FN:55,_ZNK3s213setIiSt4lessIiEE5beginEv
FN:56,_ZNK3s213setINSt7__cxx1112basic_stringIcSt11char_traitsIcESaIcEEESt4lessIS6_EE6cbeginEv
FN:56,_ZNK3s213setIiSt4lessIiEE6cbeginEv
FN:57,_ZN3s213setIiSt7greaterIiEE3endEv
FN:57,_ZN3s213setINSt7__cxx1112basic_stringIcSt11char_traitsIcESaIcEEESt4lessIS6_EE3endEv
FN:58,_ZNK3s213setINSt7__cxx1112basic_stringIcSt11char_traitsIcESaIcEEESt4lessIS6_EE3endEv
FN:59,_ZNK3s213setINSt7__cxx1112basic_stringIcSt11char_traitsIcESaIcEEESt4lessIS6_EE4cendEv
FN:60,_ZN3s213setINSt7__cxx1112basic_stringIcSt11char_traitsIcESaIcEEESt4lessIS6_EE5eraseENS_15IteratorGeneralIS6_S8_EE
FN:61,_ZNK3s213setIiSt4lessIiEE4sizeEv
FN:61,_ZNK3s213setINSt7__cxx1112basic_stringIcSt11char_traitsIcESaIcEEESt4lessIS6_EE4sizeEv
FN:61,_ZNK3s213setIiSt7greaterIiEE4sizeEv
FN:63,_ZNK3s213setIiSt7greaterIiEE5emptyEv
FN:63,_ZNK3s213setIiSt4lessIiEE5emptyEv
FN:64,_ZNK3s213setIiSt4lessIiEE5countERKi
FN:64,_ZNK3s213setIiSt7greaterIiEE5countERKi
FN:65,_ZNK3s213setIiSt4lessIiEE8containsERKi
FN:66,_ZN3s213setIiSt4lessIiEE4findERKi
FN:66,_ZN3s213setINSt7__cxx1112basic_stringIcSt11char_traitsIcESaIcEEESt4lessIS6_EE4findERKS6_
FN:66,_ZN3s213setIiSt7greaterIiEE4findERKi
FN:67,_ZNK3s213setIiSt4lessIiEE4findERKi
FN:68,_ZN3s213setIiSt7greaterIiEE5clearEv
FN:68,_ZN3s213setIiSt4lessIiEE5clearEv
FN:68,_ZN3s213setINSt7__cxx1112basic_stringIcSt11char_traitsIcESaIcEEESt4lessIS6_EE5clearEv
FN:69,_ZN3s213setIiSt4lessIiEE4swapERS3_
FN:69,_ZN3s213setIiSt7greaterIiEE4swapERS3_
FN:70,_ZN3s213setINSt7__cxx1112basic_stringIcSt11char_traitsIcESaIcEEESt4lessIS6_EE5mergeERS9_
FNDA:1,_ZN3s213setINSt7__cxx1112basic_stringIcSt11char_traitsIcESaIcEEESt4lessIS6_EE5mergeERS9_
FNDA:1,_ZN3s213setIiSt4lessIiEEaSEOS3_
FNDA:3,_ZN3s213setIiSt4lessIiEE6insertERKi
FNDA:1,_ZNK3s213setINSt7__cxx1112basic_stringIcSt11char_traitsIcESaIcEEESt7greaterIS6_EEleERS9_
FNDA:26,_ZN3s213setIiSt7greaterIiEED2Ev
FNDA:1,_ZNK3s213setINSt7__cxx1112basic_stringIcSt11char_traitsIcESaIcEEESt7greaterIS6_EEgtERS9_
FNDA:6,_ZN3s213setINSt7__cxx1112basic_stringIcSt11char_traitsIcESaIcEEESt4lessIS6_EEC2ERKS9_
FNDA:2,_ZNK3s213setINSt7__cxx1112basic_stringIcSt11char_traitsIcESaIcEEESt4lessIS6_EE6cbeginEv
FNDA:24,_ZN3s213setIiSt7greaterIiEEC2ESt16initializer_listIiE
FNDA:1,_ZN3s213setIiSt7greaterIiEEC2ERKS3_
FNDA:2,_ZN3s213setIiSt7greaterIiEE5clearEv
FNDA:2,_ZN3s213setIiSt7greaterIiEE4findERKi
FNDA:2,_ZN3s213setINSt7__cxx1112basic_stringIcSt11char_traitsIcESaIcEEESt4lessIS6_EE3endEv
FNDA:11,_ZN3s213setIiSt7greaterIiEE5beginEv
FNDA:1,_ZN3s213setIiSt4lessIiEE5clearEv
FNDA:6,_ZNK3s213setINSt7__cxx1112basic_stringIcSt11char_traitsIcESaIcEEESt4lessIS6_EEleERS9_
FNDA:1,_ZNK3s213setINSt7__cxx1112basic_stringIcSt11char_traitsIcESaIcEEESt4lessIS6_EE3endEv
FNDA:2,_ZN3s213setIiSt4lessIiEE4findERKi
FNDA:8,_ZN3s213setINSt7__cxx1112basic_stringIcSt11char_traitsIcESaIcEEESt4lessIS6_EE4findERKS6_
FNDA:1,_ZN3s213setINSt7__cxx1112basic_stringIcSt11char_traitsIcESaIcEEESt4lessIS6_EE7emplaceIJRA2_KcSD_SD_RA3_SB_SF_SF_RA4_SB_EEESt6vectorISt4pairINS_15IteratorGeneralIS6_S8_EEbESaISM_EEDpOT_
FNDA:5,_ZNK3s213setIiSt7greaterIiEEgtERS3_
FNDA:3,_ZNK3s213setIiSt4lessIiEE5countERKi
FNDA:1,_ZN3s213setIiSt4lessIiEE4swapERS3_
FNDA:1,_ZNK3s213setIiSt4lessIiEE5beginEv
FNDA:2,_ZN3s213setIiSt7greaterIiEE3endEv
FNDA:8,_ZN3s213setINSt7__cxx1112basic_stringIcSt11char_traitsIcESaIcEEESt4lessIS6_EE5eraseENS_15IteratorGeneralIS6_S8_EE
FNDA:2,_ZN3s213setINSt7__cxx1112basic_stringIcSt11char_traitsIcESaIcEEESt7greaterIS6_EED2Ev
FNDA:1,_ZNK3s213setINSt7__cxx1112basic_stringIcSt11char_traitsIcESaIcEEESt7greaterIS6_EEeqERS9_
FNDA:1,_ZN3s213setINSt7__cxx1112basic_stringIcSt11char_traitsIcESaIcEEESt4lessIS6_EEC2INS_15IteratorGeneralIS6_S8_EEEET_SD_
FNDA:1,_ZN3s213setINSt7__cxx1112basic_stringIcSt11char_traitsIcESaIcEEESt4lessIS6_EEC2Ev
FNDA:5,_ZNK3s213setIiSt7greaterIiEEltERS3_
FNDA:1,_ZN3s213setIiSt4lessIiEEC2EOS3_
FNDA:1,_ZN3s213setIiSt7greaterIiEEaSERKS3_
FNDA:2,_ZN3s213setINSt7__cxx1112basic_stringIcSt11char_traitsIcESaIcEEESt7greaterIS6_EEC2ESt16initializer_listIS6_E
FNDA:4,_ZNK3s213setIiSt4lessIiEE4sizeEv
FNDA:29,_ZN3s213setINSt7__cxx1112basic_stringIcSt11char_traitsIcESaIcEEESt4lessIS6_EEC2ESt16initializer_listIS6_E
FNDA:6,_ZNK3s213setINSt7__cxx1112basic_stringIcSt11char_traitsIcESaIcEEESt4lessIS6_EEltERS9_
FNDA:3,_ZN3s213setIiSt7greaterIiEE6insertERKi
FNDA:2,_ZN3s213setINSt7__cxx1112basic_stringIcSt11char_traitsIcESaIcEEESt4lessIS6_EE5clearEv
FNDA:1,_ZN3s213setINSt7__cxx1112basic_stringIcSt11char_traitsIcESaIcEEESt7greaterIS6_EEaSERKS9_
FNDA:15,_ZN3s213setIiSt4lessIiEED2Ev
FNDA:13,_ZN3s213setINSt7__cxx1112basic_stringIcSt11char_traitsIcESaIcEEESt4lessIS6_EE5beginEv
FNDA:5,_ZNK3s213setIiSt7greaterIiEEgeERS3_
FNDA:7,_ZNK3s213setIiSt7greaterIiEE4sizeEv
FNDA:14,_ZN3s213setIiSt4lessIiEEC2ESt16initializer_listIiE
FNDA:3,_ZNK3s213setIiSt4lessIiEE8containsERKi
FNDA:3,_ZNK3s213setIiSt7greaterIiEE5countERKi
FNDA:6,_ZNK3s213setINSt7__cxx1112basic_stringIcSt11char_traitsIcESaIcEEESt4lessIS6_EEgeERS9_
FNDA:8,_ZNK3s213setINSt7__cxx1112basic_stringIcSt11char_traitsIcESaIcEEESt4lessIS6_EE4sizeEv
FNDA:6,_ZNK3s213setINSt7__cxx1112basic_stringIcSt11char_traitsIcESaIcEEESt4lessIS6_EEneERS9_
FNDA:1,_ZNK3s213setIiSt4lessIiEE6cbeginEv
FNDA:5,_ZNK3s213setIiSt7greaterIiEEleERS3_
FNDA:5,_ZNK3s213setIiSt7greaterIiEEneERS3_
FNDA:1,_ZN3s213setIiSt7greaterIiEE7emplaceIJiiiEEESt6vectorISt4pairINS_15IteratorGeneralIiS2_EEbESaIS9_EEDpOT_
FNDA:2,_ZNK3s213setIiSt4lessIiEE4findERKi
FNDA:37,_ZN3s213setINSt7__cxx1112basic_stringIcSt11char_traitsIcESaIcEEESt4lessIS6_EED2Ev
FNDA:1,_ZNK3s213setINSt7__cxx1112basic_stringIcSt11char_traitsIcESaIcEEESt4lessIS6_EE4cendEv
FNDA:1,_ZNK3s213setINSt7__cxx1112basic_stringIcSt11char_traitsIcESaIcEEESt7greaterIS6_EEltERS9_
FNDA:5,_ZNK3s213setIiSt7greaterIiEEeqERS3_
FNDA:3,_ZN3s213setINSt7__cxx1112basic_stringIcSt11char_traitsIcESaIcEEESt4lessIS6_EE7emplaceIJRA2_KcSD_SD_EEESt6vectorISt4pairINS_15IteratorGeneralIS6_S8_EEbESaISI_EEDpOT_
FNDA:10,_ZNK3s213setINSt7__cxx1112basic_stringIcSt11char_traitsIcESaIcEEESt4lessIS6_EEeqERS9_
FNDA:1,_ZN3s213setIiSt7greaterIiEEC2INS_15IteratorGeneralIiS2_EEEET_S7_
FNDA:1,_ZN3s213setINSt7__cxx1112basic_stringIcSt11char_traitsIcESaIcEEESt4lessIS6_EE7emplaceIJRA2_KcRA3_SB_SF_EEESt6vectorISt4pairINS_15IteratorGeneralIS6_S8_EEbESaISK_EEDpOT_
FNDA:2,_ZNK3s213setIiSt4lessIiEE5emptyEv
FNDA:2,_ZN3s213setINSt7__cxx1112basic_stringIcSt11char_traitsIcESaIcEEESt4lessIS6_EEaSERKS9_
FNDA:7,_ZN3s213setIiSt4lessIiEE5beginEv
FNDA:1,_ZNK3s213setINSt7__cxx1112basic_stringIcSt11char_traitsIcESaIcEEESt7greaterIS6_EEgeERS9_
FNDA:6,_ZNK3s213setINSt7__cxx1112basic_stringIcSt11char_traitsIcESaIcEEESt4lessIS6_EEgtERS9_
FNDA:1,_ZNK3s213setINSt7__cxx1112basic_stringIcSt11char_traitsIcESaIcEEESt7greaterIS6_EEneERS9_
FNDA:2,_ZNK3s213setIiSt7greaterIiEE5emptyEv
FNDA:1,_ZN3s213setIiSt7greaterIiEE4swapERS3_
FNF:71
FNH:71
DA:25,1
DA:26,69
DA:27,69
DA:29,2
DA:30,7
DA:31,1
DA:32,4
DA:33,4
DA:34,4
DA:36,1
DA:37,1
DA:38,1
DA:40,80
DA:41,12
DA:42,12
DA:43,16
DA:44,12
DA:45,12
DA:46,12
DA:48,6
DA:49,6
DA:51,6
DA:52,6
DA:54,31
DA:55,1
DA:56,3
DA:57,4
DA:58,1
DA:59,1
DA:60,8
DA:61,19
DA:63,4
DA:64,6
DA:65,3
DA:66,12
DA:67,2
DA:68,5
DA:69,2
DA:70,1
LF:39
LH:39
end_of_record
TN:
SF:/home/usup/Desktop/CPP2_s21_containers-0/src/s21_stack.h
FN:18,_ZN3s215stackINSt7__cxx1112basic_stringIcSt11char_traitsIcESaIcEEENS_6vectorIS6_EEEC2Ev
FN:18,_ZN3s215stackINSt7__cxx1112basic_stringIcSt11char_traitsIcESaIcEEENS_4listIS6_EEEC2Ev
FN:37,_ZN3s215stackINSt7__cxx1112basic_stringIcSt11char_traitsIcESaIcEEENS_4listIS6_EEE4swapERS9_
FN:37,_ZN3s215stackINSt7__cxx1112basic_stringIcSt11char_traitsIcESaIcEEENS_6vectorIS6_EEE4swapERS9_
FN:43,_ZN3s215stackINSt7__cxx1112basic_stringIcSt11char_traitsIcESaIcEEENS_6vectorIS6_EEEC2IS8_EERKT_
FN:43,_ZN3s215stackINSt7__cxx1112basic_stringIcSt11char_traitsIcESaIcEEENS_4listIS6_EEEC2IS8_EERKT_
FN:48,_ZN3s215stackINSt7__cxx1112basic_stringIcSt11char_traitsIcESaIcEEENS_4listIS6_EEE3popEv
FN:48,_ZN3s215stackINSt7__cxx1112basic_stringIcSt11char_traitsIcESaIcEEENS_6vectorIS6_EEE3popEv
FN:53,_ZN3s215stackINSt7__cxx1112basic_stringIcSt11char_traitsIcESaIcEEENS_4listIS6_EEEC2ERKSt16initializer_listIS6_E
FN:53,_ZN3s215stackINSt7__cxx1112basic_stringIcSt11char_traitsIcESaIcEEENS_6vectorIS6_EEEC2ERKSt16initializer_listIS6_E
FN:57,_ZN3s215stackINSt7__cxx1112basic_stringIcSt11char_traitsIcESaIcEEENS_4listIS6_EEE4pushERKS6_
FN:57,_ZN3s215stackINSt7__cxx1112basic_stringIcSt11char_traitsIcESaIcEEENS_6vectorIS6_EEE4pushERKS6_
FN:62,_ZNK3s215stackINSt7__cxx1112basic_stringIcSt11char_traitsIcESaIcEEENS_6vectorIS6_EEE4sizeEv
FN:62,_ZNK3s215stackINSt7__cxx1112basic_stringIcSt11char_traitsIcESaIcEEENS_4listIS6_EEE4sizeEv
FN:67,_ZN3s215stackINSt7__cxx1112basic_stringIcSt11char_traitsIcESaIcEEENS_6vectorIS6_EEE3topEv
FN:67,_ZN3s215stackINSt7__cxx1112basic_stringIcSt11char_traitsIcESaIcEEENS_4listIS6_EEE3topEv
FN:72,_ZNK3s215stackINSt7__cxx1112basic_stringIcSt11char_traitsIcESaIcEEENS_6vectorIS6_EEE3topEv
FN:78,_ZN3s215stackINSt7__cxx1112basic_stringIcSt11char_traitsIcESaIcEEENS_4listIS6_EEE13emplace_frontIJRA5_KcEEEvDpOT_
FN:78,_ZN3s215stackINSt7__cxx1112basic_stringIcSt11char_traitsIcESaIcEEENS_6vectorIS6_EEE13emplace_frontIJRA5_KcEEEvDpOT_
FN:83,_ZNK3s215stackINSt7__cxx1112basic_stringIcSt11char_traitsIcESaIcEEENS_4listIS6_EEE5emptyEv
FN:83,_ZNK3s215stackINSt7__cxx1112basic_stringIcSt11char_traitsIcESaIcEEENS_6vectorIS6_EEE5emptyEv
FNDA:3,_ZN3s215stackINSt7__cxx1112basic_stringIcSt11char_traitsIcESaIcEEENS_4listIS6_EEE3popEv
FNDA:3,_ZN3s215stackINSt7__cxx1112basic_stringIcSt11char_traitsIcESaIcEEENS_4listIS6_EEE4pushERKS6_
FNDA:7,_ZN3s215stackINSt7__cxx1112basic_stringIcSt11char_traitsIcESaIcEEENS_6vectorIS6_EEE3topEv
FNDA:3,_ZNK3s215stackINSt7__cxx1112basic_stringIcSt11char_traitsIcESaIcEEENS_4listIS6_EEE5emptyEv
FNDA:1,_ZN3s215stackINSt7__cxx1112basic_stringIcSt11char_traitsIcESaIcEEENS_4listIS6_EEE4swapERS9_
FNDA:6,_ZNK3s215stackINSt7__cxx1112basic_stringIcSt11char_traitsIcESaIcEEENS_6vectorIS6_EEE4sizeEv
FNDA:1,_ZN3s215stackINSt7__cxx1112basic_stringIcSt11char_traitsIcESaIcEEENS_4listIS6_EEEC2ERKSt16initializer_listIS6_E
FNDA:3,_ZN3s215stackINSt7__cxx1112basic_stringIcSt11char_traitsIcESaIcEEENS_6vectorIS6_EEE4pushERKS6_
FNDA:2,_ZN3s215stackINSt7__cxx1112basic_stringIcSt11char_traitsIcESaIcEEENS_6vectorIS6_EEEC2ERKSt16initializer_listIS6_E
FNDA:3,_ZN3s215stackINSt7__cxx1112basic_stringIcSt11char_traitsIcESaIcEEENS_6vectorIS6_EEE3popEv
FNDA:1,_ZN3s215stackINSt7__cxx1112basic_stringIcSt11char_traitsIcESaIcEEENS_6vectorIS6_EEEC2Ev
FNDA:1,_ZN3s215stackINSt7__cxx1112basic_stringIcSt11char_traitsIcESaIcEEENS_4listIS6_EEEC2Ev
FNDA:1,_ZN3s215stackINSt7__cxx1112basic_stringIcSt11char_traitsIcESaIcEEENS_4listIS6_EEE13emplace_frontIJRA5_KcEEEvDpOT_
FNDA:1,_ZN3s215stackINSt7__cxx1112basic_stringIcSt11char_traitsIcESaIcEEENS_6vectorIS6_EEEC2IS8_EERKT_
FNDA:1,_ZNK3s215stackINSt7__cxx1112basic_stringIcSt11char_traitsIcESaIcEEENS_6vectorIS6_EEE3topEv
FNDA:1,_ZN3s215stackINSt7__cxx1112basic_stringIcSt11char_traitsIcESaIcEEENS_6vectorIS6_EEE4swapERS9_
FNDA:7,_ZN3s215stackINSt7__cxx1112basic_stringIcSt11char_traitsIcESaIcEEENS_4listIS6_EEE3topEv
FNDA:1,_ZN3s215stackINSt7__cxx1112basic_stringIcSt11char_traitsIcESaIcEEENS_4listIS6_EEEC2IS8_EERKT_
FNDA:6,_ZNK3s215stackINSt7__cxx1112basic_stringIcSt11char_traitsIcESaIcEEENS_4listIS6_EEE4sizeEv
FNDA:1,_ZN3s215stackINSt7__cxx1112basic_stringIcSt11char_traitsIcESaIcEEENS_6vectorIS6_EEE13emplace_frontIJRA5_KcEEEvDpOT_
FNDA:3,_ZNK3s215stackINSt7__cxx1112basic_stringIcSt11char_traitsIcESaIcEEENS_6vectorIS6_EEE5emptyEv
FNF:21
FNH:21
DA:18,2
DA:37,2
DA:38,2
DA:43,2
DA:44,2
DA:45,2
DA:48,6
DA:49,6
DA:50,6
DA:53,3
DA:54,3
DA:57,6
DA:58,6
DA:59,6
DA:62,12
DA:63,12
DA:67,14
DA:68,14
DA:72,1
DA:73,1
DA:78,2
DA:79,2
DA:80,2
DA:83,6
DA:84,6
LF:25
LH:25
end_of_record
TN:
SF:/home/usup/Desktop/CPP2_s21_containers-0/src/s21_vector.h
FN:41,_ZNK3s216vectorINSt7__cxx1112basic_stringIcSt11char_traitsIcESaIcEEEEltERS7_
FN:42,_ZNK3s216vectorINSt7__cxx1112basic_stringIcSt11char_traitsIcESaIcEEEEgtERS7_
FN:43,_ZNK3s216vectorINSt7__cxx1112basic_stringIcSt11char_traitsIcESaIcEEEEeqERS7_
FN:44,_ZNK3s216vectorINSt7__cxx1112basic_stringIcSt11char_traitsIcESaIcEEEEneERS7_
FN:45,_ZNK3s216vectorINSt7__cxx1112basic_stringIcSt11char_traitsIcESaIcEEEEleERS7_
FN:48,_ZNK3s216vectorINSt7__cxx1112basic_stringIcSt11char_traitsIcESaIcEEEEgeERS7_
FN:99,_ZN3s216vectorINSt7__cxx1112basic_stringIcSt11char_traitsIcESaIcEEEE14ArgumentParserEm
FN:109,_ZN3s216vectorIiE4dataEv
FN:114,_ZNK3s216vectorIiE4dataEv
FN:119,_ZN3s216vectorINSt7__cxx1112basic_stringIcSt11char_traitsIcESaIcEEEE14ChangeCapacityEm
FN:146,_ZN3s216vectorIiE10FreeMemoryEv
FN:146,_ZN3s216vectorINSt7__cxx1112basic_stringIcSt11char_traitsIcESaIcEEEE10FreeMemoryEv
FN:154,_ZN3s216vectorINSt7__cxx1112basic_stringIcSt11char_traitsIcESaIcEEEE12emplace_backIJRA2_KcSB_SB_EEEvDpOT_
FN:154,_ZN3s216vectorINSt7__cxx1112basic_stringIcSt11char_traitsIcESaIcEEEE12emplace_backIJRA5_KcEEEvDpOT_
FN:160,_ZN3s216vectorINSt7__cxx1112basic_stringIcSt11char_traitsIcESaIcEEEE13emplace_frontIJRA5_KcEEEvDpOT_
FN:160,_ZN3s216vectorINSt7__cxx1112basic_stringIcSt11char_traitsIcESaIcEEEE13emplace_frontIJRA2_KcSB_SB_EEEvDpOT_
FN:165,_ZN3s216vectorINSt7__cxx1112basic_stringIcSt11char_traitsIcESaIcEEEEaSERKS7_
FN:174,_ZN3s216vectorINSt7__cxx1112basic_stringIcSt11char_traitsIcESaIcEEEEaSEOS7_
FN:180,_ZN3s216vectorINSt7__cxx1112basic_stringIcSt11char_traitsIcESaIcEEEE9pop_frontEv
FN:196,_ZN3s216vectorINSt7__cxx1112basic_stringIcSt11char_traitsIcESaIcEEEEC2IPS6_EET_SA_
FN:196,_ZN3s216vectorINSt7__cxx1112basic_stringIcSt11char_traitsIcESaIcEEEEC2IN9__gnu_cxx17__normal_iteratorIPS6_St6vectorIS6_SaIS6_EEEEEET_SG_
FN:204,_ZN3s216vectorINSt7__cxx1112basic_stringIcSt11char_traitsIcESaIcEEEE14ArgumentParserIJPKcSA_SA_SA_EEEvmOS6_DpT_
FN:204,_ZN3s216vectorINSt7__cxx1112basic_stringIcSt11char_traitsIcESaIcEEEE14ArgumentParserIJPKcSA_SA_SA_SA_SA_EEEvmOS6_DpT_
FN:204,_ZN3s216vectorINSt7__cxx1112basic_stringIcSt11char_traitsIcESaIcEEEE14ArgumentParserIJPKcSA_SA_SA_SA_EEEvmOS6_DpT_
FN:204,_ZN3s216vectorINSt7__cxx1112basic_stringIcSt11char_traitsIcESaIcEEEE14ArgumentParserIJPKcEEEvmOS6_DpT_
FN:204,_ZN3s216vectorINSt7__cxx1112basic_stringIcSt11char_traitsIcESaIcEEEE14ArgumentParserIJPKcSA_SA_EEEvmOS6_DpT_
FN:204,_ZN3s216vectorINSt7__cxx1112basic_stringIcSt11char_traitsIcESaIcEEEE14ArgumentParserIJPKcSA_EEEvmOS6_DpT_
FN:204,_ZN3s216vectorINSt7__cxx1112basic_stringIcSt11char_traitsIcESaIcEEEE14ArgumentParserIJEEEvmOS6_DpT_
FN:215,_ZN3s216vectorINSt7__cxx1112basic_stringIcSt11char_traitsIcESaIcEEEE7emplaceIJRA2_KcSB_SB_EEEPS6_SC_DpOT_
FN:215,_ZN3s216vectorINSt7__cxx1112basic_stringIcSt11char_traitsIcESaIcEEEE7emplaceIJRA2_KcRA3_S9_SD_EEEPS6_SE_DpOT_
FN:215,_ZN3s216vectorINSt7__cxx1112basic_stringIcSt11char_traitsIcESaIcEEEE7emplaceIJRA2_KcSB_SB_RA3_S9_SD_SD_RA4_S9_EEEPS6_SG_DpOT_
FN:223,_ZN3s216vectorINSt7__cxx1112basic_stringIcSt11char_traitsIcESaIcEEEE5eraseEPKS6_S9_
FN:234,_ZN3s216vectorIiE5eraseEPKi
FN:234,_ZN3s216vectorINSt7__cxx1112basic_stringIcSt11char_traitsIcESaIcEEEE5eraseEPKS6_
FN:242,_ZN3s216vectorINSt7__cxx1112basic_stringIcSt11char_traitsIcESaIcEEEE6resizeEmRKS6_
FN:250,_ZN3s216vectorINSt7__cxx1112basic_stringIcSt11char_traitsIcESaIcEEEE6resizeEm
FN:256,_ZN3s216vectorINSt7__cxx1112basic_stringIcSt11char_traitsIcESaIcEEEE5clearEv
FN:256,_ZN3s216vectorIiE5clearEv
FN:261,_ZN3s216vectorINSt7__cxx1112basic_stringIcSt11char_traitsIcESaIcEEEE6insertEPKS6_St16initializer_listIS6_E
FN:276,_ZN3s216vectorINSt7__cxx1112basic_stringIcSt11char_traitsIcESaIcEEEE6insertIPS6_EEvPKS6_T_SC_
FN:289,_ZN3s216vectorINSt7__cxx1112basic_stringIcSt11char_traitsIcESaIcEEEE6insertEPKS6_mRS8_
FN:301,_ZN3s216vectorINSt7__cxx1112basic_stringIcSt11char_traitsIcESaIcEEEE6insertEPKS6_RS8_
FN:313,_ZN3s216vectorINSt7__cxx1112basic_stringIcSt11char_traitsIcESaIcEEEE8pop_backEv
FN:318,_ZN3s216vectorIiE5frontEv
FN:318,_ZN3s216vectorINSt7__cxx1112basic_stringIcSt11char_traitsIcESaIcEEEE5frontEv
FN:323,_ZNK3s216vectorIiE5frontEv
FN:323,_ZNK3s216vectorINSt7__cxx1112basic_stringIcSt11char_traitsIcESaIcEEEE5frontEv
FN:328,_ZN3s216vectorINSt7__cxx1112basic_stringIcSt11char_traitsIcESaIcEEEE4backEv
FN:328,_ZN3s216vectorIiE4backEv
FN:333,_ZNK3s216vectorIiE4backEv
FN:333,_ZNK3s216vectorINSt7__cxx1112basic_stringIcSt11char_traitsIcESaIcEEEE4backEv
FN:338,_ZN3s216vectorIiE2atEm
FN:344,_ZNK3s216vectorIiE2atEm
FN:350,_ZN3s216vectorINSt7__cxx1112basic_stringIcSt11char_traitsIcESaIcEEEE4swapERS7_
FN:350,_ZN3s216vectorIiE4swapERS1_
FN:357,_ZN3s216vectorINSt7__cxx1112basic_stringIcSt11char_traitsIcESaIcEEEE6assignEmS6_
FN:364,_ZN3s216vectorINSt7__cxx1112basic_stringIcSt11char_traitsIcESaIcEEEE6assignIPS6_EEvT_SA_
FN:370,_ZN3s216vectorINSt7__cxx1112basic_stringIcSt11char_traitsIcESaIcEEEE6assignESt16initializer_listIS6_E
FN:376,_ZN3s216vectorINSt7__cxx1112basic_stringIcSt11char_traitsIcESaIcEEEE8CopyListESt16initializer_listIS6_E
FN:376,_ZN3s216vectorIiE8CopyListESt16initializer_listIiE
FN:390,_ZNK3s216vectorINSt7__cxx1112basic_stringIcSt11char_traitsIcESaIcEEEE16ComparisonVectorERS7_
FN:404,_ZN3s216vectorINSt7__cxx1112basic_stringIcSt11char_traitsIcESaIcEEEE13shrink_to_fitEv
FN:411,_ZN3s216vectorINSt7__cxx1112basic_stringIcSt11char_traitsIcESaIcEEEE7reserveEm
FN:418,_ZN3s216vectorINSt7__cxx1112basic_stringIcSt11char_traitsIcESaIcEEEE9push_backERKS6_
FN:424,_ZN3s216vectorINSt7__cxx1112basic_stringIcSt11char_traitsIcESaIcEEEE9push_backEOS6_
FN:430,_ZNK3s216vectorIiE5emptyEv
FN:430,_ZNK3s216vectorINSt7__cxx1112basic_stringIcSt11char_traitsIcESaIcEEEE5emptyEv
FN:435,_ZN3s216vectorINSt7__cxx1112basic_stringIcSt11char_traitsIcESaIcEEEEixEm
FN:435,_ZN3s216vectorIiEixEm
FN:440,_ZNK3s216vectorIiEixEm
FN:446,_ZN3s216vectorINSt7__cxx1112basic_stringIcSt11char_traitsIcESaIcEEEE3endEv
FN:451,_ZNK3s216vectorINSt7__cxx1112basic_stringIcSt11char_traitsIcESaIcEEEE3endEv
FN:456,_ZNK3s216vectorINSt7__cxx1112basic_stringIcSt11char_traitsIcESaIcEEEE4cendEv
FN:461,_ZN3s216vectorINSt7__cxx1112basic_stringIcSt11char_traitsIcESaIcEEEE5beginEv
FN:461,_ZN3s216vectorIiE5beginEv
FN:466,_ZNK3s216vectorIiE5beginEv
FN:471,_ZNK3s216vectorINSt7__cxx1112basic_stringIcSt11char_traitsIcESaIcEEEE6cbeginEv
FN:471,_ZNK3s216vectorIiE6cbeginEv
FN:476,_ZN3s216vectorINSt7__cxx1112basic_stringIcSt11char_traitsIcESaIcEEEE7CopyPtrERKS7_
FN:476,_ZN3s216vectorIiE7CopyPtrERKS1_
FN:490,_ZN3s216vectorIiEC2ERKS1_
FN:490,_ZN3s216vectorINSt7__cxx1112basic_stringIcSt11char_traitsIcESaIcEEEEC2ERKS7_
FN:495,_ZN3s216vectorINSt7__cxx1112basic_stringIcSt11char_traitsIcESaIcEEEEC2EOS7_
FN:500,_ZN3s216vectorINSt7__cxx1112basic_stringIcSt11char_traitsIcESaIcEEEED2Ev
FN:500,_ZN3s216vectorIiED2Ev
FN:505,_ZNK3s216vectorINSt7__cxx1112basic_stringIcSt11char_traitsIcESaIcEEEE4sizeEv
FN:505,_ZNK3s216vectorIiE4sizeEv
FN:515,_ZNK3s216vectorIiE8capacityEv
FN:515,_ZNK3s216vectorINSt7__cxx1112basic_stringIcSt11char_traitsIcESaIcEEEE8capacityEv
FN:520,_ZN3s216vectorINSt7__cxx1112basic_stringIcSt11char_traitsIcESaIcEEEEC2Ev
FN:527,_ZN3s216vectorINSt7__cxx1112basic_stringIcSt11char_traitsIcESaIcEEEEC2Em
FN:527,_ZN3s216vectorIiEC2Em
FN:533,_ZN3s216vectorINSt7__cxx1112basic_stringIcSt11char_traitsIcESaIcEEEEC2EmS6_
FN:546,_ZN3s216vectorIiEC2ESt16initializer_listIiE
FN:546,_ZN3s216vectorINSt7__cxx1112basic_stringIcSt11char_traitsIcESaIcEEEEC2ESt16initializer_listIS6_E
FNDA:15,_ZN3s216vectorINSt7__cxx1112basic_stringIcSt11char_traitsIcESaIcEEEE4backEv
FNDA:25,_ZN3s216vectorIiE10FreeMemoryEv
FNDA:12,_ZN3s216vectorINSt7__cxx1112basic_stringIcSt11char_traitsIcESaIcEEEE3endEv
FNDA:2,_ZNK3s216vectorIiE4backEv
FNDA:1,_ZN3s216vectorINSt7__cxx1112basic_stringIcSt11char_traitsIcESaIcEEEE9push_backEOS6_
FNDA:9,_ZN3s216vectorINSt7__cxx1112basic_stringIcSt11char_traitsIcESaIcEEEE14ArgumentParserEm
FNDA:7,_ZNK3s216vectorINSt7__cxx1112basic_stringIcSt11char_traitsIcESaIcEEEEltERS7_
FNDA:1,_ZN3s216vectorINSt7__cxx1112basic_stringIcSt11char_traitsIcESaIcEEEE13shrink_to_fitEv
FNDA:7,_ZNK3s216vectorINSt7__cxx1112basic_stringIcSt11char_traitsIcESaIcEEEEgtERS7_
FNDA:1,_ZN3s216vectorINSt7__cxx1112basic_stringIcSt11char_traitsIcESaIcEEEE14ArgumentParserIJPKcSA_SA_SA_SA_EEEvmOS6_DpT_
FNDA:6,_ZNK3s216vectorINSt7__cxx1112basic_stringIcSt11char_traitsIcESaIcEEEE5emptyEv
FNDA:1,_ZNK3s216vectorIiE5beginEv
FNDA:1,_ZN3s216vectorINSt7__cxx1112basic_stringIcSt11char_traitsIcESaIcEEEE6resizeEm
FNDA:89,_ZN3s216vectorINSt7__cxx1112basic_stringIcSt11char_traitsIcESaIcEEEED2Ev
FNDA:5,_ZN3s216vectorINSt7__cxx1112basic_stringIcSt11char_traitsIcESaIcEEEE7CopyPtrERKS7_
FNDA:11,_ZNK3s216vectorINSt7__cxx1112basic_stringIcSt11char_traitsIcESaIcEEEEeqERS7_
FNDA:5,_ZN3s216vectorINSt7__cxx1112basic_stringIcSt11char_traitsIcESaIcEEEEC2IPS6_EET_SA_
FNDA:1,_ZN3s216vectorINSt7__cxx1112basic_stringIcSt11char_traitsIcESaIcEEEE12emplace_backIJRA2_KcSB_SB_EEEvDpOT_
FNDA:3,_ZN3s216vectorINSt7__cxx1112basic_stringIcSt11char_traitsIcESaIcEEEE9pop_frontEv
FNDA:1,_ZN3s216vectorINSt7__cxx1112basic_stringIcSt11char_traitsIcESaIcEEEE14ArgumentParserIJPKcSA_SA_SA_EEEvmOS6_DpT_
FNDA:1,_ZN3s216vectorINSt7__cxx1112basic_stringIcSt11char_traitsIcESaIcEEEE14ArgumentParserIJPKcSA_SA_SA_SA_SA_EEEvmOS6_DpT_
FNDA:2,_ZNK3s216vectorIiE5emptyEv
FNDA:3,_ZN3s216vectorINSt7__cxx1112basic_stringIcSt11char_traitsIcESaIcEEEE7emplaceIJRA2_KcSB_SB_EEEPS6_SC_DpOT_
FNDA:36,_ZN3s216vectorINSt7__cxx1112basic_stringIcSt11char_traitsIcESaIcEEEE4swapERS7_
FNDA:6,_ZN3s216vectorINSt7__cxx1112basic_stringIcSt11char_traitsIcESaIcEEEEC2EOS7_
FNDA:1,_ZN3s216vectorINSt7__cxx1112basic_stringIcSt11char_traitsIcESaIcEEEE12emplace_backIJRA5_KcEEEvDpOT_
FNDA:1,_ZN3s216vectorINSt7__cxx1112basic_stringIcSt11char_traitsIcESaIcEEEE7reserveEm
FNDA:5,_ZN3s216vectorINSt7__cxx1112basic_stringIcSt11char_traitsIcESaIcEEEEC2ERKS7_
FNDA:1,_ZN3s216vectorINSt7__cxx1112basic_stringIcSt11char_traitsIcESaIcEEEEC2IN9__gnu_cxx17__normal_iteratorIPS6_St6vectorIS6_SaIS6_EEEEEET_SG_
FNDA:3,_ZNK3s216vectorIiEixEm
FNDA:29,_ZN3s216vectorINSt7__cxx1112basic_stringIcSt11char_traitsIcESaIcEEEE5beginEv
FNDA:1,_ZN3s216vectorIiEC2ERKS1_
FNDA:2,_ZN3s216vectorIiE5frontEv
FNDA:1,_ZNK3s216vectorINSt7__cxx1112basic_stringIcSt11char_traitsIcESaIcEEEE5frontEv
FNDA:4,_ZN3s216vectorINSt7__cxx1112basic_stringIcSt11char_traitsIcESaIcEEEE8pop_backEv
FNDA:1,_ZN3s216vectorINSt7__cxx1112basic_stringIcSt11char_traitsIcESaIcEEEE6resizeEmRKS6_
FNDA:2,_ZNK3s216vectorIiE5frontEv
FNDA:2,_ZNK3s216vectorIiE4dataEv
FNDA:1,_ZN3s216vectorINSt7__cxx1112basic_stringIcSt11char_traitsIcESaIcEEEE6insertIPS6_EEvPKS6_T_SC_
FNDA:1,_ZN3s216vectorINSt7__cxx1112basic_stringIcSt11char_traitsIcESaIcEEEE6assignIPS6_EEvT_SA_
FNDA:16,_ZN3s216vectorINSt7__cxx1112basic_stringIcSt11char_traitsIcESaIcEEEE14ChangeCapacityEm
FNDA:48,_ZN3s216vectorINSt7__cxx1112basic_stringIcSt11char_traitsIcESaIcEEEEC2ESt16initializer_listIS6_E
FNDA:1,_ZN3s216vectorIiE5clearEv
FNDA:7,_ZN3s216vectorINSt7__cxx1112basic_stringIcSt11char_traitsIcESaIcEEEE14ArgumentParserIJPKcSA_EEEvmOS6_DpT_
FNDA:4,_ZN3s216vectorINSt7__cxx1112basic_stringIcSt11char_traitsIcESaIcEEEEaSERKS7_
FNDA:1,_ZN3s216vectorINSt7__cxx1112basic_stringIcSt11char_traitsIcESaIcEEEE5eraseEPKS6_S9_
FNDA:1,_ZNK3s216vectorINSt7__cxx1112basic_stringIcSt11char_traitsIcESaIcEEEE4cendEv
FNDA:3,_ZN3s216vectorINSt7__cxx1112basic_stringIcSt11char_traitsIcESaIcEEEE5frontEv
FNDA:11,_ZNK3s216vectorINSt7__cxx1112basic_stringIcSt11char_traitsIcESaIcEEEE6cbeginEv
FNDA:1,_ZN3s216vectorINSt7__cxx1112basic_stringIcSt11char_traitsIcESaIcEEEE6insertEPKS6_mRS8_
FNDA:2,_ZN3s216vectorIiE4backEv
FNDA:12,_ZN3s216vectorINSt7__cxx1112basic_stringIcSt11char_traitsIcESaIcEEEEaSEOS7_
FNDA:7,_ZN3s216vectorIiEixEm
FNDA:1,_ZNK3s216vectorIiE8capacityEv
FNDA:2,_ZN3s216vectorINSt7__cxx1112basic_stringIcSt11char_traitsIcESaIcEEEE6assignEmS6_
FNDA:1,_ZN3s216vectorINSt7__cxx1112basic_stringIcSt11char_traitsIcESaIcEEEE14ArgumentParserIJPKcSA_SA_EEEvmOS6_DpT_
FNDA:8,_ZN3s216vectorINSt7__cxx1112basic_stringIcSt11char_traitsIcESaIcEEEE9push_backERKS6_
FNDA:2,_ZN3s216vectorINSt7__cxx1112basic_stringIcSt11char_traitsIcESaIcEEEE6assignESt16initializer_listIS6_E
FNDA:14,_ZN3s216vectorINSt7__cxx1112basic_stringIcSt11char_traitsIcESaIcEEEEixEm
FNDA:10,_ZN3s216vectorINSt7__cxx1112basic_stringIcSt11char_traitsIcESaIcEEEEC2Em
FNDA:1,_ZNK3s216vectorIiE2atEm
FNDA:3,_ZN3s216vectorIiE5eraseEPKi
FNDA:23,_ZN3s216vectorIiEC2ESt16initializer_listIiE
FNDA:1,_ZN3s216vectorINSt7__cxx1112basic_stringIcSt11char_traitsIcESaIcEEEE6insertEPKS6_St16initializer_listIS6_E
FNDA:7,_ZN3s216vectorINSt7__cxx1112basic_stringIcSt11char_traitsIcESaIcEEEE14ArgumentParserIJPKcEEEvmOS6_DpT_
FNDA:4,_ZN3s216vectorINSt7__cxx1112basic_stringIcSt11char_traitsIcESaIcEEEE5clearEv
FNDA:1,_ZN3s216vectorIiEC2Em
FNDA:1,_ZNK3s216vectorINSt7__cxx1112basic_stringIcSt11char_traitsIcESaIcEEEE3endEv
FNDA:1,_ZN3s216vectorINSt7__cxx1112basic_stringIcSt11char_traitsIcESaIcEEEE7emplaceIJRA2_KcSB_SB_RA3_S9_SD_SD_RA4_S9_EEEPS6_SG_DpOT_
FNDA:25,_ZN3s216vectorIiED2Ev
FNDA:1,_ZN3s216vectorINSt7__cxx1112basic_stringIcSt11char_traitsIcESaIcEEEE7emplaceIJRA2_KcRA3_S9_SD_EEEPS6_SE_DpOT_
FNDA:4,_ZNK3s216vectorIiE6cbeginEv
FNDA:1,_ZN3s216vectorIiE4swapERS1_
FNDA:7,_ZNK3s216vectorIiE4sizeEv
FNDA:1,_ZN3s216vectorIiE7CopyPtrERKS1_
FNDA:7,_ZNK3s216vectorINSt7__cxx1112basic_stringIcSt11char_traitsIcESaIcEEEEleERS7_
FNDA:7,_ZNK3s216vectorINSt7__cxx1112basic_stringIcSt11char_traitsIcESaIcEEEEneERS7_
FNDA:136,_ZNK3s216vectorINSt7__cxx1112basic_stringIcSt11char_traitsIcESaIcEEEE4sizeEv
FNDA:89,_ZN3s216vectorINSt7__cxx1112basic_stringIcSt11char_traitsIcESaIcEEEE10FreeMemoryEv
FNDA:2,_ZNK3s216vectorINSt7__cxx1112basic_stringIcSt11char_traitsIcESaIcEEEE4backEv
FNDA:2,_ZN3s216vectorINSt7__cxx1112basic_stringIcSt11char_traitsIcESaIcEEEE6insertEPKS6_RS8_
FNDA:1,_ZN3s216vectorINSt7__cxx1112basic_stringIcSt11char_traitsIcESaIcEEEE13emplace_frontIJRA2_KcSB_SB_EEEvDpOT_
FNDA:9,_ZN3s216vectorINSt7__cxx1112basic_stringIcSt11char_traitsIcESaIcEEEE14ArgumentParserIJEEEvmOS6_DpT_
FNDA:2,_ZN3s216vectorIiE2atEm
FNDA:2,_ZN3s216vectorIiE5beginEv
FNDA:18,_ZN3s216vectorINSt7__cxx1112basic_stringIcSt11char_traitsIcESaIcEEEEC2Ev
FNDA:13,_ZNK3s216vectorINSt7__cxx1112basic_stringIcSt11char_traitsIcESaIcEEEE8capacityEv
FNDA:8,_ZN3s216vectorINSt7__cxx1112basic_stringIcSt11char_traitsIcESaIcEEEEC2EmS6_
FNDA:23,_ZN3s216vectorIiE8CopyListESt16initializer_listIiE
FNDA:5,_ZN3s216vectorINSt7__cxx1112basic_stringIcSt11char_traitsIcESaIcEEEE5eraseEPKS6_
FNDA:50,_ZNK3s216vectorINSt7__cxx1112basic_stringIcSt11char_traitsIcESaIcEEEE16ComparisonVectorERS7_
FNDA:2,_ZN3s216vectorIiE4dataEv
FNDA:1,_ZN3s216vectorINSt7__cxx1112basic_stringIcSt11char_traitsIcESaIcEEEE13emplace_frontIJRA5_KcEEEvDpOT_
FNDA:7,_ZNK3s216vectorINSt7__cxx1112basic_stringIcSt11char_traitsIcESaIcEEEEgeERS7_
FNDA:48,_ZN3s216vectorINSt7__cxx1112basic_stringIcSt11char_traitsIcESaIcEEEE8CopyListESt16initializer_listIS6_E
FNF:95
FNH:95
DA:41,7
DA:42,7
DA:43,11
DA:44,7
DA:45,7
DA:46,7
DA:48,7
DA:49,7
DA:99,9
DA:109,2
DA:110,2
DA:114,2
DA:115,2
DA:119,16
DA:120,16
DA:121,328
DA:123,43
DA:124,0
DA:125,0
DA:126,0
DA:128,43
DA:129,15
DA:130,15
DA:131,1
DA:132,1
DA:134,1
DA:135,0
DA:136,0
DA:137,0
DA:139,4
DA:140,1
DA:141,1
DA:143,16
DA:146,114
DA:147,643
DA:148,114
DA:149,114
DA:150,114
DA:154,2
DA:155,2
DA:156,2
DA:160,2
DA:161,2
DA:162,2
DA:165,4
DA:166,4
DA:167,4
DA:168,4
DA:169,4
DA:170,4
DA:174,12
DA:175,12
DA:176,12
DA:180,3
DA:181,3
DA:182,3
DA:183,3
DA:184,3
DA:185,3
DA:196,6
DA:197,6
DA:198,20
DA:199,6
DA:200,6
DA:204,27
DA:206,27
DA:207,46
DA:208,27
DA:209,27
DA:210,27
DA:211,27
DA:215,5
DA:217,5
DA:218,5
DA:219,5
DA:223,1
DA:225,1
DA:226,1
DA:227,1
DA:228,1
DA:229,0
DA:230,1
DA:234,8
DA:235,8
DA:236,8
DA:237,41
DA:238,8
DA:242,1
DA:243,1
DA:244,1
DA:245,1
DA:246,1
DA:247,1
DA:250,1
DA:251,1
DA:252,1
DA:253,1
DA:256,5
DA:257,5
DA:258,5
DA:261,1
DA:263,1
DA:264,1
DA:265,1
DA:266,1
DA:267,1
DA:268,4
DA:269,1
DA:270,0
DA:271,1
DA:272,1
DA:276,1
DA:278,1
DA:279,1
DA:280,1
DA:281,1
DA:282,14
DA:283,1
DA:284,0
DA:285,1
DA:286,1
DA:289,1
DA:291,1
DA:292,1
DA:293,5
DA:294,9
DA:295,2
DA:296,1
DA:297,1
DA:298,1
DA:301,2
DA:303,2
DA:304,2
DA:305,2
DA:306,5
DA:307,3
DA:308,2
DA:309,2
DA:313,4
DA:314,4
DA:315,4
DA:318,5
DA:319,5
DA:323,3
DA:324,3
DA:328,17
DA:329,17
DA:333,4
DA:334,4
DA:338,2
DA:339,2
DA:340,1
DA:344,1
DA:345,1
DA:346,1
DA:350,37
DA:351,37
DA:352,37
DA:353,37
DA:354,37
DA:357,2
DA:358,2
DA:359,2
DA:360,2
DA:364,1
DA:365,1
DA:366,1
DA:367,1
DA:370,2
DA:371,2
DA:372,2
DA:373,2
DA:376,71
DA:377,236
DA:379,71
DA:380,311
DA:381,0
DA:382,0
DA:383,0
DA:384,0
DA:386,71
DA:387,71
DA:390,50
DA:391,50
DA:392,50
DA:393,221
DA:394,179
DA:395,8
DA:396,8
DA:399,50
DA:400,50
DA:404,1
DA:405,1
DA:406,1
DA:408,1
DA:411,1
DA:412,1
DA:413,1
DA:415,1
DA:418,8
DA:419,8
DA:420,8
DA:421,8
DA:424,1
DA:425,1
DA:426,1
DA:427,1
DA:430,8
DA:431,8
DA:435,21
DA:436,21
DA:440,3
DA:442,3
DA:446,12
DA:447,12
DA:451,1
DA:452,1
DA:456,1
DA:457,1
DA:461,31
DA:462,31
DA:466,1
DA:467,1
DA:471,15
DA:472,15
DA:476,6
DA:477,18
DA:479,141
DA:480,0
DA:481,0
DA:482,0
DA:483,0
DA:485,6
DA:486,6
DA:487,6
DA:490,6
DA:491,6
DA:492,6
DA:495,6
DA:496,6
DA:497,6
DA:500,114
DA:501,114
DA:502,114
DA:505,143
DA:506,143
DA:515,14
DA:516,14
DA:520,18
DA:521,18
DA:522,18
DA:523,18
DA:524,18
DA:527,11
DA:528,57
DA:529,11
DA:530,11
DA:533,8
DA:534,32
DA:536,32
DA:537,0
DA:538,0
DA:539,0
DA:540,0
DA:542,8
DA:543,8
DA:546,71
DA:547,71
DA:548,71
LF:269
LH:248
end_of_record
TN:
SF:/usr/include/c++/11/bits/alloc_traits.h
FN:463,_ZNSt16allocator_traitsISaISt4pairIN3s2115IteratorGeneralIS0_IKiNSt7__cxx1112basic_stringIcSt11char_traitsIcESaIcEEEENS1_10My_CompareISA_St4lessIiEEEEEbEEE8allocateERSH_m
FN:463,_ZNSt16allocator_traitsISaISt4pairIN3s2115IteratorGeneralIiSt7greaterIiEEEbEEE8allocateERS7_m
FN:463,_ZNSt16allocator_traitsISaINSt7__cxx1112basic_stringIcSt11char_traitsIcESaIcEEEEE8allocateERS6_m
FN:463,_ZNSt16allocator_traitsISaISt13_Rb_tree_nodeIiEEE8allocateERS2_m
FN:463,_ZNSt16allocator_traitsISaISt4pairIN3s2115IteratorGeneralINSt7__cxx1112basic_stringIcSt11char_traitsIcESaIcEEESt4lessIS8_EEEbEEE8allocateERSD_m
FN:463,_ZNSt16allocator_traitsISaISt13_Rb_tree_nodeISt4pairIKiiEEEE8allocateERS5_m
FN:463,_ZNSt16allocator_traitsISaISt13_Rb_tree_nodeINSt7__cxx1112basic_stringIcSt11char_traitsIcESaIcEEEEEE8allocateERS8_m
FN:463,_ZNSt16allocator_traitsISaISt13_Rb_tree_nodeISt4pairIKiNSt7__cxx1112basic_stringIcSt11char_traitsIcESaIcEEEEEEE8allocateERSB_m
FN:463,_ZNSt16allocator_traitsISaISt4pairIN3s2115IteratorGeneralIS0_IKiiENS1_10My_CompareIS4_St7greaterIiEEEEEbEEE8allocateERSB_m
FN:495,_ZNSt16allocator_traitsISaISt13_Rb_tree_nodeISt4pairIKiiEEEE10deallocateERS5_PS4_m
FN:495,_ZNSt16allocator_traitsISaINSt7__cxx1112basic_stringIcSt11char_traitsIcESaIcEEEEE10deallocateERS6_PS5_m
FN:495,_ZNSt16allocator_traitsISaISt13_Rb_tree_nodeIiEEE10deallocateERS2_PS1_m
FN:495,_ZNSt16allocator_traitsISaISt4pairIN3s2115IteratorGeneralIiSt7greaterIiEEEbEEE10deallocateERS7_PS6_m
FN:495,_ZNSt16allocator_traitsISaISt4pairIN3s2115IteratorGeneralIS0_IKiiENS1_10My_CompareIS4_St7greaterIiEEEEEbEEE10deallocateERSB_PSA_m
FN:495,_ZNSt16allocator_traitsISaISt4pairIN3s2115IteratorGeneralIS0_IKiNSt7__cxx1112basic_stringIcSt11char_traitsIcESaIcEEEENS1_10My_CompareISA_St4lessIiEEEEEbEEE10deallocateERSH_PSG_m
FN:495,_ZNSt16allocator_traitsISaISt13_Rb_tree_nodeINSt7__cxx1112basic_stringIcSt11char_traitsIcESaIcEEEEEE10deallocateERS8_PS7_m
FN:495,_ZNSt16allocator_traitsISaISt13_Rb_tree_nodeISt4pairIKiNSt7__cxx1112basic_stringIcSt11char_traitsIcESaIcEEEEEEE10deallocateERSB_PSA_m
FN:495,_ZNSt16allocator_traitsISaISt4pairIN3s2115IteratorGeneralINSt7__cxx1112basic_stringIcSt11char_traitsIcESaIcEEESt4lessIS8_EEEbEEE10deallocateERSD_PSC_m
FN:511,_ZNSt16allocator_traitsISaISt13_Rb_tree_nodeIiEEE9constructIiJRKiEEEvRS2_PT_DpOT0_
FN:511,_ZNSt16allocator_traitsISaISt4pairIN3s2115IteratorGeneralIS0_IKiiENS1_10My_CompareIS4_St7greaterIiEEEEEbEEE9constructISA_JSA_EEEvRSB_PT_DpOT0_
FN:511,_ZNSt16allocator_traitsISaISt4pairIN3s2115IteratorGeneralIS0_IKiNSt7__cxx1112basic_stringIcSt11char_traitsIcESaIcEEEENS1_10My_CompareISA_St4lessIiEEEEEbEEE9constructISG_JSG_EEEvRSH_PT_DpOT0_
FN:511,_ZNSt16allocator_traitsISaISt13_Rb_tree_nodeINSt7__cxx1112basic_stringIcSt11char_traitsIcESaIcEEEEEE9constructIS6_JRKS6_EEEvRS8_PT_DpOT0_
FN:511,_ZNSt16allocator_traitsISaISt13_Rb_tree_nodeISt4pairIKiiEEEE9constructIS3_JRKS3_EEEvRS5_PT_DpOT0_
FN:511,_ZNSt16allocator_traitsISaISt4pairIN3s2115IteratorGeneralINSt7__cxx1112basic_stringIcSt11char_traitsIcESaIcEEESt4lessIS8_EEEbEEE9constructISC_JSC_EEEvRSD_PT_DpOT0_
FN:511,_ZNSt16allocator_traitsISaISt4pairIN3s2115IteratorGeneralIiSt7greaterIiEEEbEEE9constructIS6_JS6_EEEvRS7_PT_DpOT0_
FN:511,_ZNSt16allocator_traitsISaISt13_Rb_tree_nodeISt4pairIKiNSt7__cxx1112basic_stringIcSt11char_traitsIcESaIcEEEEEEE9constructIS9_JRKS9_EEEvRSB_PT_DpOT0_
FN:531,_ZNSt16allocator_traitsISaISt4pairIN3s2115IteratorGeneralIiSt7greaterIiEEEbEEE7destroyIS6_EEvRS7_PT_
FN:531,_ZNSt16allocator_traitsISaISt13_Rb_tree_nodeISt4pairIKiiEEEE7destroyIS3_EEvRS5_PT_
FN:531,_ZNSt16allocator_traitsISaISt4pairIN3s2115IteratorGeneralIS0_IKiiENS1_10My_CompareIS4_St7greaterIiEEEEEbEEE7destroyISA_EEvRSB_PT_
FN:531,_ZNSt16allocator_traitsISaISt13_Rb_tree_nodeIiEEE7destroyIiEEvRS2_PT_
FN:531,_ZNSt16allocator_traitsISaISt13_Rb_tree_nodeINSt7__cxx1112basic_stringIcSt11char_traitsIcESaIcEEEEEE7destroyIS6_EEvRS8_PT_
FN:531,_ZNSt16allocator_traitsISaISt4pairIN3s2115IteratorGeneralINSt7__cxx1112basic_stringIcSt11char_traitsIcESaIcEEESt4lessIS8_EEEbEEE7destroyISC_EEvRSD_PT_
FN:531,_ZNSt16allocator_traitsISaISt13_Rb_tree_nodeISt4pairIKiNSt7__cxx1112basic_stringIcSt11char_traitsIcESaIcEEEEEEE7destroyIS9_EEvRSB_PT_
FN:531,_ZNSt16allocator_traitsISaISt4pairIN3s2115IteratorGeneralIS0_IKiNSt7__cxx1112basic_stringIcSt11char_traitsIcESaIcEEEENS1_10My_CompareISA_St4lessIiEEEEEbEEE7destroyISG_EEvRSH_PT_
FN:547,_ZNSt16allocator_traitsISaISt4pairIN3s2115IteratorGeneralIiSt7greaterIiEEEbEEE8max_sizeERKS7_
FN:547,_ZNSt16allocator_traitsISaINSt7__cxx1112basic_stringIcSt11char_traitsIcESaIcEEEEE8max_sizeERKS6_
FN:547,_ZNSt16allocator_traitsISaISt4pairIN3s2115IteratorGeneralINSt7__cxx1112basic_stringIcSt11char_traitsIcESaIcEEESt4lessIS8_EEEbEEE8max_sizeERKSD_
FN:547,_ZNSt16allocator_traitsISaISt4pairIN3s2115IteratorGeneralIS0_IKiNSt7__cxx1112basic_stringIcSt11char_traitsIcESaIcEEEENS1_10My_CompareISA_St4lessIiEEEEEbEEE8max_sizeERKSH_
FN:547,_ZNSt16allocator_traitsISaISt4pairIN3s2115IteratorGeneralIS0_IKiiENS1_10My_CompareIS4_St7greaterIiEEEEEbEEE8max_sizeERKSB_
FN:562,_ZNSt16allocator_traitsISaISt13_Rb_tree_nodeIiEEE37select_on_container_copy_constructionERKS2_
FN:562,_ZNSt16allocator_traitsISaISt13_Rb_tree_nodeISt4pairIKiiEEEE37select_on_container_copy_constructionERKS5_
FN:562,_ZNSt16allocator_traitsISaISt13_Rb_tree_nodeINSt7__cxx1112basic_stringIcSt11char_traitsIcESaIcEEEEEE37select_on_container_copy_constructionERKS8_
FN:562,_ZNSt16allocator_traitsISaISt13_Rb_tree_nodeISt4pairIKiNSt7__cxx1112basic_stringIcSt11char_traitsIcESaIcEEEEEEE37select_on_container_copy_constructionERKSB_
FN:562,_ZNSt16allocator_traitsISaIcEE37select_on_container_copy_constructionERKS0_
FN:845,_ZSt8_DestroyIPNSt7__cxx1112basic_stringIcSt11char_traitsIcESaIcEEES5_EvT_S7_RSaIT0_E
FN:845,_ZSt8_DestroyIPSt4pairIN3s2115IteratorGeneralIS0_IKiiENS1_10My_CompareIS4_St7greaterIiEEEEEbESA_EvT_SC_RSaIT0_E
FN:845,_ZSt8_DestroyIPSt4pairIN3s2115IteratorGeneralINSt7__cxx1112basic_stringIcSt11char_traitsIcESaIcEEESt4lessIS8_EEEbESC_EvT_SE_RSaIT0_E
FN:845,_ZSt8_DestroyIPSt4pairIN3s2115IteratorGeneralIiSt7greaterIiEEEbES6_EvT_S8_RSaIT0_E
FN:845,_ZSt8_DestroyIPSt4pairIN3s2115IteratorGeneralIS0_IKiNSt7__cxx1112basic_stringIcSt11char_traitsIcESaIcEEEENS1_10My_CompareISA_St4lessIiEEEEEbESG_EvT_SI_RSaIT0_E
FNDA:16,_ZNSt16allocator_traitsISaISt13_Rb_tree_nodeISt4pairIKiNSt7__cxx1112basic_stringIcSt11char_traitsIcESaIcEEEEEEE37select_on_container_copy_constructionERKSB_
FNDA:15,_ZNSt16allocator_traitsISaISt4pairIN3s2115IteratorGeneralIS0_IKiNSt7__cxx1112basic_stringIcSt11char_traitsIcESaIcEEEENS1_10My_CompareISA_St4lessIiEEEEEbEEE10deallocateERSH_PSG_m
FNDA:136,_ZNSt16allocator_traitsISaISt13_Rb_tree_nodeISt4pairIKiNSt7__cxx1112basic_stringIcSt11char_traitsIcESaIcEEEEEEE7destroyIS9_EEvRSB_PT_
FNDA:15,_ZNSt16allocator_traitsISaISt4pairIN3s2115IteratorGeneralIS0_IKiNSt7__cxx1112basic_stringIcSt11char_traitsIcESaIcEEEENS1_10My_CompareISA_St4lessIiEEEEEbEEE7destroyISG_EEvRSH_PT_
FNDA:0,_ZNSt16allocator_traitsISaIcEE37select_on_container_copy_constructionERKS0_
FNDA:61,_ZNSt16allocator_traitsISaISt13_Rb_tree_nodeINSt7__cxx1112basic_stringIcSt11char_traitsIcESaIcEEEEEE10deallocateERS8_PS7_m
FNDA:136,_ZNSt16allocator_traitsISaISt13_Rb_tree_nodeISt4pairIKiNSt7__cxx1112basic_stringIcSt11char_traitsIcESaIcEEEEEEE10deallocateERSB_PSA_m
FNDA:32,_ZNSt16allocator_traitsISaISt4pairIN3s2115IteratorGeneralINSt7__cxx1112basic_stringIcSt11char_traitsIcESaIcEEESt4lessIS8_EEEbEEE10deallocateERSD_PSC_m
FNDA:12,_ZNSt16allocator_traitsISaISt4pairIN3s2115IteratorGeneralIiSt7greaterIiEEEbEEE9constructIS6_JS6_EEEvRS7_PT_DpOT0_
FNDA:61,_ZNSt16allocator_traitsISaISt13_Rb_tree_nodeINSt7__cxx1112basic_stringIcSt11char_traitsIcESaIcEEEEEE7destroyIS6_EEvRS8_PT_
FNDA:38,_ZNSt16allocator_traitsISaISt4pairIN3s2115IteratorGeneralINSt7__cxx1112basic_stringIcSt11char_traitsIcESaIcEEESt4lessIS8_EEEbEEE7destroyISC_EEvRSD_PT_
FNDA:20,_ZNSt16allocator_traitsISaISt13_Rb_tree_nodeIiEEE10deallocateERS2_PS1_m
FNDA:7,_ZNSt16allocator_traitsISaISt13_Rb_tree_nodeINSt7__cxx1112basic_stringIcSt11char_traitsIcESaIcEEEEEE37select_on_container_copy_constructionERKS8_
FNDA:6,_ZNSt16allocator_traitsISaISt4pairIN3s2115IteratorGeneralIiSt7greaterIiEEEbEEE10deallocateERS7_PS6_m
FNDA:136,_ZNSt16allocator_traitsISaISt13_Rb_tree_nodeISt4pairIKiNSt7__cxx1112basic_stringIcSt11char_traitsIcESaIcEEEEEEE9constructIS9_JRKS9_EEEvRSB_PT_DpOT0_
FNDA:3,_ZNSt16allocator_traitsISaISt4pairIN3s2115IteratorGeneralIS0_IKiiENS1_10My_CompareIS4_St7greaterIiEEEEEbEEE10deallocateERSB_PSA_m
FNDA:64,_ZNSt16allocator_traitsISaISt4pairIN3s2115IteratorGeneralINSt7__cxx1112basic_stringIcSt11char_traitsIcESaIcEEESt4lessIS8_EEEbEEE8max_sizeERKSD_
FNDA:33,_ZNSt16allocator_traitsISaINSt7__cxx1112basic_stringIcSt11char_traitsIcESaIcEEEEE10deallocateERS6_PS5_m
FNDA:81,_ZNSt16allocator_traitsISaISt13_Rb_tree_nodeISt4pairIKiiEEEE9constructIS3_JRKS3_EEEvRS5_PT_DpOT0_
FNDA:136,_ZNSt16allocator_traitsISaISt13_Rb_tree_nodeISt4pairIKiNSt7__cxx1112basic_stringIcSt11char_traitsIcESaIcEEEEEEE8allocateERSB_m
FNDA:20,_ZNSt16allocator_traitsISaISt13_Rb_tree_nodeIiEEE7destroyIiEEvRS2_PT_
FNDA:10,_ZSt8_DestroyIPSt4pairIN3s2115IteratorGeneralINSt7__cxx1112basic_stringIcSt11char_traitsIcESaIcEEESt4lessIS8_EEEbESC_EvT_SE_RSaIT0_E
FNDA:2,_ZSt8_DestroyIPSt4pairIN3s2115IteratorGeneralIiSt7greaterIiEEEbES6_EvT_S8_RSaIT0_E
FNDA:3,_ZNSt16allocator_traitsISaISt4pairIN3s2115IteratorGeneralIS0_IKiiENS1_10My_CompareIS4_St7greaterIiEEEEEbEEE8allocateERSB_m
FNDA:30,_ZNSt16allocator_traitsISaISt4pairIN3s2115IteratorGeneralIS0_IKiNSt7__cxx1112basic_stringIcSt11char_traitsIcESaIcEEEENS1_10My_CompareISA_St4lessIiEEEEEbEEE8max_sizeERKSH_
FNDA:76,_ZNSt16allocator_traitsISaISt4pairIN3s2115IteratorGeneralINSt7__cxx1112basic_stringIcSt11char_traitsIcESaIcEEESt4lessIS8_EEEbEEE9constructISC_JSC_EEEvRSD_PT_DpOT0_
FNDA:6,_ZNSt16allocator_traitsISaISt4pairIN3s2115IteratorGeneralIS0_IKiiENS1_10My_CompareIS4_St7greaterIiEEEEEbEEE8max_sizeERKSB_
FNDA:5,_ZSt8_DestroyIPSt4pairIN3s2115IteratorGeneralIS0_IKiNSt7__cxx1112basic_stringIcSt11char_traitsIcESaIcEEEENS1_10My_CompareISA_St4lessIiEEEEEbESG_EvT_SI_RSaIT0_E
FNDA:3,_ZNSt16allocator_traitsISaISt4pairIN3s2115IteratorGeneralIS0_IKiiENS1_10My_CompareIS4_St7greaterIiEEEEEbEEE7destroyISA_EEvRSB_PT_
FNDA:53,_ZNSt16allocator_traitsISaINSt7__cxx1112basic_stringIcSt11char_traitsIcESaIcEEEEE8max_sizeERKS6_
FNDA:81,_ZNSt16allocator_traitsISaISt13_Rb_tree_nodeISt4pairIKiiEEEE8allocateERS5_m
FNDA:1,_ZSt8_DestroyIPSt4pairIN3s2115IteratorGeneralIS0_IKiiENS1_10My_CompareIS4_St7greaterIiEEEEEbESA_EvT_SC_RSaIT0_E
FNDA:61,_ZNSt16allocator_traitsISaISt13_Rb_tree_nodeINSt7__cxx1112basic_stringIcSt11char_traitsIcESaIcEEEEEE8allocateERS8_m
FNDA:81,_ZNSt16allocator_traitsISaISt13_Rb_tree_nodeISt4pairIKiiEEEE7destroyIS3_EEvRS5_PT_
FNDA:33,_ZNSt16allocator_traitsISaINSt7__cxx1112basic_stringIcSt11char_traitsIcESaIcEEEEE8allocateERS6_m
FNDA:8,_ZNSt16allocator_traitsISaISt13_Rb_tree_nodeISt4pairIKiiEEEE37select_on_container_copy_constructionERKS5_
FNDA:20,_ZNSt16allocator_traitsISaISt13_Rb_tree_nodeIiEEE8allocateERS2_m
FNDA:32,_ZNSt16allocator_traitsISaISt4pairIN3s2115IteratorGeneralINSt7__cxx1112basic_stringIcSt11char_traitsIcESaIcEEESt4lessIS8_EEEbEEE8allocateERSD_m
FNDA:6,_ZNSt16allocator_traitsISaISt4pairIN3s2115IteratorGeneralIiSt7greaterIiEEEbEEE8allocateERS7_m
FNDA:15,_ZNSt16allocator_traitsISaISt4pairIN3s2115IteratorGeneralIS0_IKiNSt7__cxx1112basic_stringIcSt11char_traitsIcESaIcEEEENS1_10My_CompareISA_St4lessIiEEEEEbEEE8allocateERSH_m
FNDA:61,_ZNSt16allocator_traitsISaISt13_Rb_tree_nodeINSt7__cxx1112basic_stringIcSt11char_traitsIcESaIcEEEEEE9constructIS6_JRKS6_EEEvRS8_PT_DpOT0_
FNDA:39,_ZSt8_DestroyIPNSt7__cxx1112basic_stringIcSt11char_traitsIcESaIcEEES5_EvT_S7_RSaIT0_E
FNDA:6,_ZNSt16allocator_traitsISaISt4pairIN3s2115IteratorGeneralIiSt7greaterIiEEEbEEE7destroyIS6_EEvRS7_PT_
FNDA:12,_ZNSt16allocator_traitsISaISt4pairIN3s2115IteratorGeneralIiSt7greaterIiEEEbEEE8max_sizeERKS7_
FNDA:1,_ZNSt16allocator_traitsISaISt13_Rb_tree_nodeIiEEE37select_on_container_copy_constructionERKS2_
FNDA:81,_ZNSt16allocator_traitsISaISt13_Rb_tree_nodeISt4pairIKiiEEEE10deallocateERS5_PS4_m
FNDA:20,_ZNSt16allocator_traitsISaISt13_Rb_tree_nodeIiEEE9constructIiJRKiEEEvRS2_PT_DpOT0_
FNDA:7,_ZNSt16allocator_traitsISaISt4pairIN3s2115IteratorGeneralIS0_IKiiENS1_10My_CompareIS4_St7greaterIiEEEEEbEEE9constructISA_JSA_EEEvRSB_PT_DpOT0_
FNDA:30,_ZNSt16allocator_traitsISaISt4pairIN3s2115IteratorGeneralIS0_IKiNSt7__cxx1112basic_stringIcSt11char_traitsIcESaIcEEEENS1_10My_CompareISA_St4lessIiEEEEEbEEE9constructISG_JSG_EEEvRSH_PT_DpOT0_
FNF:49
FNH:48
DA:463,387
DA:464,387
DA:495,387
DA:496,387
DA:511,423
DA:516,423
DA:520,423
DA:531,360
DA:535,360
DA:539,360
DA:547,165
DA:550,165
DA:562,32
DA:563,32
DA:845,57
DA:848,57
DA:849,57
LF:17
LH:17
end_of_record
TN:
SF:/usr/include/c++/11/bits/allocator.h
FN:156,_ZNSaISt4pairIN3s2115IteratorGeneralINSt7__cxx1112basic_stringIcSt11char_traitsIcESaIcEEESt4lessIS7_EEEbEEC2Ev
FN:156,_ZNSaISt4pairIKiiEEC2Ev
FN:156,_ZNSaISt4pairIN3s2115IteratorGeneralIS_IKiiENS0_10My_CompareIS3_St7greaterIiEEEEEbEEC2Ev
FN:156,_ZNSaISt4pairIN3s2115IteratorGeneralIS_IKiNSt7__cxx1112basic_stringIcSt11char_traitsIcESaIcEEEENS0_10My_CompareIS9_St4lessIiEEEEEbEEC2Ev
FN:156,_ZNSaISt4pairIKiNSt7__cxx1112basic_stringIcSt11char_traitsIcESaIcEEEEEC2Ev
FN:156,_ZNSaISt4pairIN3s2115IteratorGeneralIiSt7greaterIiEEEbEEC2Ev
FN:156,_ZNSaIiEC2Ev
FN:156,_ZNSaINSt7__cxx1112basic_stringIcSt11char_traitsIcESaIcEEEEC2Ev
FN:159,_ZNSaISt13_Rb_tree_nodeIiEEC2ERKS1_
FN:159,_ZNSaISt4pairIKiiEEC2ERKS2_
FN:159,_ZNSaIiEC2ERKS_
FN:159,_ZNSaISt13_Rb_tree_nodeINSt7__cxx1112basic_stringIcSt11char_traitsIcESaIcEEEEEC2ERKS7_
FN:159,_ZNSaISt4pairIKiNSt7__cxx1112basic_stringIcSt11char_traitsIcESaIcEEEEEC2ERKS8_
FN:159,_ZNSaINSt7__cxx1112basic_stringIcSt11char_traitsIcESaIcEEEEC2ERKS5_
FN:159,_ZNSaISt13_Rb_tree_nodeISt4pairIKiNSt7__cxx1112basic_stringIcSt11char_traitsIcESaIcEEEEEEC2ERKSA_
FN:159,_ZNSaISt13_Rb_tree_nodeISt4pairIKiiEEEC2ERKS4_
FN:169,_ZNSaISt13_Rb_tree_nodeIiEEC2IiEERKSaIT_E
FN:169,_ZNSaISt13_Rb_tree_nodeINSt7__cxx1112basic_stringIcSt11char_traitsIcESaIcEEEEEC2IS5_EERKSaIT_E
FN:169,_ZNSaISt13_Rb_tree_nodeISt4pairIKiiEEEC2IS2_EERKSaIT_E
FN:169,_ZNSaISt13_Rb_tree_nodeISt4pairIKiNSt7__cxx1112basic_stringIcSt11char_traitsIcESaIcEEEEEEC2IS8_EERKSaIT_E
FN:174,_ZNSaISt4pairIN3s2115IteratorGeneralIS_IKiNSt7__cxx1112basic_stringIcSt11char_traitsIcESaIcEEEENS0_10My_CompareIS9_St4lessIiEEEEEbEED2Ev
FN:174,_ZNSaISt13_Rb_tree_nodeIiEED2Ev
FN:174,_ZNSaISt4pairIKiiEED2Ev
FN:174,_ZNSaISt4pairIN3s2115IteratorGeneralINSt7__cxx1112basic_stringIcSt11char_traitsIcESaIcEEESt4lessIS7_EEEbEED2Ev
FN:174,_ZNSaISt13_Rb_tree_nodeINSt7__cxx1112basic_stringIcSt11char_traitsIcESaIcEEEEED2Ev
FN:174,_ZNSaISt4pairIN3s2115IteratorGeneralIiSt7greaterIiEEEbEED2Ev
FN:174,_ZNSaINSt7__cxx1112basic_stringIcSt11char_traitsIcESaIcEEEED2Ev
FN:174,_ZNSaISt4pairIKiNSt7__cxx1112basic_stringIcSt11char_traitsIcESaIcEEEEED2Ev
FN:174,_ZNSaIiED2Ev
FN:174,_ZNSaISt13_Rb_tree_nodeISt4pairIKiiEEED2Ev
FN:174,_ZNSaISt4pairIN3s2115IteratorGeneralIS_IKiiENS0_10My_CompareIS3_St7greaterIiEEEEEbEED2Ev
FN:174,_ZNSaISt13_Rb_tree_nodeISt4pairIKiNSt7__cxx1112basic_stringIcSt11char_traitsIcESaIcEEEEEED2Ev
FNDA:1,_ZNSaISt4pairIN3s2115IteratorGeneralIS_IKiiENS0_10My_CompareIS3_St7greaterIiEEEEEbEEC2Ev
FNDA:10,_ZNSaISt4pairIN3s2115IteratorGeneralINSt7__cxx1112basic_stringIcSt11char_traitsIcESaIcEEESt4lessIS7_EEEbEED2Ev
FNDA:21,_ZNSaISt13_Rb_tree_nodeINSt7__cxx1112basic_stringIcSt11char_traitsIcESaIcEEEEED2Ev
FNDA:17,_ZNSaISt13_Rb_tree_nodeINSt7__cxx1112basic_stringIcSt11char_traitsIcESaIcEEEEEC2ERKS7_
FNDA:2,_ZNSaISt4pairIN3s2115IteratorGeneralIiSt7greaterIiEEEbEED2Ev
FNDA:10,_ZNSaISt4pairIN3s2115IteratorGeneralINSt7__cxx1112basic_stringIcSt11char_traitsIcESaIcEEESt4lessIS7_EEEbEEC2Ev
FNDA:3,_ZNSaISt13_Rb_tree_nodeIiEEC2ERKS1_
FNDA:5,_ZNSaISt4pairIN3s2115IteratorGeneralIS_IKiNSt7__cxx1112basic_stringIcSt11char_traitsIcESaIcEEEENS0_10My_CompareIS9_St4lessIiEEEEEbEED2Ev
FNDA:1,_ZNSaISt4pairIKiiEEC2ERKS2_
FNDA:4,_ZNSaISt13_Rb_tree_nodeIiEED2Ev
FNDA:1,_ZNSaISt4pairIKiiEEC2Ev
FNDA:1,_ZNSaISt13_Rb_tree_nodeIiEEC2IiEERKSaIT_E
FNDA:2,_ZNSaISt4pairIKiiEED2Ev
FNDA:1,_ZNSaIiEC2ERKS_
FNDA:2,_ZNSaISt4pairIN3s2115IteratorGeneralIiSt7greaterIiEEEbEEC2Ev
FNDA:17,_ZNSaISt13_Rb_tree_nodeISt4pairIKiiEEEC2ERKS4_
FNDA:1,_ZNSaISt4pairIKiNSt7__cxx1112basic_stringIcSt11char_traitsIcESaIcEEEEEC2Ev
FNDA:1,_ZNSaISt4pairIN3s2115IteratorGeneralIS_IKiiENS0_10My_CompareIS3_St7greaterIiEEEEEbEED2Ev
FNDA:10,_ZNSaIiEC2Ev
FNDA:1,_ZNSaISt13_Rb_tree_nodeISt4pairIKiNSt7__cxx1112basic_stringIcSt11char_traitsIcESaIcEEEEEEC2IS8_EERKSaIT_E
FNDA:34,_ZNSaISt13_Rb_tree_nodeISt4pairIKiNSt7__cxx1112basic_stringIcSt11char_traitsIcESaIcEEEEEED2Ev
FNDA:39,_ZNSaINSt7__cxx1112basic_stringIcSt11char_traitsIcESaIcEEEEC2Ev
FNDA:2,_ZNSaISt4pairIKiNSt7__cxx1112basic_stringIcSt11char_traitsIcESaIcEEEEED2Ev
FNDA:50,_ZNSaINSt7__cxx1112basic_stringIcSt11char_traitsIcESaIcEEEED2Ev
FNDA:3,_ZNSaISt13_Rb_tree_nodeINSt7__cxx1112basic_stringIcSt11char_traitsIcESaIcEEEEEC2IS5_EERKSaIT_E
FNDA:11,_ZNSaIiED2Ev
FNDA:11,_ZNSaINSt7__cxx1112basic_stringIcSt11char_traitsIcESaIcEEEEC2ERKS5_
FNDA:1,_ZNSaISt4pairIKiNSt7__cxx1112basic_stringIcSt11char_traitsIcESaIcEEEEEC2ERKS8_
FNDA:5,_ZNSaISt4pairIN3s2115IteratorGeneralIS_IKiNSt7__cxx1112basic_stringIcSt11char_traitsIcESaIcEEEENS0_10My_CompareIS9_St4lessIiEEEEEbEEC2Ev
FNDA:18,_ZNSaISt13_Rb_tree_nodeISt4pairIKiiEEED2Ev
FNDA:1,_ZNSaISt13_Rb_tree_nodeISt4pairIKiiEEEC2IS2_EERKSaIT_E
FNDA:33,_ZNSaISt13_Rb_tree_nodeISt4pairIKiNSt7__cxx1112basic_stringIcSt11char_traitsIcESaIcEEEEEEC2ERKSA_
FNF:32
FNH:32
DA:156,69
DA:159,84
DA:160,84
DA:169,6
DA:174,160
LF:5
LH:5
end_of_record
TN:
SF:/usr/include/c++/11/bits/basic_string.h
FN:251,_ZNSt7__cxx1112basic_stringIcSt11char_traitsIcESaIcEE16_M_construct_auxIPcEEvT_S7_St12__false_type
FN:271,_ZNSt7__cxx1112basic_stringIcSt11char_traitsIcESaIcEE12_M_constructIPcEEvT_S7_
FN:533,_ZNSt7__cxx1112basic_stringIcSt11char_traitsIcESaIcEEC2IS3_EEPKcRKS3_
FN:6234,_ZSteqIcEN9__gnu_cxx11__enable_ifIXsrSt9__is_charIT_E7__valueEbE6__typeERKNSt7__cxx1112basic_stringIS3_St11char_traitsIS3_ESaIS3_EEESE_
FN:6248,_ZSteqIcSt11char_traitsIcESaIcEEbRKNSt7__cxx1112basic_stringIT_T0_T1_EEPKS5_
FN:6289,_ZSteqIcSt11char_traitsIcESaIcEEbPKT_RKNSt7__cxx1112basic_stringIS3_T0_T1_EE
FN:6302,_ZStneIcSt11char_traitsIcESaIcEEbRKNSt7__cxx1112basic_stringIT_T0_T1_EESA_
FN:6340,_ZStltIcSt11char_traitsIcESaIcEEbRKNSt7__cxx1112basic_stringIT_T0_T1_EESA_
FN:6378,_ZStgtIcSt11char_traitsIcESaIcEEbRKNSt7__cxx1112basic_stringIT_T0_T1_EESA_
FNDA:960,_ZStneIcSt11char_traitsIcESaIcEEbRKNSt7__cxx1112basic_stringIT_T0_T1_EESA_
FNDA:2429,_ZNSt7__cxx1112basic_stringIcSt11char_traitsIcESaIcEEC2IS3_EEPKcRKS3_
FNDA:0,_ZNSt7__cxx1112basic_stringIcSt11char_traitsIcESaIcEE12_M_constructIPcEEvT_S7_
FNDA:1517,_ZStltIcSt11char_traitsIcESaIcEEbRKNSt7__cxx1112basic_stringIT_T0_T1_EESA_
FNDA:1212,_ZSteqIcEN9__gnu_cxx11__enable_ifIXsrSt9__is_charIT_E7__valueEbE6__typeERKNSt7__cxx1112basic_stringIS3_St11char_traitsIS3_ESaIS3_EEESE_
FNDA:0,_ZNSt7__cxx1112basic_stringIcSt11char_traitsIcESaIcEE16_M_construct_auxIPcEEvT_S7_St12__false_type
FNDA:23,_ZSteqIcSt11char_traitsIcESaIcEEbRKNSt7__cxx1112basic_stringIT_T0_T1_EEPKS5_
FNDA:97,_ZStgtIcSt11char_traitsIcESaIcEEbRKNSt7__cxx1112basic_stringIT_T0_T1_EESA_
FNDA:275,_ZSteqIcSt11char_traitsIcESaIcEEbPKT_RKNSt7__cxx1112basic_stringIS3_T0_T1_EE
FNF:9
FNH:7
DA:251,0
DA:255,0
DA:256,0
DA:271,0
DA:274,0
DA:275,0
DA:533,2429
DA:534,2429
DA:536,2429
DA:539,2429
DA:540,2429
DA:6234,1212
DA:6236,1212
DA:6237,1212
DA:6238,1212
DA:6248,23
DA:6250,23
DA:6289,275
DA:6291,275
DA:6302,960
DA:6305,960
DA:6340,1517
DA:6343,1517
DA:6378,97
DA:6381,97
LF:25
LH:19
end_of_record
TN:
SF:/usr/include/c++/11/bits/basic_string.tcc
FN:206,_ZNSt7__cxx1112basic_stringIcSt11char_traitsIcESaIcEE12_M_constructIPKcEEvT_S8_St20forward_iterator_tag
FN:206,_ZNSt7__cxx1112basic_stringIcSt11char_traitsIcESaIcEE12_M_constructIPcEEvT_S7_St20forward_iterator_tag
FNDA:2449,_ZNSt7__cxx1112basic_stringIcSt11char_traitsIcESaIcEE12_M_constructIPKcEEvT_S8_St20forward_iterator_tag
FNDA:0,_ZNSt7__cxx1112basic_stringIcSt11char_traitsIcESaIcEE12_M_constructIPcEEvT_S7_St20forward_iterator_tag
FNF:2
FNH:1
DA:206,2449
DA:211,2449
DA:212,0
DA:215,2449
DA:217,2449
DA:219,331
DA:220,331
DA:225,2449
DA:226,0
DA:228,0
DA:229,0
DA:232,2449
DA:233,2449
LF:13
LH:9
end_of_record
TN:
SF:/usr/include/c++/11/bits/char_traits.h
FN:106,_ZN9__gnu_cxx11char_traitsIcE2eqERKcS3_
FN:167,_ZN9__gnu_cxx11char_traitsIcE6lengthEPKc
FN:364,_ZNSt11char_traitsIcE2ltERKcS2_
FN:372,_ZNSt11char_traitsIcE7compareEPKcS2_m
FN:393,_ZNSt11char_traitsIcE6lengthEPKc
FN:429,_ZNSt11char_traitsIcE4copyEPcPKcm
FNDA:0,_ZNSt11char_traitsIcE2ltERKcS2_
FNDA:0,_ZNSt11char_traitsIcE4copyEPcPKcm
FNDA:1212,_ZNSt11char_traitsIcE7compareEPKcS2_m
FNDA:0,_ZN9__gnu_cxx11char_traitsIcE6lengthEPKc
FNDA:2429,_ZNSt11char_traitsIcE6lengthEPKc
FNDA:0,_ZN9__gnu_cxx11char_traitsIcE2eqERKcS3_
FNF:6
FNH:2
DA:106,0
DA:107,0
DA:167,0
DA:170,0
DA:171,0
DA:172,0
DA:173,0
DA:290,2429
DA:364,0
DA:367,0
DA:368,0
DA:372,1212
DA:374,1212
DA:375,0
DA:377,1212
DA:379,1212
DA:381,0
DA:382,0
DA:383,0
DA:384,0
DA:385,0
DA:386,0
DA:389,1212
DA:393,2429
DA:396,2429
DA:397,0
DA:399,2429
DA:429,0
DA:431,0
DA:432,0
DA:437,0
LF:31
LH:9
end_of_record
TN:
SF:/usr/include/c++/11/bits/move.h
FN:49,_ZSt11__addressofISt4pairIN3s2115IteratorGeneralIiSt7greaterIiEEEbEEPT_RS7_
FN:49,_ZSt11__addressofISt4pairIN3s2115IteratorGeneralIS0_IKiiENS1_10My_CompareIS4_St7greaterIiEEEEEbEEPT_RSB_
FN:49,_ZSt11__addressofISt4pairIN3s2115IteratorGeneralIS0_IKiNSt7__cxx1112basic_stringIcSt11char_traitsIcESaIcEEEENS1_10My_CompareISA_St4lessIiEEEEEbEEPT_RSH_
FN:49,_ZSt11__addressofISt4pairIN3s2115IteratorGeneralINSt7__cxx1112basic_stringIcSt11char_traitsIcESaIcEEESt4lessIS8_EEEbEEPT_RSD_
FN:49,_ZSt11__addressofINSt7__cxx1112basic_stringIcSt11char_traitsIcESaIcEEEEPT_RS6_
FN:77,_ZSt7forwardIN3s2115IteratorGeneralIiSt4lessIiEEEEOT_RNSt16remove_referenceIS5_E4typeE
FN:77,_ZSt7forwardIN3s2115IteratorGeneralISt4pairIKiNSt7__cxx1112basic_stringIcSt11char_traitsIcESaIcEEEENS0_10My_CompareISA_St7greaterIiEEEEEEOT_RNSt16remove_referenceISG_E4typeE
FN:77,_ZSt7forwardIRKNSt7__cxx1112basic_stringIcSt11char_traitsIcESaIcEEEEOT_RNSt16remove_referenceIS8_E4typeE
FN:77,_ZSt7forwardIiEOT_RNSt16remove_referenceIS0_E4typeE
FN:77,_ZSt7forwardIN3s2115IteratorGeneralINSt7__cxx1112basic_stringIcSt11char_traitsIcESaIcEEESt4lessIS7_EEEEOT_RNSt16remove_referenceISB_E4typeE
FN:77,_ZSt7forwardINSt7__cxx1112basic_stringIcSt11char_traitsIcESaIcEEEEOT_RNSt16remove_referenceIS6_E4typeE
FN:77,_ZSt7forwardIRPSt13_Rb_tree_nodeISt4pairIKiiEEEOT_RNSt16remove_referenceIS7_E4typeE
FN:77,_ZSt7forwardIRA4_KcEOT_RNSt16remove_referenceIS3_E4typeE
FN:77,_ZSt7forwardIRPSt13_Rb_tree_nodeIiEEOT_RNSt16remove_referenceIS4_E4typeE
FN:77,_ZSt7forwardIRKiEOT_RNSt16remove_referenceIS2_E4typeE
FN:77,_ZSt7forwardISt4pairIN3s2115IteratorGeneralIS0_IKiiENS1_10My_CompareIS4_St7greaterIiEEEEEbEEOT_RNSt16remove_referenceISB_E4typeE
FN:77,_ZSt7forwardIRPSt13_Rb_tree_nodeISt4pairIKiNSt7__cxx1112basic_stringIcSt11char_traitsIcESaIcEEEEEEOT_RNSt16remove_referenceISD_E4typeE
FN:77,_ZSt7forwardIRKSt4pairIKiiEEOT_RNSt16remove_referenceIS5_E4typeE
FN:77,_ZSt7forwardIRbEOT_RNSt16remove_referenceIS1_E4typeE
FN:77,_ZSt7forwardIRPSt18_Rb_tree_node_baseEOT_RNSt16remove_referenceIS3_E4typeE
FN:77,_ZSt7forwardIRKSt4pairIKiNSt7__cxx1112basic_stringIcSt11char_traitsIcESaIcEEEEEOT_RNSt16remove_referenceISB_E4typeE
FN:77,_ZSt7forwardIN3s2115IteratorGeneralINSt7__cxx1112basic_stringIcSt11char_traitsIcESaIcEEESt7greaterIS7_EEEEOT_RNSt16remove_referenceISB_E4typeE
FN:77,_ZSt7forwardIPKcEOT_RNSt16remove_referenceIS2_E4typeE
FN:77,_ZSt7forwardIRA3_KcEOT_RNSt16remove_referenceIS3_E4typeE
FN:77,_ZSt7forwardIN3s2120IteratorGeneralConstIiSt4lessIiEEEEOT_RNSt16remove_referenceIS5_E4typeE
FN:77,_ZSt7forwardISt4pairIN3s2115IteratorGeneralIS0_IKiNSt7__cxx1112basic_stringIcSt11char_traitsIcESaIcEEEENS1_10My_CompareISA_St4lessIiEEEEEbEEOT_RNSt16remove_referenceISH_E4typeE
FN:77,_ZSt7forwardISt4pairIN3s2115IteratorGeneralINSt7__cxx1112basic_stringIcSt11char_traitsIcESaIcEEESt4lessIS8_EEEbEEOT_RNSt16remove_referenceISD_E4typeE
FN:77,_ZSt7forwardISt4pairIKiiEEOT_RNSt16remove_referenceIS3_E4typeE
FN:77,_ZSt7forwardIN3s2115IteratorGeneralISt4pairIKiNSt7__cxx1112basic_stringIcSt11char_traitsIcESaIcEEEENS0_10My_CompareISA_St4lessIiEEEEEEOT_RNSt16remove_referenceISG_E4typeE
FN:77,_ZSt7forwardIN3s2115IteratorGeneralISt4pairIKiiENS0_10My_CompareIS4_St4lessIiEEEEEEOT_RNSt16remove_referenceISA_E4typeE
FN:77,_ZSt7forwardIRN3s2115IteratorGeneralISt4pairIKiiENS0_10My_CompareIS4_St4lessIiEEEEEEOT_RNSt16remove_referenceISB_E4typeE
FN:77,_ZSt7forwardIRPSt13_Rb_tree_nodeINSt7__cxx1112basic_stringIcSt11char_traitsIcESaIcEEEEEOT_RNSt16remove_referenceISA_E4typeE
FN:77,_ZSt7forwardISt4pairIKiNSt7__cxx1112basic_stringIcSt11char_traitsIcESaIcEEEEEOT_RNSt16remove_referenceIS9_E4typeE
FN:77,_ZSt7forwardIRA2_KcEOT_RNSt16remove_referenceIS3_E4typeE
FN:77,_ZSt7forwardIRA5_KcEOT_RNSt16remove_referenceIS3_E4typeE
FN:77,_ZSt7forwardIN3s2115IteratorGeneralISt4pairIKiiENS0_10My_CompareIS4_St7greaterIiEEEEEEOT_RNSt16remove_referenceISA_E4typeE
FN:77,_ZSt7forwardIN3s2115IteratorGeneralIiSt7greaterIiEEEEOT_RNSt16remove_referenceIS5_E4typeE
FN:77,_ZSt7forwardISt4pairIN3s2115IteratorGeneralIiSt7greaterIiEEEbEEOT_RNSt16remove_referenceIS7_E4typeE
FN:77,_ZSt7forwardIbEOT_RNSt16remove_referenceIS0_E4typeE
FN:104,_ZSt4moveIRPN3s2113StructGeneralIiEEEONSt16remove_referenceIT_E4typeEOS6_
FN:104,_ZSt4moveIRSt4pairIN3s2115IteratorGeneralIS0_IKiNSt7__cxx1112basic_stringIcSt11char_traitsIcESaIcEEEENS1_10My_CompareISA_St4lessIiEEEEEbEEONSt16remove_referenceIT_E4typeEOSJ_
FN:104,_ZSt4moveIRSt4pairIN3s2115IteratorGeneralIS0_IKiiENS1_10My_CompareIS4_St7greaterIiEEEEEbEEONSt16remove_referenceIT_E4typeEOSD_
FN:104,_ZSt4moveIRNSt7__cxx1112basic_stringIcSt11char_traitsIcESaIcEEEEONSt16remove_referenceIT_E4typeEOS8_
FN:104,_ZSt4moveIRN3s215BTreeISt4pairIKiiENS0_10My_CompareIS4_St4lessIiEEEEEEONSt16remove_referenceIT_E4typeEOSC_
FN:104,_ZSt4moveIRN3s218multisetIiSt4lessIiEEEEONSt16remove_referenceIT_E4typeEOS7_
FN:104,_ZSt4moveIRN3s216vectorINSt7__cxx1112basic_stringIcSt11char_traitsIcESaIcEEEEEEONSt16remove_referenceIT_E4typeEOSB_
FN:104,_ZSt4moveIRN3s215arrayINSt7__cxx1112basic_stringIcSt11char_traitsIcESaIcEEELm3EEEEONSt16remove_referenceIT_E4typeEOSB_
FN:104,_ZSt4moveIRPiEONSt16remove_referenceIT_E4typeEOS3_
FN:104,_ZSt4moveIRSaISt13_Rb_tree_nodeIiEEEONSt16remove_referenceIT_E4typeEOS5_
FN:104,_ZSt4moveIRPN3s2113StructGeneralISt4pairIKiNSt7__cxx1112basic_stringIcSt11char_traitsIcESaIcEEEEEEEONSt16remove_referenceIT_E4typeEOSF_
FN:104,_ZSt4moveIRbEONSt16remove_referenceIT_E4typeEOS2_
FN:104,_ZSt4moveIRSaIcEEONSt16remove_referenceIT_E4typeEOS3_
FN:104,_ZSt4moveIRSaISt13_Rb_tree_nodeINSt7__cxx1112basic_stringIcSt11char_traitsIcESaIcEEEEEEONSt16remove_referenceIT_E4typeEOSB_
FN:104,_ZSt4moveIRSaISt13_Rb_tree_nodeISt4pairIKiNSt7__cxx1112basic_stringIcSt11char_traitsIcESaIcEEEEEEEONSt16remove_referenceIT_E4typeEOSE_
FN:104,_ZSt4moveIRN3s213setIiSt4lessIiEEEEONSt16remove_referenceIT_E4typeEOS7_
FN:104,_ZSt4moveIRSaISt13_Rb_tree_nodeISt4pairIKiiEEEEONSt16remove_referenceIT_E4typeEOS8_
FN:104,_ZSt4moveIRPN3s2110StructListIiEEEONSt16remove_referenceIT_E4typeEOS6_
FN:104,_ZSt4moveIRiEONSt16remove_referenceIT_E4typeEOS2_
FN:104,_ZSt4moveIRSt4pairIN3s2115IteratorGeneralIiSt7greaterIiEEEbEEONSt16remove_referenceIT_E4typeEOS9_
FN:104,_ZSt4moveIRPN3s2113StructGeneralINSt7__cxx1112basic_stringIcSt11char_traitsIcESaIcEEEEEEONSt16remove_referenceIT_E4typeEOSC_
FN:104,_ZSt4moveIRN3s214listIiEEEONSt16remove_referenceIT_E4typeEOS5_
FN:104,_ZSt4moveIRPN3s2110StructListINSt7__cxx1112basic_stringIcSt11char_traitsIcESaIcEEEEEEONSt16remove_referenceIT_E4typeEOSC_
FN:104,_ZSt4moveIRN3s213mapIiiSt4lessIiEEEEONSt16remove_referenceIT_E4typeEOS7_
FN:104,_ZSt4moveIRPNSt7__cxx1118basic_stringstreamIcSt11char_traitsIcESaIcEEEEONSt16remove_referenceIT_E4typeEOS9_
FN:104,_ZSt4moveIRN3s215BTreeIiSt4lessIiEEEEONSt16remove_referenceIT_E4typeEOS7_
FN:104,_ZSt4moveIRPN3s2113StructGeneralISt4pairIKiiEEEEONSt16remove_referenceIT_E4typeEOS9_
FN:104,_ZSt4moveIRSt4pairIN3s2115IteratorGeneralINSt7__cxx1112basic_stringIcSt11char_traitsIcESaIcEEESt4lessIS8_EEEbEEONSt16remove_referenceIT_E4typeEOSF_
FN:104,_ZSt4moveIRN3s215arrayIiLm3EEEEONSt16remove_referenceIT_E4typeEOS5_
FN:104,_ZSt4moveIRPNSt7__cxx1112basic_stringIcSt11char_traitsIcESaIcEEEEONSt16remove_referenceIT_E4typeEOS9_
FN:104,_ZSt4moveIRmEONSt16remove_referenceIT_E4typeEOS2_
FN:196,_ZSt4swapIPNSt7__cxx1112basic_stringIcSt11char_traitsIcESaIcEEEENSt9enable_ifIXsrSt6__and_IJSt6__not_ISt15__is_tuple_likeIT_EESt21is_move_constructibleISB_ESt18is_move_assignableISB_EEE5valueEvE4typeERSB_SL_
FN:196,_ZSt4swapIPiENSt9enable_ifIXsrSt6__and_IJSt6__not_ISt15__is_tuple_likeIT_EESt21is_move_constructibleIS5_ESt18is_move_assignableIS5_EEE5valueEvE4typeERS5_SF_
FN:196,_ZSt4swapIPN3s2110StructListIiEEENSt9enable_ifIXsrSt6__and_IJSt6__not_ISt15__is_tuple_likeIT_EESt21is_move_constructibleIS8_ESt18is_move_assignableIS8_EEE5valueEvE4typeERS8_SI_
FN:196,_ZSt4swapIPN3s2110StructListINSt7__cxx1112basic_stringIcSt11char_traitsIcESaIcEEEEEENSt9enable_ifIXsrSt6__and_IJSt6__not_ISt15__is_tuple_likeIT_EESt21is_move_constructibleISE_ESt18is_move_assignableISE_EEE5valueEvE4typeERSE_SO_
FN:196,_ZSt4swapImENSt9enable_ifIXsrSt6__and_IJSt6__not_ISt15__is_tuple_likeIT_EESt21is_move_constructibleIS4_ESt18is_move_assignableIS4_EEE5valueEvE4typeERS4_SE_
FN:196,_ZSt4swapIPN3s2113StructGeneralIiEEENSt9enable_ifIXsrSt6__and_IJSt6__not_ISt15__is_tuple_likeIT_EESt21is_move_constructibleIS8_ESt18is_move_assignableIS8_EEE5valueEvE4typeERS8_SI_
FN:196,_ZSt4swapIPN3s2113StructGeneralISt4pairIKiiEEEENSt9enable_ifIXsrSt6__and_IJSt6__not_ISt15__is_tuple_likeIT_EESt21is_move_constructibleISB_ESt18is_move_assignableISB_EEE5valueEvE4typeERSB_SL_
FN:196,_ZSt4swapIPN3s2113StructGeneralINSt7__cxx1112basic_stringIcSt11char_traitsIcESaIcEEEEEENSt9enable_ifIXsrSt6__and_IJSt6__not_ISt15__is_tuple_likeIT_EESt21is_move_constructibleISE_ESt18is_move_assignableISE_EEE5valueEvE4typeERSE_SO_
FN:196,_ZSt4swapIPN3s2113StructGeneralISt4pairIKiNSt7__cxx1112basic_stringIcSt11char_traitsIcESaIcEEEEEEENSt9enable_ifIXsrSt6__and_IJSt6__not_ISt15__is_tuple_likeIT_EESt21is_move_constructibleISH_ESt18is_move_assignableISH_EEE5valueEvE4typeERSH_SR_
FN:196,_ZSt4swapIbENSt9enable_ifIXsrSt6__and_IJSt6__not_ISt15__is_tuple_likeIT_EESt21is_move_constructibleIS4_ESt18is_move_assignableIS4_EEE5valueEvE4typeERS4_SE_
FN:196,_ZSt4swapIN3s216vectorINSt7__cxx1112basic_stringIcSt11char_traitsIcESaIcEEEEEENSt9enable_ifIXsrSt6__and_IJSt6__not_ISt15__is_tuple_likeIT_EESt21is_move_constructibleISD_ESt18is_move_assignableISD_EEE5valueEvE4typeERSD_SN_
FNDA:351,_ZSt4moveIRmEONSt16remove_referenceIT_E4typeEOS2_
FNDA:124,_ZSt4moveIRPNSt7__cxx1112basic_stringIcSt11char_traitsIcESaIcEEEEONSt16remove_referenceIT_E4typeEOS9_
FNDA:3,_ZSt4moveIRN3s215arrayIiLm3EEEEONSt16remove_referenceIT_E4typeEOS5_
FNDA:36,_ZSt7forwardISt4pairIN3s2115IteratorGeneralIiSt7greaterIiEEEbEEOT_RNSt16remove_referenceIS7_E4typeE
FNDA:42,_ZSt4moveIRPN3s2113StructGeneralISt4pairIKiiEEEEONSt16remove_referenceIT_E4typeEOS9_
FNDA:76,_ZSt4moveIRSt4pairIN3s2115IteratorGeneralINSt7__cxx1112basic_stringIcSt11char_traitsIcESaIcEEESt4lessIS8_EEEbEEONSt16remove_referenceIT_E4typeEOSF_
FNDA:10,_ZSt7forwardIbEOT_RNSt16remove_referenceIS0_E4typeE
FNDA:6,_ZSt4swapIN3s216vectorINSt7__cxx1112basic_stringIcSt11char_traitsIcESaIcEEEEEENSt9enable_ifIXsrSt6__and_IJSt6__not_ISt15__is_tuple_likeIT_EESt21is_move_constructibleISD_ESt18is_move_assignableISD_EEE5valueEvE4typeERSD_SN_
FNDA:11,_ZSt4swapIbENSt9enable_ifIXsrSt6__and_IJSt6__not_ISt15__is_tuple_likeIT_EESt21is_move_constructibleIS4_ESt18is_move_assignableIS4_EEE5valueEvE4typeERS4_SE_
FNDA:2,_ZSt4moveIRN3s213mapIiiSt4lessIiEEEEONSt16remove_referenceIT_E4typeEOS7_
FNDA:48,_ZSt4moveIRPN3s2110StructListINSt7__cxx1112basic_stringIcSt11char_traitsIcESaIcEEEEEEONSt16remove_referenceIT_E4typeEOSC_
FNDA:4,_ZSt4moveIRN3s215BTreeIiSt4lessIiEEEEONSt16remove_referenceIT_E4typeEOS7_
FNDA:12,_ZSt4swapIPN3s2113StructGeneralISt4pairIKiNSt7__cxx1112basic_stringIcSt11char_traitsIcESaIcEEEEEEENSt9enable_ifIXsrSt6__and_IJSt6__not_ISt15__is_tuple_likeIT_EESt21is_move_constructibleISH_ESt18is_move_assignableISH_EEE5valueEvE4typeERSH_SR_
FNDA:346,_ZSt4moveIRPNSt7__cxx1118basic_stringstreamIcSt11char_traitsIcESaIcEEEEONSt16remove_referenceIT_E4typeEOS9_
FNDA:181,_ZSt7forwardIN3s2115IteratorGeneralISt4pairIKiiENS0_10My_CompareIS4_St7greaterIiEEEEEEOT_RNSt16remove_referenceISA_E4typeE
FNDA:246,_ZSt7forwardIN3s2115IteratorGeneralIiSt7greaterIiEEEEOT_RNSt16remove_referenceIS5_E4typeE
FNDA:12,_ZSt4moveIRSt4pairIN3s2115IteratorGeneralIiSt7greaterIiEEEbEEONSt16remove_referenceIT_E4typeEOS9_
FNDA:2,_ZSt4moveIRN3s214listIiEEEONSt16remove_referenceIT_E4typeEOS5_
FNDA:36,_ZSt4moveIRPN3s2113StructGeneralINSt7__cxx1112basic_stringIcSt11char_traitsIcESaIcEEEEEEONSt16remove_referenceIT_E4typeEOSC_
FNDA:75,_ZSt11__addressofINSt7__cxx1112basic_stringIcSt11char_traitsIcESaIcEEEEPT_RS6_
FNDA:114,_ZSt11__addressofISt4pairIN3s2115IteratorGeneralINSt7__cxx1112basic_stringIcSt11char_traitsIcESaIcEEESt4lessIS8_EEEbEEPT_RSD_
FNDA:206,_ZSt7forwardIRA2_KcEOT_RNSt16remove_referenceIS3_E4typeE
FNDA:45,_ZSt7forwardISt4pairIKiNSt7__cxx1112basic_stringIcSt11char_traitsIcESaIcEEEEEOT_RNSt16remove_referenceIS9_E4typeE
FNDA:9,_ZSt4moveIRPN3s2110StructListIiEEEONSt16remove_referenceIT_E4typeEOS6_
FNDA:306,_ZSt4moveIRiEONSt16remove_referenceIT_E4typeEOS2_
FNDA:10,_ZSt7forwardIRA5_KcEOT_RNSt16remove_referenceIS3_E4typeE
FNDA:9,_ZSt11__addressofISt4pairIN3s2115IteratorGeneralIS0_IKiiENS1_10My_CompareIS4_St7greaterIiEEEEEbEEPT_RSB_
FNDA:12,_ZSt4swapIPN3s2113StructGeneralINSt7__cxx1112basic_stringIcSt11char_traitsIcESaIcEEEEEENSt9enable_ifIXsrSt6__and_IJSt6__not_ISt15__is_tuple_likeIT_EESt21is_move_constructibleISE_ESt18is_move_assignableISE_EEE5valueEvE4typeERSE_SO_
FNDA:254,_ZSt7forwardIN3s2115IteratorGeneralISt4pairIKiNSt7__cxx1112basic_stringIcSt11char_traitsIcESaIcEEEENS0_10My_CompareISA_St4lessIiEEEEEEOT_RNSt16remove_referenceISG_E4typeE
FNDA:14,_ZSt7forwardISt4pairIKiiEEOT_RNSt16remove_referenceIS3_E4typeE
FNDA:10,_ZSt7forwardIN3s2120IteratorGeneralConstIiSt4lessIiEEEEOT_RNSt16remove_referenceIS5_E4typeE
FNDA:3,_ZSt4moveIRSaISt13_Rb_tree_nodeINSt7__cxx1112basic_stringIcSt11char_traitsIcESaIcEEEEEEONSt16remove_referenceIT_E4typeEOSB_
FNDA:222,_ZSt7forwardISt4pairIN3s2115IteratorGeneralINSt7__cxx1112basic_stringIcSt11char_traitsIcESaIcEEESt4lessIS8_EEEbEEOT_RNSt16remove_referenceISD_E4typeE
FNDA:90,_ZSt7forwardISt4pairIN3s2115IteratorGeneralIS0_IKiNSt7__cxx1112basic_stringIcSt11char_traitsIcESaIcEEEENS1_10My_CompareISA_St4lessIiEEEEEbEEOT_RNSt16remove_referenceISH_E4typeE
FNDA:10,_ZSt7forwardIRPSt13_Rb_tree_nodeINSt7__cxx1112basic_stringIcSt11char_traitsIcESaIcEEEEEOT_RNSt16remove_referenceISA_E4typeE
FNDA:1,_ZSt7forwardIRN3s2115IteratorGeneralISt4pairIKiiENS0_10My_CompareIS4_St4lessIiEEEEEEOT_RNSt16remove_referenceISB_E4typeE
FNDA:45,_ZSt11__addressofISt4pairIN3s2115IteratorGeneralIS0_IKiNSt7__cxx1112basic_stringIcSt11char_traitsIcESaIcEEEENS1_10My_CompareISA_St4lessIiEEEEEbEEPT_RSH_
FNDA:1,_ZSt4moveIRSaISt13_Rb_tree_nodeISt4pairIKiNSt7__cxx1112basic_stringIcSt11char_traitsIcESaIcEEEEEEEONSt16remove_referenceIT_E4typeEOSE_
FNDA:2,_ZSt4moveIRN3s213setIiSt4lessIiEEEEONSt16remove_referenceIT_E4typeEOS7_
FNDA:1,_ZSt4moveIRSaISt13_Rb_tree_nodeISt4pairIKiiEEEEONSt16remove_referenceIT_E4typeEOS8_
FNDA:71,_ZSt7forwardIN3s2115IteratorGeneralISt4pairIKiiENS0_10My_CompareIS4_St4lessIiEEEEEEOT_RNSt16remove_referenceISA_E4typeE
FNDA:16,_ZSt4swapIPN3s2110StructListINSt7__cxx1112basic_stringIcSt11char_traitsIcESaIcEEEEEENSt9enable_ifIXsrSt6__and_IJSt6__not_ISt15__is_tuple_likeIT_EESt21is_move_constructibleISE_ESt18is_move_assignableISE_EEE5valueEvE4typeERSE_SO_
FNDA:3,_ZSt4swapIPN3s2110StructListIiEEENSt9enable_ifIXsrSt6__and_IJSt6__not_ISt15__is_tuple_likeIT_EESt21is_move_constructibleIS8_ESt18is_move_assignableIS8_EEE5valueEvE4typeERS8_SI_
FNDA:144,_ZSt7forwardIPKcEOT_RNSt16remove_referenceIS2_E4typeE
FNDA:117,_ZSt4swapImENSt9enable_ifIXsrSt6__and_IJSt6__not_ISt15__is_tuple_likeIT_EESt21is_move_constructibleIS4_ESt18is_move_assignableIS4_EEE5valueEvE4typeERS4_SE_
FNDA:0,_ZSt4moveIRSaIcEEONSt16remove_referenceIT_E4typeEOS3_
FNDA:33,_ZSt4moveIRbEONSt16remove_referenceIT_E4typeEOS2_
FNDA:18,_ZSt7forwardIN3s2115IteratorGeneralINSt7__cxx1112basic_stringIcSt11char_traitsIcESaIcEEESt7greaterIS7_EEEEOT_RNSt16remove_referenceISB_E4typeE
FNDA:58,_ZSt7forwardIRA3_KcEOT_RNSt16remove_referenceIS3_E4typeE
FNDA:14,_ZSt4swapIPN3s2113StructGeneralISt4pairIKiiEEEENSt9enable_ifIXsrSt6__and_IJSt6__not_ISt15__is_tuple_likeIT_EESt21is_move_constructibleISB_ESt18is_move_assignableISB_EEE5valueEvE4typeERSB_SL_
FNDA:19,_ZSt4swapIPN3s2113StructGeneralIiEEENSt9enable_ifIXsrSt6__and_IJSt6__not_ISt15__is_tuple_likeIT_EESt21is_move_constructibleIS8_ESt18is_move_assignableIS8_EEE5valueEvE4typeERS8_SI_
FNDA:499,_ZSt7forwardIRKSt4pairIKiiEEOT_RNSt16remove_referenceIS5_E4typeE
FNDA:3,_ZSt4moveIRPiEONSt16remove_referenceIT_E4typeEOS3_
FNDA:18,_ZSt11__addressofISt4pairIN3s2115IteratorGeneralIiSt7greaterIiEEEbEEPT_RS7_
FNDA:11,_ZSt7forwardIRPSt13_Rb_tree_nodeIiEEOT_RNSt16remove_referenceIS4_E4typeE
FNDA:1,_ZSt7forwardIRPSt13_Rb_tree_nodeISt4pairIKiNSt7__cxx1112basic_stringIcSt11char_traitsIcESaIcEEEEEEOT_RNSt16remove_referenceISD_E4typeE
FNDA:133,_ZSt7forwardIRKiEOT_RNSt16remove_referenceIS2_E4typeE
FNDA:21,_ZSt7forwardISt4pairIN3s2115IteratorGeneralIS0_IKiiENS1_10My_CompareIS4_St7greaterIiEEEEEbEEOT_RNSt16remove_referenceISB_E4typeE
FNDA:36,_ZSt4swapIPNSt7__cxx1112basic_stringIcSt11char_traitsIcESaIcEEEENSt9enable_ifIXsrSt6__and_IJSt6__not_ISt15__is_tuple_likeIT_EESt21is_move_constructibleISB_ESt18is_move_assignableISB_EEE5valueEvE4typeERSB_SL_
FNDA:36,_ZSt4moveIRPN3s2113StructGeneralISt4pairIKiNSt7__cxx1112basic_stringIcSt11char_traitsIcESaIcEEEEEEEONSt16remove_referenceIT_E4typeEOSF_
FNDA:1,_ZSt4moveIRSaISt13_Rb_tree_nodeIiEEEONSt16remove_referenceIT_E4typeEOS5_
FNDA:1,_ZSt4swapIPiENSt9enable_ifIXsrSt6__and_IJSt6__not_ISt15__is_tuple_likeIT_EESt21is_move_constructibleIS5_ESt18is_move_assignableIS5_EEE5valueEvE4typeERS5_SF_
FNDA:832,_ZSt7forwardIRKSt4pairIKiNSt7__cxx1112basic_stringIcSt11char_traitsIcESaIcEEEEEOT_RNSt16remove_referenceISB_E4typeE
FNDA:77,_ZSt7forwardIRPSt18_Rb_tree_node_baseEOT_RNSt16remove_referenceIS3_E4typeE
FNDA:1266,_ZSt7forwardIRbEOT_RNSt16remove_referenceIS1_E4typeE
FNDA:162,_ZSt7forwardINSt7__cxx1112basic_stringIcSt11char_traitsIcESaIcEEEEOT_RNSt16remove_referenceIS6_E4typeE
FNDA:2,_ZSt4moveIRN3s218multisetIiSt4lessIiEEEEONSt16remove_referenceIT_E4typeEOS7_
FNDA:2,_ZSt4moveIRN3s215BTreeISt4pairIKiiENS0_10My_CompareIS4_St4lessIiEEEEEEONSt16remove_referenceIT_E4typeEOSC_
FNDA:340,_ZSt7forwardIN3s2115IteratorGeneralINSt7__cxx1112basic_stringIcSt11char_traitsIcESaIcEEESt4lessIS7_EEEEOT_RNSt16remove_referenceISB_E4typeE
FNDA:511,_ZSt4moveIRNSt7__cxx1112basic_stringIcSt11char_traitsIcESaIcEEEEONSt16remove_referenceIT_E4typeEOS8_
FNDA:11,_ZSt7forwardIRPSt13_Rb_tree_nodeISt4pairIKiiEEEOT_RNSt16remove_referenceIS7_E4typeE
FNDA:6,_ZSt7forwardIRA4_KcEOT_RNSt16remove_referenceIS3_E4typeE
FNDA:5,_ZSt4moveIRN3s215arrayINSt7__cxx1112basic_stringIcSt11char_traitsIcESaIcEEELm3EEEEONSt16remove_referenceIT_E4typeEOSB_
FNDA:18,_ZSt4moveIRN3s216vectorINSt7__cxx1112basic_stringIcSt11char_traitsIcESaIcEEEEEEONSt16remove_referenceIT_E4typeEOSB_
FNDA:30,_ZSt4moveIRSt4pairIN3s2115IteratorGeneralIS0_IKiNSt7__cxx1112basic_stringIcSt11char_traitsIcESaIcEEEENS1_10My_CompareISA_St4lessIiEEEEEbEEONSt16remove_referenceIT_E4typeEOSJ_
FNDA:57,_ZSt4moveIRPN3s2113StructGeneralIiEEEONSt16remove_referenceIT_E4typeEOS6_
FNDA:9,_ZSt7forwardIN3s2115IteratorGeneralISt4pairIKiNSt7__cxx1112basic_stringIcSt11char_traitsIcESaIcEEEENS0_10My_CompareISA_St7greaterIiEEEEEEOT_RNSt16remove_referenceISG_E4typeE
FNDA:395,_ZSt7forwardIRKNSt7__cxx1112basic_stringIcSt11char_traitsIcESaIcEEEEOT_RNSt16remove_referenceIS8_E4typeE
FNDA:1098,_ZSt7forwardIiEOT_RNSt16remove_referenceIS0_E4typeE
FNDA:176,_ZSt7forwardIN3s2115IteratorGeneralIiSt4lessIiEEEEOT_RNSt16remove_referenceIS5_E4typeE
FNDA:7,_ZSt4moveIRSt4pairIN3s2115IteratorGeneralIS0_IKiiENS1_10My_CompareIS4_St7greaterIiEEEEEbEEONSt16remove_referenceIT_E4typeEOSD_
FNF:81
FNH:80
DA:49,261
DA:50,261
DA:77,6663
DA:78,6663
DA:104,2073
DA:105,2073
DA:196,247
DA:204,247
DA:205,247
DA:206,247
DA:207,247
LF:11
LH:11
end_of_record
TN:
SF:/usr/include/c++/11/bits/stl_algobase.h
FN:230,_ZSt3minImERKT_S2_S2_
FN:254,_ZSt3maxImERKT_S2_S2_
FN:313,_ZSt12__niter_baseIPSt4pairIN3s2115IteratorGeneralIS0_IKiNSt7__cxx1112basic_stringIcSt11char_traitsIcESaIcEEEENS1_10My_CompareISA_St4lessIiEEEEEbEET_SI_
FN:313,_ZSt12__niter_baseIPSt4pairIN3s2115IteratorGeneralIS0_IKiiENS1_10My_CompareIS4_St7greaterIiEEEEEbEET_SC_
FN:313,_ZSt12__niter_baseIPSt4pairIN3s2115IteratorGeneralIiSt7greaterIiEEEbEET_S8_
FN:313,_ZSt12__niter_baseIPSt4pairIN3s2115IteratorGeneralINSt7__cxx1112basic_stringIcSt11char_traitsIcESaIcEEESt4lessIS8_EEEbEET_SE_
FNDA:192,_ZSt12__niter_baseIPSt4pairIN3s2115IteratorGeneralINSt7__cxx1112basic_stringIcSt11char_traitsIcESaIcEEESt4lessIS8_EEEbEET_SE_
FNDA:363,_ZSt3minImERKT_S2_S2_
FNDA:176,_ZSt3maxImERKT_S2_S2_
FNDA:90,_ZSt12__niter_baseIPSt4pairIN3s2115IteratorGeneralIS0_IKiNSt7__cxx1112basic_stringIcSt11char_traitsIcESaIcEEEENS1_10My_CompareISA_St4lessIiEEEEEbEET_SI_
FNDA:36,_ZSt12__niter_baseIPSt4pairIN3s2115IteratorGeneralIiSt7greaterIiEEEbEET_S8_
FNDA:18,_ZSt12__niter_baseIPSt4pairIN3s2115IteratorGeneralIS0_IKiiENS1_10My_CompareIS4_St7greaterIiEEEEEbEET_SC_
FNF:6
FNH:6
DA:230,363
DA:235,363
DA:236,0
DA:237,363
DA:254,176
DA:259,176
DA:260,49
DA:261,127
DA:313,336
DA:315,336
LF:10
LH:9
end_of_record
TN:
SF:/usr/include/c++/11/bits/stl_construct.h
FN:109,_ZSt10_ConstructINSt7__cxx1112basic_stringIcSt11char_traitsIcESaIcEEEJRKS5_EEvPT_DpOT0_
FN:146,_ZSt8_DestroyINSt7__cxx1112basic_stringIcSt11char_traitsIcESaIcEEEEvPT_
FN:160,_ZNSt12_Destroy_auxILb0EE9__destroyIPNSt7__cxx1112basic_stringIcSt11char_traitsIcESaIcEEEEEvT_S9_
FN:172,_ZNSt12_Destroy_auxILb1EE9__destroyIPSt4pairIN3s2115IteratorGeneralIS2_IKiNSt7__cxx1112basic_stringIcSt11char_traitsIcESaIcEEEENS3_10My_CompareISC_St4lessIiEEEEEbEEEvT_SK_
FN:172,_ZNSt12_Destroy_auxILb1EE9__destroyIPSt4pairIN3s2115IteratorGeneralIS2_IKiiENS3_10My_CompareIS6_St7greaterIiEEEEEbEEEvT_SE_
FN:172,_ZNSt12_Destroy_auxILb1EE9__destroyIPSt4pairIN3s2115IteratorGeneralINSt7__cxx1112basic_stringIcSt11char_traitsIcESaIcEEESt4lessISA_EEEbEEEvT_SG_
FN:172,_ZNSt12_Destroy_auxILb1EE9__destroyIPSt4pairIN3s2115IteratorGeneralIiSt7greaterIiEEEbEEEvT_SA_
FN:182,_ZSt8_DestroyIPNSt7__cxx1112basic_stringIcSt11char_traitsIcESaIcEEEEvT_S7_
FN:182,_ZSt8_DestroyIPSt4pairIN3s2115IteratorGeneralIS0_IKiNSt7__cxx1112basic_stringIcSt11char_traitsIcESaIcEEEENS1_10My_CompareISA_St4lessIiEEEEEbEEvT_SI_
FN:182,_ZSt8_DestroyIPSt4pairIN3s2115IteratorGeneralIiSt7greaterIiEEEbEEvT_S8_
FN:182,_ZSt8_DestroyIPSt4pairIN3s2115IteratorGeneralINSt7__cxx1112basic_stringIcSt11char_traitsIcESaIcEEESt4lessIS8_EEEbEEvT_SE_
FN:182,_ZSt8_DestroyIPSt4pairIN3s2115IteratorGeneralIS0_IKiiENS1_10My_CompareIS4_St7greaterIiEEEEEbEEvT_SC_
FNDA:5,_ZSt8_DestroyIPSt4pairIN3s2115IteratorGeneralIS0_IKiNSt7__cxx1112basic_stringIcSt11char_traitsIcESaIcEEEENS1_10My_CompareISA_St4lessIiEEEEEbEEvT_SI_
FNDA:1,_ZNSt12_Destroy_auxILb1EE9__destroyIPSt4pairIN3s2115IteratorGeneralIS2_IKiiENS3_10My_CompareIS6_St7greaterIiEEEEEbEEEvT_SE_
FNDA:2,_ZSt8_DestroyIPSt4pairIN3s2115IteratorGeneralIiSt7greaterIiEEEbEEvT_S8_
FNDA:39,_ZNSt12_Destroy_auxILb0EE9__destroyIPNSt7__cxx1112basic_stringIcSt11char_traitsIcESaIcEEEEEvT_S9_
FNDA:39,_ZSt8_DestroyIPNSt7__cxx1112basic_stringIcSt11char_traitsIcESaIcEEEEvT_S7_
FNDA:44,_ZSt8_DestroyINSt7__cxx1112basic_stringIcSt11char_traitsIcESaIcEEEEvPT_
FNDA:5,_ZNSt12_Destroy_auxILb1EE9__destroyIPSt4pairIN3s2115IteratorGeneralIS2_IKiNSt7__cxx1112basic_stringIcSt11char_traitsIcESaIcEEEENS3_10My_CompareISC_St4lessIiEEEEEbEEEvT_SK_
FNDA:2,_ZNSt12_Destroy_auxILb1EE9__destroyIPSt4pairIN3s2115IteratorGeneralIiSt7greaterIiEEEbEEEvT_SA_
FNDA:1,_ZSt8_DestroyIPSt4pairIN3s2115IteratorGeneralIS0_IKiiENS1_10My_CompareIS4_St7greaterIiEEEEEbEEvT_SC_
FNDA:4,_ZSt10_ConstructINSt7__cxx1112basic_stringIcSt11char_traitsIcESaIcEEEJRKS5_EEvPT_DpOT0_
FNDA:10,_ZSt8_DestroyIPSt4pairIN3s2115IteratorGeneralINSt7__cxx1112basic_stringIcSt11char_traitsIcESaIcEEESt4lessIS8_EEEbEEvT_SE_
FNDA:10,_ZNSt12_Destroy_auxILb1EE9__destroyIPSt4pairIN3s2115IteratorGeneralINSt7__cxx1112basic_stringIcSt11char_traitsIcESaIcEEESt4lessISA_EEEbEEEvT_SG_
FNF:12
FNH:12
DA:109,4
DA:119,4
DA:120,4
DA:146,44
DA:151,44
DA:153,44
DA:160,39
DA:162,83
DA:163,44
DA:164,39
DA:172,18
DA:182,57
DA:196,57
DA:197,57
LF:14
LH:14
end_of_record
TN:
SF:/usr/include/c++/11/bits/stl_function.h
FN:389,_ZNKSt7greaterIiEclERKiS2_
FN:389,_ZNKSt7greaterINSt7__cxx1112basic_stringIcSt11char_traitsIcESaIcEEEEclERKS5_S8_
FN:399,_ZNKSt4lessINSt7__cxx1112basic_stringIcSt11char_traitsIcESaIcEEEEclERKS5_S8_
FN:399,_ZNKSt4lessIiEclERKiS2_
FN:1158,_ZNKSt9_IdentityINSt7__cxx1112basic_stringIcSt11char_traitsIcESaIcEEEEclERKS5_
FN:1158,_ZNKSt9_IdentityIiEclERKi
FN:1174,_ZNKSt10_Select1stISt4pairIKiNSt7__cxx1112basic_stringIcSt11char_traitsIcESaIcEEEEEclERKS8_
FN:1174,_ZNKSt10_Select1stISt4pairIKiiEEclERKS2_
FNDA:1502,_ZNKSt4lessINSt7__cxx1112basic_stringIcSt11char_traitsIcESaIcEEEEclERKS5_S8_
FNDA:208,_ZNKSt9_IdentityINSt7__cxx1112basic_stringIcSt11char_traitsIcESaIcEEEEclERKS5_
FNDA:125,_ZNKSt10_Select1stISt4pairIKiNSt7__cxx1112basic_stringIcSt11char_traitsIcESaIcEEEEEclERKS8_
FNDA:2418,_ZNKSt7greaterIiEclERKiS2_
FNDA:64,_ZNKSt7greaterINSt7__cxx1112basic_stringIcSt11char_traitsIcESaIcEEEEclERKS5_S8_
FNDA:107,_ZNKSt9_IdentityIiEclERKi
FNDA:2537,_ZNKSt4lessIiEclERKiS2_
FNDA:125,_ZNKSt10_Select1stISt4pairIKiiEEclERKS2_
FNF:8
FNH:8
DA:389,2482
DA:390,2482
DA:399,4039
DA:400,4039
DA:1158,315
DA:1159,315
DA:1174,250
DA:1175,250
LF:8
LH:8
end_of_record
TN:
SF:/usr/include/c++/11/bits/stl_iterator.h
FN:1010,_ZN9__gnu_cxx17__normal_iteratorIPNSt7__cxx1112basic_stringIcSt11char_traitsIcESaIcEEESt6vectorIS6_SaIS6_EEEC2ERKS7_
FN:1010,_ZN9__gnu_cxx17__normal_iteratorIPSt4pairIN3s2115IteratorGeneralIS1_IKiiENS2_10My_CompareIS5_St7greaterIiEEEEEbESt6vectorISB_SaISB_EEEC2ERKSC_
FN:1010,_ZN9__gnu_cxx17__normal_iteratorIPSt4pairIN3s2115IteratorGeneralINSt7__cxx1112basic_stringIcSt11char_traitsIcESaIcEEESt4lessIS9_EEEbESt6vectorISD_SaISD_EEEC2ERKSE_
FN:1010,_ZN9__gnu_cxx17__normal_iteratorIPSt4pairIN3s2115IteratorGeneralIS1_IKiNSt7__cxx1112basic_stringIcSt11char_traitsIcESaIcEEEENS2_10My_CompareISB_St4lessIiEEEEEbESt6vectorISH_SaISH_EEEC2ERKSI_
FN:1010,_ZN9__gnu_cxx17__normal_iteratorIPSt4pairIN3s2115IteratorGeneralIiSt7greaterIiEEEbESt6vectorIS7_SaIS7_EEEC2ERKS8_
FN:1025,_ZNK9__gnu_cxx17__normal_iteratorIPSt4pairIN3s2115IteratorGeneralIiSt7greaterIiEEEbESt6vectorIS7_SaIS7_EEEdeEv
FN:1025,_ZNK9__gnu_cxx17__normal_iteratorIPSt4pairIN3s2115IteratorGeneralIS1_IKiNSt7__cxx1112basic_stringIcSt11char_traitsIcESaIcEEEENS2_10My_CompareISB_St4lessIiEEEEEbESt6vectorISH_SaISH_EEEdeEv
FN:1025,_ZNK9__gnu_cxx17__normal_iteratorIPSt4pairIN3s2115IteratorGeneralINSt7__cxx1112basic_stringIcSt11char_traitsIcESaIcEEESt4lessIS9_EEEbESt6vectorISD_SaISD_EEEdeEv
FN:1025,_ZNK9__gnu_cxx17__normal_iteratorIPSt4pairIN3s2115IteratorGeneralIS1_IKiiENS2_10My_CompareIS5_St7greaterIiEEEEEbESt6vectorISB_SaISB_EEEdeEv
FN:1025,_ZNK9__gnu_cxx17__normal_iteratorIPNSt7__cxx1112basic_stringIcSt11char_traitsIcESaIcEEESt6vectorIS6_SaIS6_EEEdeEv
FN:1043,_ZN9__gnu_cxx17__normal_iteratorIPNSt7__cxx1112basic_stringIcSt11char_traitsIcESaIcEEESt6vectorIS6_SaIS6_EEEppEi
FN:1083,_ZNK9__gnu_cxx17__normal_iteratorIPSt4pairIN3s2115IteratorGeneralINSt7__cxx1112basic_stringIcSt11char_traitsIcESaIcEEESt4lessIS9_EEEbESt6vectorISD_SaISD_EEEmiEl
FN:1083,_ZNK9__gnu_cxx17__normal_iteratorIPSt4pairIN3s2115IteratorGeneralIiSt7greaterIiEEEbESt6vectorIS7_SaIS7_EEEmiEl
FN:1083,_ZNK9__gnu_cxx17__normal_iteratorIPSt4pairIN3s2115IteratorGeneralIS1_IKiiENS2_10My_CompareIS5_St7greaterIiEEEEEbESt6vectorISB_SaISB_EEEmiEl
FN:1083,_ZNK9__gnu_cxx17__normal_iteratorIPSt4pairIN3s2115IteratorGeneralIS1_IKiNSt7__cxx1112basic_stringIcSt11char_traitsIcESaIcEEEENS2_10My_CompareISB_St4lessIiEEEEEbESt6vectorISH_SaISH_EEEmiEl
FN:1088,_ZNK9__gnu_cxx17__normal_iteratorIPSt4pairIN3s2115IteratorGeneralIiSt7greaterIiEEEbESt6vectorIS7_SaIS7_EEE4baseEv
FN:1088,_ZNK9__gnu_cxx17__normal_iteratorIPNSt7__cxx1112basic_stringIcSt11char_traitsIcESaIcEEESt6vectorIS6_SaIS6_EEE4baseEv
FN:1088,_ZNK9__gnu_cxx17__normal_iteratorIPSt4pairIN3s2115IteratorGeneralIS1_IKiiENS2_10My_CompareIS5_St7greaterIiEEEEEbESt6vectorISB_SaISB_EEE4baseEv
FN:1088,_ZNK9__gnu_cxx17__normal_iteratorIPSt4pairIN3s2115IteratorGeneralINSt7__cxx1112basic_stringIcSt11char_traitsIcESaIcEEESt4lessIS9_EEEbESt6vectorISD_SaISD_EEE4baseEv
FN:1088,_ZNK9__gnu_cxx17__normal_iteratorIPSt4pairIN3s2115IteratorGeneralIS1_IKiNSt7__cxx1112basic_stringIcSt11char_traitsIcESaIcEEEENS2_10My_CompareISB_St4lessIiEEEEEbESt6vectorISH_SaISH_EEE4baseEv
FN:1234,_ZN9__gnu_cxxmiIPNSt7__cxx1112basic_stringIcSt11char_traitsIcESaIcEEESt6vectorIS6_SaIS6_EEEENS_17__normal_iteratorIT_T0_E15difference_typeERKSE_SH_
FN:1234,_ZN9__gnu_cxxmiIPSt4pairIN3s2115IteratorGeneralIS1_IKiiENS2_10My_CompareIS5_St7greaterIiEEEEEbESt6vectorISB_SaISB_EEEENS_17__normal_iteratorIT_T0_E15difference_typeERKSJ_SM_
FN:1234,_ZN9__gnu_cxxmiIPSt4pairIN3s2115IteratorGeneralIS1_IKiNSt7__cxx1112basic_stringIcSt11char_traitsIcESaIcEEEENS2_10My_CompareISB_St4lessIiEEEEEbESt6vectorISH_SaISH_EEEENS_17__normal_iteratorIT_T0_E15difference_typeERKSP_SS_
FN:1234,_ZN9__gnu_cxxmiIPSt4pairIN3s2115IteratorGeneralINSt7__cxx1112basic_stringIcSt11char_traitsIcESaIcEEESt4lessIS9_EEEbESt6vectorISD_SaISD_EEEENS_17__normal_iteratorIT_T0_E15difference_typeERKSL_SO_
FN:1234,_ZN9__gnu_cxxmiIPSt4pairIN3s2115IteratorGeneralIiSt7greaterIiEEEbESt6vectorIS7_SaIS7_EEEENS_17__normal_iteratorIT_T0_E15difference_typeERKSF_SI_
FNDA:60,_ZNK9__gnu_cxx17__normal_iteratorIPSt4pairIN3s2115IteratorGeneralIS1_IKiNSt7__cxx1112basic_stringIcSt11char_traitsIcESaIcEEEENS2_10My_CompareISB_St4lessIiEEEEEbESt6vectorISH_SaISH_EEE4baseEv
FNDA:4,_ZNK9__gnu_cxx17__normal_iteratorIPSt4pairIN3s2115IteratorGeneralIS1_IKiiENS2_10My_CompareIS5_St7greaterIiEEEEEbESt6vectorISB_SaISB_EEEdeEv
FNDA:38,_ZNK9__gnu_cxx17__normal_iteratorIPSt4pairIN3s2115IteratorGeneralINSt7__cxx1112basic_stringIcSt11char_traitsIcESaIcEEESt4lessIS9_EEEbESt6vectorISD_SaISD_EEEdeEv
FNDA:128,_ZNK9__gnu_cxx17__normal_iteratorIPSt4pairIN3s2115IteratorGeneralINSt7__cxx1112basic_stringIcSt11char_traitsIcESaIcEEESt4lessIS9_EEEbESt6vectorISD_SaISD_EEE4baseEv
FNDA:60,_ZN9__gnu_cxx17__normal_iteratorIPSt4pairIN3s2115IteratorGeneralIS1_IKiNSt7__cxx1112basic_stringIcSt11char_traitsIcESaIcEEEENS2_10My_CompareISB_St4lessIiEEEEEbESt6vectorISH_SaISH_EEEC2ERKSI_
FNDA:44,_ZNK9__gnu_cxx17__normal_iteratorIPNSt7__cxx1112basic_stringIcSt11char_traitsIcESaIcEEESt6vectorIS6_SaIS6_EEEdeEv
FNDA:24,_ZN9__gnu_cxx17__normal_iteratorIPSt4pairIN3s2115IteratorGeneralIiSt7greaterIiEEEbESt6vectorIS7_SaIS7_EEEC2ERKS8_
FNDA:32,_ZN9__gnu_cxxmiIPSt4pairIN3s2115IteratorGeneralINSt7__cxx1112basic_stringIcSt11char_traitsIcESaIcEEESt4lessIS9_EEEbESt6vectorISD_SaISD_EEEENS_17__normal_iteratorIT_T0_E15difference_typeERKSL_SO_
FNDA:6,_ZN9__gnu_cxxmiIPSt4pairIN3s2115IteratorGeneralIiSt7greaterIiEEEbESt6vectorIS7_SaIS7_EEEENS_17__normal_iteratorIT_T0_E15difference_typeERKSF_SI_
FNDA:14,_ZN9__gnu_cxx17__normal_iteratorIPSt4pairIN3s2115IteratorGeneralIS1_IKiiENS2_10My_CompareIS5_St7greaterIiEEEEEbESt6vectorISB_SaISB_EEEC2ERKSC_
FNDA:15,_ZN9__gnu_cxxmiIPSt4pairIN3s2115IteratorGeneralIS1_IKiNSt7__cxx1112basic_stringIcSt11char_traitsIcESaIcEEEENS2_10My_CompareISB_St4lessIiEEEEEbESt6vectorISH_SaISH_EEEENS_17__normal_iteratorIT_T0_E15difference_typeERKSP_SS_
FNDA:223,_ZNK9__gnu_cxx17__normal_iteratorIPNSt7__cxx1112basic_stringIcSt11char_traitsIcESaIcEEESt6vectorIS6_SaIS6_EEE4baseEv
FNDA:15,_ZNK9__gnu_cxx17__normal_iteratorIPSt4pairIN3s2115IteratorGeneralIS1_IKiNSt7__cxx1112basic_stringIcSt11char_traitsIcESaIcEEEENS2_10My_CompareISB_St4lessIiEEEEEbESt6vectorISH_SaISH_EEEdeEv
FNDA:12,_ZNK9__gnu_cxx17__normal_iteratorIPSt4pairIN3s2115IteratorGeneralIS1_IKiiENS2_10My_CompareIS5_St7greaterIiEEEEEbESt6vectorISB_SaISB_EEE4baseEv
FNDA:15,_ZNK9__gnu_cxx17__normal_iteratorIPSt4pairIN3s2115IteratorGeneralIS1_IKiNSt7__cxx1112basic_stringIcSt11char_traitsIcESaIcEEEENS2_10My_CompareISB_St4lessIiEEEEEbESt6vectorISH_SaISH_EEEmiEl
FNDA:6,_ZNK9__gnu_cxx17__normal_iteratorIPSt4pairIN3s2115IteratorGeneralIiSt7greaterIiEEEbESt6vectorIS7_SaIS7_EEEmiEl
FNDA:4,_ZNK9__gnu_cxx17__normal_iteratorIPSt4pairIN3s2115IteratorGeneralIS1_IKiiENS2_10My_CompareIS5_St7greaterIiEEEEEbESt6vectorISB_SaISB_EEEmiEl
FNDA:140,_ZN9__gnu_cxx17__normal_iteratorIPSt4pairIN3s2115IteratorGeneralINSt7__cxx1112basic_stringIcSt11char_traitsIcESaIcEEESt4lessIS9_EEEbESt6vectorISD_SaISD_EEEC2ERKSE_
FNDA:6,_ZNK9__gnu_cxx17__normal_iteratorIPSt4pairIN3s2115IteratorGeneralIiSt7greaterIiEEEbESt6vectorIS7_SaIS7_EEEdeEv
FNDA:3,_ZN9__gnu_cxxmiIPSt4pairIN3s2115IteratorGeneralIS1_IKiiENS2_10My_CompareIS5_St7greaterIiEEEEEbESt6vectorISB_SaISB_EEEENS_17__normal_iteratorIT_T0_E15difference_typeERKSJ_SM_
FNDA:38,_ZNK9__gnu_cxx17__normal_iteratorIPSt4pairIN3s2115IteratorGeneralINSt7__cxx1112basic_stringIcSt11char_traitsIcESaIcEEESt4lessIS9_EEEbESt6vectorISD_SaISD_EEEmiEl
FNDA:3,_ZN9__gnu_cxx17__normal_iteratorIPNSt7__cxx1112basic_stringIcSt11char_traitsIcESaIcEEESt6vectorIS6_SaIS6_EEEppEi
FNDA:24,_ZNK9__gnu_cxx17__normal_iteratorIPSt4pairIN3s2115IteratorGeneralIiSt7greaterIiEEEbESt6vectorIS7_SaIS7_EEE4baseEv
FNDA:32,_ZN9__gnu_cxxmiIPNSt7__cxx1112basic_stringIcSt11char_traitsIcESaIcEEESt6vectorIS6_SaIS6_EEEENS_17__normal_iteratorIT_T0_E15difference_typeERKSE_SH_
FNDA:169,_ZN9__gnu_cxx17__normal_iteratorIPNSt7__cxx1112basic_stringIcSt11char_traitsIcESaIcEEESt6vectorIS6_SaIS6_EEEC2ERKS7_
FNF:25
FNH:25
DA:1010,407
DA:1011,407
DA:1025,107
DA:1026,107
DA:1043,3
DA:1044,3
DA:1083,63
DA:1084,63
DA:1088,447
DA:1089,447
DA:1234,88
DA:1237,88
LF:12
LH:12
end_of_record
TN:
SF:/usr/include/c++/11/bits/stl_iterator_base_funcs.h
FN:80,_ZSt10__distanceIN3s2112ListIteratorINSt7__cxx1112basic_stringIcSt11char_traitsIcESaIcEEEEEENSt15iterator_traitsIT_E15difference_typeESA_SA_St18input_iterator_tag
FN:80,_ZSt10__distanceIN3s2117ListIteratorConstINSt7__cxx1112basic_stringIcSt11char_traitsIcESaIcEEEEEENSt15iterator_traitsIT_E15difference_typeESA_SA_St18input_iterator_tag
FN:98,_ZSt10__distanceIPKiENSt15iterator_traitsIT_E15difference_typeES3_S3_St26random_access_iterator_tag
FN:98,_ZSt10__distanceIPKNSt7__cxx1112basic_stringIcSt11char_traitsIcESaIcEEEENSt15iterator_traitsIT_E15difference_typeES9_S9_St26random_access_iterator_tag
FN:98,_ZSt10__distanceIPcENSt15iterator_traitsIT_E15difference_typeES2_S2_St26random_access_iterator_tag
FN:98,_ZSt10__distanceIN9__gnu_cxx17__normal_iteratorIPNSt7__cxx1112basic_stringIcSt11char_traitsIcESaIcEEESt6vectorIS7_SaIS7_EEEEENSt15iterator_traitsIT_E15difference_typeESE_SE_St26random_access_iterator_tag
FN:98,_ZSt10__distanceIPNSt7__cxx1112basic_stringIcSt11char_traitsIcESaIcEEEENSt15iterator_traitsIT_E15difference_typeES8_S8_St26random_access_iterator_tag
FN:98,_ZSt10__distanceIPKcENSt15iterator_traitsIT_E15difference_typeES3_S3_St26random_access_iterator_tag
FN:138,_ZSt8distanceIPcENSt15iterator_traitsIT_E15difference_typeES2_S2_
FN:138,_ZSt8distanceIN9__gnu_cxx17__normal_iteratorIPNSt7__cxx1112basic_stringIcSt11char_traitsIcESaIcEEESt6vectorIS7_SaIS7_EEEEENSt15iterator_traitsIT_E15difference_typeESE_SE_
FN:138,_ZSt8distanceIPNSt7__cxx1112basic_stringIcSt11char_traitsIcESaIcEEEENSt15iterator_traitsIT_E15difference_typeES8_S8_
FN:138,_ZSt8distanceIPKcENSt15iterator_traitsIT_E15difference_typeES3_S3_
FN:138,_ZSt8distanceIN3s2117ListIteratorConstINSt7__cxx1112basic_stringIcSt11char_traitsIcESaIcEEEEEENSt15iterator_traitsIT_E15difference_typeESA_SA_
FN:138,_ZSt8distanceIPKNSt7__cxx1112basic_stringIcSt11char_traitsIcESaIcEEEENSt15iterator_traitsIT_E15difference_typeES9_S9_
FN:138,_ZSt8distanceIPKiENSt15iterator_traitsIT_E15difference_typeES3_S3_
FN:138,_ZSt8distanceIN3s2112ListIteratorINSt7__cxx1112basic_stringIcSt11char_traitsIcESaIcEEEEEENSt15iterator_traitsIT_E15difference_typeESA_SA_
FNDA:0,_ZSt8distanceIPcENSt15iterator_traitsIT_E15difference_typeES2_S2_
FNDA:3,_ZSt10__distanceIPKiENSt15iterator_traitsIT_E15difference_typeES3_S3_St26random_access_iterator_tag
FNDA:21,_ZSt10__distanceIN3s2112ListIteratorINSt7__cxx1112basic_stringIcSt11char_traitsIcESaIcEEEEEENSt15iterator_traitsIT_E15difference_typeESA_SA_St18input_iterator_tag
FNDA:3,_ZSt10__distanceIN3s2117ListIteratorConstINSt7__cxx1112basic_stringIcSt11char_traitsIcESaIcEEEEEENSt15iterator_traitsIT_E15difference_typeESA_SA_St18input_iterator_tag
FNDA:2449,_ZSt8distanceIPKcENSt15iterator_traitsIT_E15difference_typeES3_S3_
FNDA:0,_ZSt10__distanceIPcENSt15iterator_traitsIT_E15difference_typeES2_S2_St26random_access_iterator_tag
FNDA:3,_ZSt8distanceIN3s2117ListIteratorConstINSt7__cxx1112basic_stringIcSt11char_traitsIcESaIcEEEEEENSt15iterator_traitsIT_E15difference_typeESA_SA_
FNDA:11,_ZSt10__distanceIN9__gnu_cxx17__normal_iteratorIPNSt7__cxx1112basic_stringIcSt11char_traitsIcESaIcEEESt6vectorIS7_SaIS7_EEEEENSt15iterator_traitsIT_E15difference_typeESE_SE_St26random_access_iterator_tag
FNDA:11,_ZSt8distanceIPNSt7__cxx1112basic_stringIcSt11char_traitsIcESaIcEEEENSt15iterator_traitsIT_E15difference_typeES8_S8_
FNDA:11,_ZSt8distanceIN9__gnu_cxx17__normal_iteratorIPNSt7__cxx1112basic_stringIcSt11char_traitsIcESaIcEEESt6vectorIS7_SaIS7_EEEEENSt15iterator_traitsIT_E15difference_typeESE_SE_
FNDA:12,_ZSt10__distanceIPKNSt7__cxx1112basic_stringIcSt11char_traitsIcESaIcEEEENSt15iterator_traitsIT_E15difference_typeES9_S9_St26random_access_iterator_tag
FNDA:12,_ZSt8distanceIPKNSt7__cxx1112basic_stringIcSt11char_traitsIcESaIcEEEENSt15iterator_traitsIT_E15difference_typeES9_S9_
FNDA:11,_ZSt10__distanceIPNSt7__cxx1112basic_stringIcSt11char_traitsIcESaIcEEEENSt15iterator_traitsIT_E15difference_typeES8_S8_St26random_access_iterator_tag
FNDA:2449,_ZSt10__distanceIPKcENSt15iterator_traitsIT_E15difference_typeES3_S3_St26random_access_iterator_tag
FNDA:21,_ZSt8distanceIN3s2112ListIteratorINSt7__cxx1112basic_stringIcSt11char_traitsIcESaIcEEEEEENSt15iterator_traitsIT_E15difference_typeESA_SA_
FNDA:3,_ZSt8distanceIPKiENSt15iterator_traitsIT_E15difference_typeES3_S3_
FNF:16
FNH:14
DA:80,24
DA:86,24
DA:87,95
DA:89,71
DA:90,71
DA:92,24
DA:98,2486
DA:104,2486
DA:138,2510
DA:141,2510
DA:142,4996
LF:11
LH:11
end_of_record
TN:
SF:/usr/include/c++/11/bits/stl_iterator_base_types.h
FN:238,_ZSt19__iterator_categoryIPNSt7__cxx1112basic_stringIcSt11char_traitsIcESaIcEEEENSt15iterator_traitsIT_E17iterator_categoryERKS8_
FN:238,_ZSt19__iterator_categoryIN3s2112ListIteratorINSt7__cxx1112basic_stringIcSt11char_traitsIcESaIcEEEEEENSt15iterator_traitsIT_E17iterator_categoryERKSA_
FN:238,_ZSt19__iterator_categoryIPcENSt15iterator_traitsIT_E17iterator_categoryERKS2_
FN:238,_ZSt19__iterator_categoryIN3s2117ListIteratorConstINSt7__cxx1112basic_stringIcSt11char_traitsIcESaIcEEEEEENSt15iterator_traitsIT_E17iterator_categoryERKSA_
FN:238,_ZSt19__iterator_categoryIPKiENSt15iterator_traitsIT_E17iterator_categoryERKS3_
FN:238,_ZSt19__iterator_categoryIPKNSt7__cxx1112basic_stringIcSt11char_traitsIcESaIcEEEENSt15iterator_traitsIT_E17iterator_categoryERKS9_
FN:238,_ZSt19__iterator_categoryIN9__gnu_cxx17__normal_iteratorIPNSt7__cxx1112basic_stringIcSt11char_traitsIcESaIcEEESt6vectorIS7_SaIS7_EEEEENSt15iterator_traitsIT_E17iterator_categoryERKSE_
FN:238,_ZSt19__iterator_categoryIPKcENSt15iterator_traitsIT_E17iterator_categoryERKS3_
FNDA:3,_ZSt19__iterator_categoryIN3s2117ListIteratorConstINSt7__cxx1112basic_stringIcSt11char_traitsIcESaIcEEEEEENSt15iterator_traitsIT_E17iterator_categoryERKSA_
FNDA:0,_ZSt19__iterator_categoryIPcENSt15iterator_traitsIT_E17iterator_categoryERKS2_
FNDA:11,_ZSt19__iterator_categoryIPNSt7__cxx1112basic_stringIcSt11char_traitsIcESaIcEEEENSt15iterator_traitsIT_E17iterator_categoryERKS8_
FNDA:21,_ZSt19__iterator_categoryIN3s2112ListIteratorINSt7__cxx1112basic_stringIcSt11char_traitsIcESaIcEEEEEENSt15iterator_traitsIT_E17iterator_categoryERKSA_
FNDA:2449,_ZSt19__iterator_categoryIPKcENSt15iterator_traitsIT_E17iterator_categoryERKS3_
FNDA:3,_ZSt19__iterator_categoryIPKiENSt15iterator_traitsIT_E17iterator_categoryERKS3_
FNDA:12,_ZSt19__iterator_categoryIPKNSt7__cxx1112basic_stringIcSt11char_traitsIcESaIcEEEENSt15iterator_traitsIT_E17iterator_categoryERKS9_
FNDA:21,_ZSt19__iterator_categoryIN9__gnu_cxx17__normal_iteratorIPNSt7__cxx1112basic_stringIcSt11char_traitsIcESaIcEEESt6vectorIS7_SaIS7_EEEEENSt15iterator_traitsIT_E17iterator_categoryERKSE_
FNF:8
FNH:7
DA:238,2520
DA:239,2520
LF:2
LH:2
end_of_record
TN:
SF:/usr/include/c++/11/bits/stl_map.h
FN:207,_ZNSt3mapIiiSt7greaterIiESaISt4pairIKiiEEEC2ERKS6_
FN:207,_ZNSt3mapIiNSt7__cxx1112basic_stringIcSt11char_traitsIcESaIcEEESt4lessIiESaISt4pairIKiS5_EEEC2ERKSC_
FN:228,_ZNSt3mapIiNSt7__cxx1112basic_stringIcSt11char_traitsIcESaIcEEESt4lessIiESaISt4pairIKiS5_EEEC2ESt16initializer_listISA_ERKS7_RKSB_
FN:228,_ZNSt3mapIiiSt7greaterIiESaISt4pairIKiiEEEC2ESt16initializer_listIS4_ERKS1_RKS5_
FN:302,_ZNSt3mapIiNSt7__cxx1112basic_stringIcSt11char_traitsIcESaIcEEESt4lessIiESaISt4pairIKiS5_EEED2Ev
FN:302,_ZNSt3mapIiiSt7greaterIiESaISt4pairIKiiEEED2Ev
FN:356,_ZNSt3mapIiiSt7greaterIiESaISt4pairIKiiEEE5beginEv
FN:356,_ZNSt3mapIiNSt7__cxx1112basic_stringIcSt11char_traitsIcESaIcEEESt4lessIiESaISt4pairIKiS5_EEE5beginEv
FN:470,_ZNKSt3mapIiiSt7greaterIiESaISt4pairIKiiEEE4sizeEv
FN:470,_ZNKSt3mapIiNSt7__cxx1112basic_stringIcSt11char_traitsIcESaIcEEESt4lessIiESaISt4pairIKiS5_EEE4sizeEv
FN:1037,_ZNSt3mapIiNSt7__cxx1112basic_stringIcSt11char_traitsIcESaIcEEESt4lessIiESaISt4pairIKiS5_EEE5eraseB5cxx11ESt17_Rb_tree_iteratorISA_E
FN:1037,_ZNSt3mapIiiSt7greaterIiESaISt4pairIKiiEEE5eraseB5cxx11ESt17_Rb_tree_iteratorIS4_E
FN:1169,_ZNSt3mapIiNSt7__cxx1112basic_stringIcSt11char_traitsIcESaIcEEESt4lessIiESaISt4pairIKiS5_EEE4findERS9_
FN:1169,_ZNSt3mapIiiSt7greaterIiESaISt4pairIKiiEEE4findERS3_
FNDA:9,_ZNSt3mapIiiSt7greaterIiESaISt4pairIKiiEEED2Ev
FNDA:16,_ZNSt3mapIiNSt7__cxx1112basic_stringIcSt11char_traitsIcESaIcEEESt4lessIiESaISt4pairIKiS5_EEEC2ERKSC_
FNDA:8,_ZNSt3mapIiiSt7greaterIiESaISt4pairIKiiEEE5eraseB5cxx11ESt17_Rb_tree_iteratorIS4_E
FNDA:8,_ZNSt3mapIiiSt7greaterIiESaISt4pairIKiiEEE4findERS3_
FNDA:8,_ZNKSt3mapIiiSt7greaterIiESaISt4pairIKiiEEE4sizeEv
FNDA:16,_ZNKSt3mapIiNSt7__cxx1112basic_stringIcSt11char_traitsIcESaIcEEESt4lessIiESaISt4pairIKiS5_EEE4sizeEv
FNDA:8,_ZNSt3mapIiiSt7greaterIiESaISt4pairIKiiEEE5beginEv
FNDA:16,_ZNSt3mapIiNSt7__cxx1112basic_stringIcSt11char_traitsIcESaIcEEESt4lessIiESaISt4pairIKiS5_EEE5beginEv
FNDA:16,_ZNSt3mapIiNSt7__cxx1112basic_stringIcSt11char_traitsIcESaIcEEESt4lessIiESaISt4pairIKiS5_EEE5eraseB5cxx11ESt17_Rb_tree_iteratorISA_E
FNDA:16,_ZNSt3mapIiNSt7__cxx1112basic_stringIcSt11char_traitsIcESaIcEEESt4lessIiESaISt4pairIKiS5_EEE4findERS9_
FNDA:8,_ZNSt3mapIiiSt7greaterIiESaISt4pairIKiiEEEC2ERKS6_
FNDA:1,_ZNSt3mapIiiSt7greaterIiESaISt4pairIKiiEEEC2ESt16initializer_listIS4_ERKS1_RKS5_
FNDA:1,_ZNSt3mapIiNSt7__cxx1112basic_stringIcSt11char_traitsIcESaIcEEESt4lessIiESaISt4pairIKiS5_EEEC2ESt16initializer_listISA_ERKS7_RKSB_
FNDA:17,_ZNSt3mapIiNSt7__cxx1112basic_stringIcSt11char_traitsIcESaIcEEESt4lessIiESaISt4pairIKiS5_EEED2Ev
FNF:14
FNH:14
DA:207,24
DA:228,2
DA:231,2
DA:232,2
DA:302,26
DA:356,24
DA:357,24
DA:470,24
DA:471,24
DA:1037,24
DA:1038,24
DA:1169,24
DA:1170,24
LF:13
LH:13
end_of_record
TN:
SF:/usr/include/c++/11/bits/stl_multiset.h
FN:218,_ZNSt8multisetINSt7__cxx1112basic_stringIcSt11char_traitsIcESaIcEEESt4lessIS5_ESaIS5_EEC2ERKS9_
FN:218,_ZNSt8multisetIiSt7greaterIiESaIiEEC2ERKS3_
FN:239,_ZNSt8multisetIiSt7greaterIiESaIiEEC2ESt16initializer_listIiERKS1_RKS2_
FN:239,_ZNSt8multisetINSt7__cxx1112basic_stringIcSt11char_traitsIcESaIcEEESt4lessIS5_ESaIS5_EEC2ESt16initializer_listIS5_ERKS7_RKS8_
FN:277,_ZNSt8multisetIiSt7greaterIiESaIiEED2Ev
FN:277,_ZNSt8multisetINSt7__cxx1112basic_stringIcSt11char_traitsIcESaIcEEESt4lessIS5_ESaIS5_EED2Ev
FN:340,_ZNKSt8multisetINSt7__cxx1112basic_stringIcSt11char_traitsIcESaIcEEESt4lessIS5_ESaIS5_EE5beginEv
FN:340,_ZNKSt8multisetIiSt7greaterIiESaIiEE5beginEv
FN:415,_ZNKSt8multisetINSt7__cxx1112basic_stringIcSt11char_traitsIcESaIcEEESt4lessIS5_ESaIS5_EE4sizeEv
FN:415,_ZNKSt8multisetIiSt7greaterIiESaIiEE4sizeEv
FN:639,_ZNSt8multisetINSt7__cxx1112basic_stringIcSt11char_traitsIcESaIcEEESt4lessIS5_ESaIS5_EE5eraseB5cxx11ESt23_Rb_tree_const_iteratorIS5_E
FN:639,_ZNSt8multisetIiSt7greaterIiESaIiEE5eraseB5cxx11ESt23_Rb_tree_const_iteratorIiE
FN:775,_ZNSt8multisetINSt7__cxx1112basic_stringIcSt11char_traitsIcESaIcEEESt4lessIS5_ESaIS5_EE4findERKS5_
FN:775,_ZNSt8multisetIiSt7greaterIiESaIiEE4findERKi
FNDA:6,_ZNSt8multisetIiSt7greaterIiESaIiEE5eraseB5cxx11ESt23_Rb_tree_const_iteratorIiE
FNDA:1,_ZNKSt8multisetIiSt7greaterIiESaIiEE4sizeEv
FNDA:1,_ZNSt8multisetIiSt7greaterIiESaIiEEC2ERKS3_
FNDA:1,_ZNKSt8multisetIiSt7greaterIiESaIiEE5beginEv
FNDA:3,_ZNKSt8multisetINSt7__cxx1112basic_stringIcSt11char_traitsIcESaIcEEESt4lessIS5_ESaIS5_EE5beginEv
FNDA:6,_ZNSt8multisetIiSt7greaterIiESaIiEE4findERKi
FNDA:3,_ZNSt8multisetINSt7__cxx1112basic_stringIcSt11char_traitsIcESaIcEEESt4lessIS5_ESaIS5_EED2Ev
FNDA:1,_ZNSt8multisetIiSt7greaterIiESaIiEEC2ESt16initializer_listIiERKS1_RKS2_
FNDA:2,_ZNSt8multisetINSt7__cxx1112basic_stringIcSt11char_traitsIcESaIcEEESt4lessIS5_ESaIS5_EEC2ERKS9_
FNDA:1,_ZNSt8multisetINSt7__cxx1112basic_stringIcSt11char_traitsIcESaIcEEESt4lessIS5_ESaIS5_EEC2ESt16initializer_listIS5_ERKS7_RKS8_
FNDA:2,_ZNKSt8multisetINSt7__cxx1112basic_stringIcSt11char_traitsIcESaIcEEESt4lessIS5_ESaIS5_EE4sizeEv
FNDA:3,_ZNSt8multisetINSt7__cxx1112basic_stringIcSt11char_traitsIcESaIcEEESt4lessIS5_ESaIS5_EE4findERKS5_
FNDA:2,_ZNSt8multisetIiSt7greaterIiESaIiEED2Ev
FNDA:4,_ZNSt8multisetINSt7__cxx1112basic_stringIcSt11char_traitsIcESaIcEEESt4lessIS5_ESaIS5_EE5eraseB5cxx11ESt23_Rb_tree_const_iteratorIS5_E
FNF:14
FNH:14
DA:218,3
DA:239,2
DA:242,2
DA:243,2
DA:277,5
DA:340,4
DA:341,4
DA:415,3
DA:416,3
DA:639,10
DA:640,10
DA:775,9
DA:776,9
LF:13
LH:13
end_of_record
TN:
SF:/usr/include/c++/11/bits/stl_pair.h
FN:232,_ZNSt4pairIKiiEC2IS0_iLb1EEEv
FN:232,_ZNSt4pairIKiNSt7__cxx1112basic_stringIcSt11char_traitsIcESaIcEEEEC2IS0_S6_Lb1EEEv
FN:266,_ZNSt4pairIKiiEC2IS0_iLb1EEERS0_S3_
FN:266,_ZNSt4pairIPSt18_Rb_tree_node_baseS1_EC2IS1_S1_Lb1EEERKS1_S5_
FN:314,_ZNSt4pairIKiNSt7__cxx1112basic_stringIcSt11char_traitsIcESaIcEEEEC2ERKS7_
FN:315,_ZNSt4pairIKiNSt7__cxx1112basic_stringIcSt11char_traitsIcESaIcEEEEC2EOS7_
FN:322,_ZNSt4pairIPSt18_Rb_tree_node_baseS1_EC2IRS1_Lb1EEEOT_RKS1_
FN:336,_ZNSt4pairIKiNSt7__cxx1112basic_stringIcSt11char_traitsIcESaIcEEEEC2IS6_Lb1EEERS0_OT_
FN:336,_ZNSt4pairIPSt18_Rb_tree_node_baseS1_EC2IRS1_Lb1EEERKS1_OT_
FN:336,_ZNSt4pairIKiiEC2IiLb1EEERS0_OT_
FN:352,_ZNSt4pairIKiiEC1IiiLb1EEEOT_OT0_
FN:352,_ZNSt4pairIN3s2115IteratorGeneralINSt7__cxx1112basic_stringIcSt11char_traitsIcESaIcEEESt4lessIS7_EEEbEC2ISA_RbLb1EEEOT_OT0_
FN:352,_ZNSt4pairIN3s2115IteratorGeneralIS_IKiiENS0_10My_CompareIS3_St4lessIiEEEEEbEC2IRS8_bLb1EEEOT_OT0_
FN:352,_ZNSt4pairIKiNSt7__cxx1112basic_stringIcSt11char_traitsIcESaIcEEEEC1IiRA3_KcLb1EEEOT_OT0_
FN:352,_ZNSt4pairIN3s2115IteratorGeneralIiSt4lessIiEEES4_EC2IS4_S4_Lb1EEEOT_OT0_
FN:352,_ZNSt4pairIN3s2120IteratorGeneralConstIiSt4lessIiEEES4_EC2IS4_S4_Lb1EEEOT_OT0_
FN:352,_ZNSt4pairIN3s2115IteratorGeneralIS_IKiNSt7__cxx1112basic_stringIcSt11char_traitsIcESaIcEEEENS0_10My_CompareIS9_St7greaterIiEEEEEbEC2ISE_RbLb1EEEOT_OT0_
FN:352,_ZNSt4pairIPSt18_Rb_tree_node_baseS1_EC2IRS1_S4_Lb1EEEOT_OT0_
FN:352,_ZNSt4pairIN3s2115IteratorGeneralIS_IKiNSt7__cxx1112basic_stringIcSt11char_traitsIcESaIcEEEENS0_10My_CompareIS9_St4lessIiEEEEEbEC2ISE_RbLb1EEEOT_OT0_
FN:352,_ZNSt4pairIN3s2115IteratorGeneralINSt7__cxx1112basic_stringIcSt11char_traitsIcESaIcEEESt7greaterIS7_EEEbEC2ISA_RbLb1EEEOT_OT0_
FN:352,_ZNSt4pairIPSt18_Rb_tree_node_baseS1_EC2IRPSt13_Rb_tree_nodeINSt7__cxx1112basic_stringIcSt11char_traitsIcESaIcEEEERS1_Lb1EEEOT_OT0_
FN:352,_ZNSt4pairIN3s2115IteratorGeneralIS_IKiiENS0_10My_CompareIS3_St4lessIiEEEEEbEC2IS8_RbLb1EEEOT_OT0_
FN:352,_ZNSt4pairIPSt18_Rb_tree_node_baseS1_EC2IRPSt13_Rb_tree_nodeIiERS1_Lb1EEEOT_OT0_
FN:352,_ZNSt4pairIN3s2115IteratorGeneralIS_IKiiENS0_10My_CompareIS3_St7greaterIiEEEEEbEC2IS8_RbLb1EEEOT_OT0_
FN:352,_ZNSt4pairIN3s2115IteratorGeneralIiSt7greaterIiEEES4_EC2IS4_S4_Lb1EEEOT_OT0_
FN:352,_ZNSt4pairIKiNSt7__cxx1112basic_stringIcSt11char_traitsIcESaIcEEEEC1IiRA2_KcLb1EEEOT_OT0_
FN:352,_ZNSt4pairIN3s2115IteratorGeneralIiSt7greaterIiEEEbEC2IS4_RbLb1EEEOT_OT0_
FN:352,_ZNSt4pairIPSt18_Rb_tree_node_baseS1_EC2IRPSt13_Rb_tree_nodeIS_IKiNSt7__cxx1112basic_stringIcSt11char_traitsIcESaIcEEEEERS1_Lb1EEEOT_OT0_
FN:352,_ZNSt4pairIN3s2115IteratorGeneralIiSt4lessIiEEEbEC2IS4_RbLb1EEEOT_OT0_
FN:352,_ZNSt4pairIPSt18_Rb_tree_node_baseS1_EC2IRPSt13_Rb_tree_nodeIS_IKiiEERS1_Lb1EEEOT_OT0_
FN:401,_ZNSt4pairIN3s2115IteratorGeneralIiSt7greaterIiEEEbEaSEOS5_
FN:401,_ZNSt4pairIN3s2120IteratorGeneralConstIiSt4lessIiEEES4_EaSEOS5_
FN:401,_ZNSt4pairIN3s2115IteratorGeneralIS_IKiiENS0_10My_CompareIS3_St7greaterIiEEEEEbEaSEOS9_
FN:401,_ZNSt4pairIN3s2115IteratorGeneralIiSt4lessIiEEES4_EaSEOS5_
FN:401,_ZNSt4pairIN3s2115IteratorGeneralIiSt7greaterIiEEES4_EaSEOS5_
FN:401,_ZNSt4pairIN3s2115IteratorGeneralIS_IKiiENS0_10My_CompareIS3_St4lessIiEEEEEbEaSEOS9_
FN:401,_ZNSt4pairIN3s2115IteratorGeneralIiSt4lessIiEEEbEaSEOS5_
FN:466,_ZSteqIKiNSt7__cxx1112basic_stringIcSt11char_traitsIcESaIcEEEEbRKSt4pairIT_T0_ESC_
FN:466,_ZSteqIKiiEbRKSt4pairIT_T0_ES6_
FN:489,_ZStltIKiiEbRKSt4pairIT_T0_ES6_
FN:489,_ZStltIKiNSt7__cxx1112basic_stringIcSt11char_traitsIcESaIcEEEEbRKSt4pairIT_T0_ESC_
FN:496,_ZStneIKiNSt7__cxx1112basic_stringIcSt11char_traitsIcESaIcEEEEbRKSt4pairIT_T0_ESC_
FN:496,_ZStneIKiiEbRKSt4pairIT_T0_ES6_
FN:502,_ZStgtIKiiEbRKSt4pairIT_T0_ES6_
FN:502,_ZStgtIKiNSt7__cxx1112basic_stringIcSt11char_traitsIcESaIcEEEEbRKSt4pairIT_T0_ESC_
FNDA:15,_ZNSt4pairIKiNSt7__cxx1112basic_stringIcSt11char_traitsIcESaIcEEEEC2EOS7_
FNDA:146,_ZStneIKiiEbRKSt4pairIT_T0_ES6_
FNDA:11,_ZNSt4pairIPSt18_Rb_tree_node_baseS1_EC2IRPSt13_Rb_tree_nodeIS_IKiiEERS1_Lb1EEEOT_OT0_
FNDA:6,_ZStltIKiNSt7__cxx1112basic_stringIcSt11char_traitsIcESaIcEEEEbRKSt4pairIT_T0_ESC_
FNDA:164,_ZNSt4pairIN3s2115IteratorGeneralIiSt4lessIiEEEbEC2IS4_RbLb1EEEOT_OT0_
FNDA:1,_ZNSt4pairIPSt18_Rb_tree_node_baseS1_EC2IRPSt13_Rb_tree_nodeIS_IKiNSt7__cxx1112basic_stringIcSt11char_traitsIcESaIcEEEEERS1_Lb1EEEOT_OT0_
FNDA:253,_ZStneIKiNSt7__cxx1112basic_stringIcSt11char_traitsIcESaIcEEEEbRKSt4pairIT_T0_ESC_
FNDA:32,_ZNSt4pairIKiiEC2IiLb1EEERS0_OT_
FNDA:234,_ZNSt4pairIN3s2115IteratorGeneralIiSt7greaterIiEEEbEC2IS4_RbLb1EEEOT_OT0_
FNDA:110,_ZNSt4pairIKiNSt7__cxx1112basic_stringIcSt11char_traitsIcESaIcEEEEC1IiRA2_KcLb1EEEOT_OT0_
FNDA:3,_ZNSt4pairIN3s2115IteratorGeneralIiSt7greaterIiEEES4_EC2IS4_S4_Lb1EEEOT_OT0_
FNDA:2,_ZNSt4pairIN3s2115IteratorGeneralIiSt4lessIiEEEbEaSEOS5_
FNDA:3,_ZNSt4pairIN3s2115IteratorGeneralIS_IKiiENS0_10My_CompareIS3_St4lessIiEEEEEbEaSEOS9_
FNDA:51,_ZNSt4pairIKiNSt7__cxx1112basic_stringIcSt11char_traitsIcESaIcEEEEC2IS0_S6_Lb1EEEv
FNDA:54,_ZNSt4pairIKiiEC2IS0_iLb1EEEv
FNDA:179,_ZNSt4pairIN3s2115IteratorGeneralIS_IKiiENS0_10My_CompareIS3_St7greaterIiEEEEEbEC2IS8_RbLb1EEEOT_OT0_
FNDA:11,_ZNSt4pairIPSt18_Rb_tree_node_baseS1_EC2IRPSt13_Rb_tree_nodeIiERS1_Lb1EEEOT_OT0_
FNDA:0,_ZNSt4pairIPSt18_Rb_tree_node_baseS1_EC2IS1_S1_Lb1EEERKS1_S5_
FNDA:6,_ZStgtIKiNSt7__cxx1112basic_stringIcSt11char_traitsIcESaIcEEEEbRKSt4pairIT_T0_ESC_
FNDA:68,_ZNSt4pairIN3s2115IteratorGeneralIS_IKiiENS0_10My_CompareIS3_St4lessIiEEEEEbEC2IS8_RbLb1EEEOT_OT0_
FNDA:2,_ZNSt4pairIN3s2115IteratorGeneralIiSt7greaterIiEEES4_EaSEOS5_
FNDA:701,_ZNSt4pairIKiNSt7__cxx1112basic_stringIcSt11char_traitsIcESaIcEEEEC2ERKS7_
FNDA:10,_ZNSt4pairIPSt18_Rb_tree_node_baseS1_EC2IRPSt13_Rb_tree_nodeINSt7__cxx1112basic_stringIcSt11char_traitsIcESaIcEEEERS1_Lb1EEEOT_OT0_
FNDA:12,_ZStgtIKiiEbRKSt4pairIT_T0_ES6_
FNDA:12,_ZStltIKiiEbRKSt4pairIT_T0_ES6_
FNDA:146,_ZSteqIKiiEbRKSt4pairIT_T0_ES6_
FNDA:254,_ZNSt4pairIN3s2115IteratorGeneralIS_IKiNSt7__cxx1112basic_stringIcSt11char_traitsIcESaIcEEEENS0_10My_CompareIS9_St4lessIiEEEEEbEC2ISE_RbLb1EEEOT_OT0_
FNDA:2,_ZNSt4pairIN3s2115IteratorGeneralIiSt4lessIiEEES4_EaSEOS5_
FNDA:18,_ZNSt4pairIN3s2115IteratorGeneralINSt7__cxx1112basic_stringIcSt11char_traitsIcESaIcEEESt7greaterIS7_EEEbEC2ISA_RbLb1EEEOT_OT0_
FNDA:10,_ZNSt4pairIPSt18_Rb_tree_node_baseS1_EC2IRS1_Lb1EEEOT_RKS1_
FNDA:0,_ZNSt4pairIPSt18_Rb_tree_node_baseS1_EC2IRS1_S4_Lb1EEEOT_OT0_
FNDA:2,_ZNSt4pairIKiiEC2IS0_iLb1EEERS0_S3_
FNDA:2,_ZNSt4pairIN3s2115IteratorGeneralIS_IKiiENS0_10My_CompareIS3_St7greaterIiEEEEEbEaSEOS9_
FNDA:9,_ZNSt4pairIN3s2115IteratorGeneralIS_IKiNSt7__cxx1112basic_stringIcSt11char_traitsIcESaIcEEEENS0_10My_CompareIS9_St7greaterIiEEEEEbEC2ISE_RbLb1EEEOT_OT0_
FNDA:34,_ZNSt4pairIPSt18_Rb_tree_node_baseS1_EC2IRS1_Lb1EEERKS1_OT_
FNDA:2,_ZNSt4pairIN3s2120IteratorGeneralConstIiSt4lessIiEEES4_EaSEOS5_
FNDA:3,_ZNSt4pairIN3s2120IteratorGeneralConstIiSt4lessIiEEES4_EC2IS4_S4_Lb1EEEOT_OT0_
FNDA:3,_ZNSt4pairIN3s2115IteratorGeneralIiSt4lessIiEEES4_EC2IS4_S4_Lb1EEEOT_OT0_
FNDA:28,_ZNSt4pairIKiNSt7__cxx1112basic_stringIcSt11char_traitsIcESaIcEEEEC1IiRA3_KcLb1EEEOT_OT0_
FNDA:2,_ZNSt4pairIN3s2115IteratorGeneralIiSt7greaterIiEEEbEaSEOS5_
FNDA:253,_ZSteqIKiNSt7__cxx1112basic_stringIcSt11char_traitsIcESaIcEEEEbRKSt4pairIT_T0_ESC_
FNDA:22,_ZNSt4pairIKiNSt7__cxx1112basic_stringIcSt11char_traitsIcESaIcEEEEC2IS6_Lb1EEERS0_OT_
FNDA:1,_ZNSt4pairIN3s2115IteratorGeneralIS_IKiiENS0_10My_CompareIS3_St4lessIiEEEEEbEC2IRS8_bLb1EEEOT_OT0_
FNDA:340,_ZNSt4pairIN3s2115IteratorGeneralINSt7__cxx1112basic_stringIcSt11char_traitsIcESaIcEEESt4lessIS7_EEEbEC2ISA_RbLb1EEEOT_OT0_
FNDA:9,_ZNSt4pairIKiiEC1IiiLb1EEEOT_OT0_
FNF:45
FNH:43
DA:232,105
DA:233,105
DA:266,2
DA:267,2
DA:314,701
DA:315,15
DA:322,10
DA:323,10
DA:336,88
DA:337,88
DA:352,1456
DA:353,1456
DA:401,15
DA:408,15
DA:409,15
DA:410,15
DA:466,399
DA:467,399
DA:489,18
DA:490,18
DA:491,18
DA:496,399
DA:497,399
DA:502,18
DA:503,18
LF:25
LH:25
end_of_record
TN:
SF:/usr/include/c++/11/bits/stl_set.h
FN:223,_ZNSt3setINSt7__cxx1112basic_stringIcSt11char_traitsIcESaIcEEESt4lessIS5_ESaIS5_EEC2ERKS9_
FN:243,_ZNSt3setINSt7__cxx1112basic_stringIcSt11char_traitsIcESaIcEEESt4lessIS5_ESaIS5_EEC2ESt16initializer_listIS5_ERKS7_RKS8_
FN:281,_ZNSt3setINSt7__cxx1112basic_stringIcSt11char_traitsIcESaIcEEESt4lessIS5_ESaIS5_EED2Ev
FN:344,_ZNKSt3setINSt7__cxx1112basic_stringIcSt11char_traitsIcESaIcEEESt4lessIS5_ESaIS5_EE5beginEv
FN:419,_ZNKSt3setINSt7__cxx1112basic_stringIcSt11char_traitsIcESaIcEEESt4lessIS5_ESaIS5_EE4sizeEv
FN:654,_ZNSt3setINSt7__cxx1112basic_stringIcSt11char_traitsIcESaIcEEESt4lessIS5_ESaIS5_EE5eraseB5cxx11ESt23_Rb_tree_const_iteratorIS5_E
FN:794,_ZNSt3setINSt7__cxx1112basic_stringIcSt11char_traitsIcESaIcEEESt4lessIS5_ESaIS5_EE4findERKS5_
FNDA:8,_ZNSt3setINSt7__cxx1112basic_stringIcSt11char_traitsIcESaIcEEESt4lessIS5_ESaIS5_EE4findERKS5_
FNDA:2,_ZNSt3setINSt7__cxx1112basic_stringIcSt11char_traitsIcESaIcEEESt4lessIS5_ESaIS5_EEC2ESt16initializer_listIS5_ERKS7_RKS8_
FNDA:5,_ZNKSt3setINSt7__cxx1112basic_stringIcSt11char_traitsIcESaIcEEESt4lessIS5_ESaIS5_EE5beginEv
FNDA:5,_ZNSt3setINSt7__cxx1112basic_stringIcSt11char_traitsIcESaIcEEESt4lessIS5_ESaIS5_EEC2ERKS9_
FNDA:5,_ZNKSt3setINSt7__cxx1112basic_stringIcSt11char_traitsIcESaIcEEESt4lessIS5_ESaIS5_EE4sizeEv
FNDA:8,_ZNSt3setINSt7__cxx1112basic_stringIcSt11char_traitsIcESaIcEEESt4lessIS5_ESaIS5_EE5eraseB5cxx11ESt23_Rb_tree_const_iteratorIS5_E
FNDA:8,_ZNSt3setINSt7__cxx1112basic_stringIcSt11char_traitsIcESaIcEEESt4lessIS5_ESaIS5_EED2Ev
FNF:7
FNH:7
DA:223,5
DA:243,2
DA:246,2
DA:247,2
DA:281,8
DA:344,5
DA:345,5
DA:419,5
DA:420,5
DA:654,8
DA:655,8
DA:794,8
DA:795,8
LF:13
LH:13
end_of_record
TN:
SF:/usr/include/c++/11/bits/stl_tree.h
FN:112,_ZNSt18_Rb_tree_node_base10_S_minimumEPS_
FN:126,_ZNSt18_Rb_tree_node_base10_S_maximumEPS_
FN:152,_ZNSt20_Rb_tree_key_compareISt4lessIiEEC2ERKS1_
FN:152,_ZNSt20_Rb_tree_key_compareISt4lessINSt7__cxx1112basic_stringIcSt11char_traitsIcESaIcEEEEEC2ERKS7_
FN:152,_ZNSt20_Rb_tree_key_compareISt7greaterIiEEC2ERKS1_
FN:173,_ZNSt15_Rb_tree_headerC2Ev
FN:206,_ZNSt15_Rb_tree_header8_M_resetEv
FN:234,_ZNSt13_Rb_tree_nodeIiE9_M_valptrEv
FN:234,_ZNSt13_Rb_tree_nodeISt4pairIKiiEE9_M_valptrEv
FN:234,_ZNSt13_Rb_tree_nodeINSt7__cxx1112basic_stringIcSt11char_traitsIcESaIcEEEE9_M_valptrEv
FN:234,_ZNSt13_Rb_tree_nodeISt4pairIKiNSt7__cxx1112basic_stringIcSt11char_traitsIcESaIcEEEEE9_M_valptrEv
FN:238,_ZNKSt13_Rb_tree_nodeISt4pairIKiNSt7__cxx1112basic_stringIcSt11char_traitsIcESaIcEEEEE9_M_valptrEv
FN:238,_ZNKSt13_Rb_tree_nodeISt4pairIKiiEE9_M_valptrEv
FN:238,_ZNKSt13_Rb_tree_nodeIiE9_M_valptrEv
FN:238,_ZNKSt13_Rb_tree_nodeINSt7__cxx1112basic_stringIcSt11char_traitsIcESaIcEEEE9_M_valptrEv
FN:273,_ZNSt17_Rb_tree_iteratorISt4pairIKiNSt7__cxx1112basic_stringIcSt11char_traitsIcESaIcEEEEEC2EPSt18_Rb_tree_node_base
FN:273,_ZNSt17_Rb_tree_iteratorINSt7__cxx1112basic_stringIcSt11char_traitsIcESaIcEEEEC2EPSt18_Rb_tree_node_base
FN:273,_ZNSt17_Rb_tree_iteratorIiEC2EPSt18_Rb_tree_node_base
FN:273,_ZNSt17_Rb_tree_iteratorISt4pairIKiiEEC2EPSt18_Rb_tree_node_base
FN:277,_ZNKSt17_Rb_tree_iteratorISt4pairIKiNSt7__cxx1112basic_stringIcSt11char_traitsIcESaIcEEEEEdeEv
FN:277,_ZNKSt17_Rb_tree_iteratorISt4pairIKiiEEdeEv
FN:285,_ZNSt17_Rb_tree_iteratorISt4pairIKiNSt7__cxx1112basic_stringIcSt11char_traitsIcESaIcEEEEEppEv
FN:285,_ZNSt17_Rb_tree_iteratorIiEppEv
FN:285,_ZNSt17_Rb_tree_iteratorISt4pairIKiiEEppEv
FN:285,_ZNSt17_Rb_tree_iteratorINSt7__cxx1112basic_stringIcSt11char_traitsIcESaIcEEEEppEv
FN:292,_ZNSt17_Rb_tree_iteratorISt4pairIKiiEEppEi
FN:292,_ZNSt17_Rb_tree_iteratorISt4pairIKiNSt7__cxx1112basic_stringIcSt11char_traitsIcESaIcEEEEEppEi
FN:300,_ZNSt17_Rb_tree_iteratorISt4pairIKiiEEmmEv
FN:300,_ZNSt17_Rb_tree_iteratorINSt7__cxx1112basic_stringIcSt11char_traitsIcESaIcEEEEmmEv
FN:300,_ZNSt17_Rb_tree_iteratorISt4pairIKiNSt7__cxx1112basic_stringIcSt11char_traitsIcESaIcEEEEEmmEv
FN:300,_ZNSt17_Rb_tree_iteratorIiEmmEv
FN:315,_ZSteqRKSt17_Rb_tree_iteratorISt4pairIKiNSt7__cxx1112basic_stringIcSt11char_traitsIcESaIcEEEEESB_
FN:315,_ZSteqRKSt17_Rb_tree_iteratorINSt7__cxx1112basic_stringIcSt11char_traitsIcESaIcEEEES8_
FN:315,_ZSteqRKSt17_Rb_tree_iteratorISt4pairIKiiEES5_
FN:315,_ZSteqRKSt17_Rb_tree_iteratorIiES2_
FN:347,_ZNSt23_Rb_tree_const_iteratorIiEC2EPKSt18_Rb_tree_node_base
FN:347,_ZNSt23_Rb_tree_const_iteratorINSt7__cxx1112basic_stringIcSt11char_traitsIcESaIcEEEEC2EPKSt18_Rb_tree_node_base
FN:350,_ZNSt23_Rb_tree_const_iteratorINSt7__cxx1112basic_stringIcSt11char_traitsIcESaIcEEEEC2ERKSt17_Rb_tree_iteratorIS5_E
FN:350,_ZNSt23_Rb_tree_const_iteratorISt4pairIKiiEEC2ERKSt17_Rb_tree_iteratorIS2_E
FN:350,_ZNSt23_Rb_tree_const_iteratorIiEC2ERKSt17_Rb_tree_iteratorIiE
FN:350,_ZNSt23_Rb_tree_const_iteratorISt4pairIKiNSt7__cxx1112basic_stringIcSt11char_traitsIcESaIcEEEEEC2ERKSt17_Rb_tree_iteratorIS8_E
FN:354,_ZNKSt23_Rb_tree_const_iteratorISt4pairIKiiEE13_M_const_castEv
FN:354,_ZNKSt23_Rb_tree_const_iteratorINSt7__cxx1112basic_stringIcSt11char_traitsIcESaIcEEEE13_M_const_castEv
FN:354,_ZNKSt23_Rb_tree_const_iteratorISt4pairIKiNSt7__cxx1112basic_stringIcSt11char_traitsIcESaIcEEEEE13_M_const_castEv
FN:354,_ZNKSt23_Rb_tree_const_iteratorIiE13_M_const_castEv
FN:358,_ZNKSt23_Rb_tree_const_iteratorIiEdeEv
FN:358,_ZNKSt23_Rb_tree_const_iteratorINSt7__cxx1112basic_stringIcSt11char_traitsIcESaIcEEEEdeEv
FN:366,_ZNSt23_Rb_tree_const_iteratorINSt7__cxx1112basic_stringIcSt11char_traitsIcESaIcEEEEppEv
FN:366,_ZNSt23_Rb_tree_const_iteratorIiEppEv
FN:373,_ZNSt23_Rb_tree_const_iteratorINSt7__cxx1112basic_stringIcSt11char_traitsIcESaIcEEEEppEi
FN:373,_ZNSt23_Rb_tree_const_iteratorIiEppEi
FN:523,_ZNSt8_Rb_treeINSt7__cxx1112basic_stringIcSt11char_traitsIcESaIcEEES5_St9_IdentityIS5_ESt4lessIS5_ESaIS5_EE11_Alloc_nodeC2ERSB_
FN:523,_ZNSt8_Rb_treeIiSt4pairIKiiESt10_Select1stIS2_ESt7greaterIiESaIS2_EE11_Alloc_nodeC2ERS8_
FN:523,_ZNSt8_Rb_treeIiSt4pairIKiNSt7__cxx1112basic_stringIcSt11char_traitsIcESaIcEEEESt10_Select1stIS8_ESt4lessIiESaIS8_EE11_Alloc_nodeC2ERSE_
FN:523,_ZNSt8_Rb_treeIiiSt9_IdentityIiESt7greaterIiESaIiEE11_Alloc_nodeC2ERS5_
FN:528,_ZNKSt8_Rb_treeINSt7__cxx1112basic_stringIcSt11char_traitsIcESaIcEEES5_St9_IdentityIS5_ESt4lessIS5_ESaIS5_EE11_Alloc_nodeclIRKS5_EEPSt13_Rb_tree_nodeIS5_EOT_
FN:528,_ZNKSt8_Rb_treeIiSt4pairIKiNSt7__cxx1112basic_stringIcSt11char_traitsIcESaIcEEEESt10_Select1stIS8_ESt4lessIiESaIS8_EE11_Alloc_nodeclIRKS8_EEPSt13_Rb_tree_nodeIS8_EOT_
FN:528,_ZNKSt8_Rb_treeIiSt4pairIKiiESt10_Select1stIS2_ESt7greaterIiESaIS2_EE11_Alloc_nodeclIRKS2_EEPSt13_Rb_tree_nodeIS2_EOT_
FN:528,_ZNKSt8_Rb_treeIiiSt9_IdentityIiESt7greaterIiESaIiEE11_Alloc_nodeclIRKiEEPSt13_Rb_tree_nodeIiEOT_
FN:547,_ZNSt8_Rb_treeIiSt4pairIKiNSt7__cxx1112basic_stringIcSt11char_traitsIcESaIcEEEESt10_Select1stIS8_ESt4lessIiESaIS8_EE21_M_get_Node_allocatorEv
FN:547,_ZNSt8_Rb_treeINSt7__cxx1112basic_stringIcSt11char_traitsIcESaIcEEES5_St9_IdentityIS5_ESt4lessIS5_ESaIS5_EE21_M_get_Node_allocatorEv
FN:547,_ZNSt8_Rb_treeIiiSt9_IdentityIiESt7greaterIiESaIiEE21_M_get_Node_allocatorEv
FN:547,_ZNSt8_Rb_treeIiSt4pairIKiiESt10_Select1stIS2_ESt7greaterIiESaIS2_EE21_M_get_Node_allocatorEv
FN:560,_ZNSt8_Rb_treeIiSt4pairIKiiESt10_Select1stIS2_ESt7greaterIiESaIS2_EE11_M_get_nodeEv
FN:560,_ZNSt8_Rb_treeIiSt4pairIKiNSt7__cxx1112basic_stringIcSt11char_traitsIcESaIcEEEESt10_Select1stIS8_ESt4lessIiESaIS8_EE11_M_get_nodeEv
FN:560,_ZNSt8_Rb_treeIiiSt9_IdentityIiESt7greaterIiESaIiEE11_M_get_nodeEv
FN:560,_ZNSt8_Rb_treeINSt7__cxx1112basic_stringIcSt11char_traitsIcESaIcEEES5_St9_IdentityIS5_ESt4lessIS5_ESaIS5_EE11_M_get_nodeEv
FN:564,_ZNSt8_Rb_treeIiiSt9_IdentityIiESt7greaterIiESaIiEE11_M_put_nodeEPSt13_Rb_tree_nodeIiE
FN:564,_ZNSt8_Rb_treeIiSt4pairIKiiESt10_Select1stIS2_ESt7greaterIiESaIS2_EE11_M_put_nodeEPSt13_Rb_tree_nodeIS2_E
FN:564,_ZNSt8_Rb_treeINSt7__cxx1112basic_stringIcSt11char_traitsIcESaIcEEES5_St9_IdentityIS5_ESt4lessIS5_ESaIS5_EE11_M_put_nodeEPSt13_Rb_tree_nodeIS5_E
FN:564,_ZNSt8_Rb_treeIiSt4pairIKiNSt7__cxx1112basic_stringIcSt11char_traitsIcESaIcEEEESt10_Select1stIS8_ESt4lessIiESaIS8_EE11_M_put_nodeEPSt13_Rb_tree_nodeIS8_E
FN:590,_ZNSt8_Rb_treeINSt7__cxx1112basic_stringIcSt11char_traitsIcESaIcEEES5_St9_IdentityIS5_ESt4lessIS5_ESaIS5_EE17_M_construct_nodeIJRKS5_EEEvPSt13_Rb_tree_nodeIS5_EDpOT_
FN:590,_ZNSt8_Rb_treeIiiSt9_IdentityIiESt7greaterIiESaIiEE17_M_construct_nodeIJRKiEEEvPSt13_Rb_tree_nodeIiEDpOT_
FN:590,_ZNSt8_Rb_treeIiSt4pairIKiiESt10_Select1stIS2_ESt7greaterIiESaIS2_EE17_M_construct_nodeIJRKS2_EEEvPSt13_Rb_tree_nodeIS2_EDpOT_
FN:590,_ZNSt8_Rb_treeIiSt4pairIKiNSt7__cxx1112basic_stringIcSt11char_traitsIcESaIcEEEESt10_Select1stIS8_ESt4lessIiESaIS8_EE17_M_construct_nodeIJRKS8_EEEvPSt13_Rb_tree_nodeIS8_EDpOT_
FN:609,_ZNSt8_Rb_treeINSt7__cxx1112basic_stringIcSt11char_traitsIcESaIcEEES5_St9_IdentityIS5_ESt4lessIS5_ESaIS5_EE14_M_create_nodeIJRKS5_EEEPSt13_Rb_tree_nodeIS5_EDpOT_
FN:609,_ZNSt8_Rb_treeIiiSt9_IdentityIiESt7greaterIiESaIiEE14_M_create_nodeIJRKiEEEPSt13_Rb_tree_nodeIiEDpOT_
FN:609,_ZNSt8_Rb_treeIiSt4pairIKiiESt10_Select1stIS2_ESt7greaterIiESaIS2_EE14_M_create_nodeIJRKS2_EEEPSt13_Rb_tree_nodeIS2_EDpOT_
FN:609,_ZNSt8_Rb_treeIiSt4pairIKiNSt7__cxx1112basic_stringIcSt11char_traitsIcESaIcEEEESt10_Select1stIS8_ESt4lessIiESaIS8_EE14_M_create_nodeIJRKS8_EEEPSt13_Rb_tree_nodeIS8_EDpOT_
FN:618,_ZNSt8_Rb_treeIiSt4pairIKiNSt7__cxx1112basic_stringIcSt11char_traitsIcESaIcEEEESt10_Select1stIS8_ESt4lessIiESaIS8_EE15_M_destroy_nodeEPSt13_Rb_tree_nodeIS8_E
FN:618,_ZNSt8_Rb_treeIiiSt9_IdentityIiESt7greaterIiESaIiEE15_M_destroy_nodeEPSt13_Rb_tree_nodeIiE
FN:618,_ZNSt8_Rb_treeINSt7__cxx1112basic_stringIcSt11char_traitsIcESaIcEEES5_St9_IdentityIS5_ESt4lessIS5_ESaIS5_EE15_M_destroy_nodeEPSt13_Rb_tree_nodeIS5_E
FN:618,_ZNSt8_Rb_treeIiSt4pairIKiiESt10_Select1stIS2_ESt7greaterIiESaIS2_EE15_M_destroy_nodeEPSt13_Rb_tree_nodeIS2_E
FN:629,_ZNSt8_Rb_treeIiiSt9_IdentityIiESt7greaterIiESaIiEE12_M_drop_nodeEPSt13_Rb_tree_nodeIiE
FN:629,_ZNSt8_Rb_treeIiSt4pairIKiiESt10_Select1stIS2_ESt7greaterIiESaIS2_EE12_M_drop_nodeEPSt13_Rb_tree_nodeIS2_E
FN:629,_ZNSt8_Rb_treeIiSt4pairIKiNSt7__cxx1112basic_stringIcSt11char_traitsIcESaIcEEEESt10_Select1stIS8_ESt4lessIiESaIS8_EE12_M_drop_nodeEPSt13_Rb_tree_nodeIS8_E
FN:629,_ZNSt8_Rb_treeINSt7__cxx1112basic_stringIcSt11char_traitsIcESaIcEEES5_St9_IdentityIS5_ESt4lessIS5_ESaIS5_EE12_M_drop_nodeEPSt13_Rb_tree_nodeIS5_E
FN:637,_ZNSt8_Rb_treeINSt7__cxx1112basic_stringIcSt11char_traitsIcESaIcEEES5_St9_IdentityIS5_ESt4lessIS5_ESaIS5_EE13_M_clone_nodeILb0ENSB_11_Alloc_nodeEEEPSt13_Rb_tree_nodeIS5_ESG_RT0_
FN:637,_ZNSt8_Rb_treeIiSt4pairIKiiESt10_Select1stIS2_ESt7greaterIiESaIS2_EE13_M_clone_nodeILb0ENS8_11_Alloc_nodeEEEPSt13_Rb_tree_nodeIS2_ESD_RT0_
FN:637,_ZNSt8_Rb_treeIiiSt9_IdentityIiESt7greaterIiESaIiEE13_M_clone_nodeILb0ENS5_11_Alloc_nodeEEEPSt13_Rb_tree_nodeIiESA_RT0_
FN:637,_ZNSt8_Rb_treeIiSt4pairIKiNSt7__cxx1112basic_stringIcSt11char_traitsIcESaIcEEEESt10_Select1stIS8_ESt4lessIiESaIS8_EE13_M_clone_nodeILb0ENSE_11_Alloc_nodeEEEPSt13_Rb_tree_nodeIS8_ESJ_RT0_
FN:674,_ZNSt8_Rb_treeIiSt4pairIKiiESt10_Select1stIS2_ESt7greaterIiESaIS2_EE13_Rb_tree_implIS6_Lb1EEC2ERKSA_
FN:674,_ZNSt8_Rb_treeIiSt4pairIKiNSt7__cxx1112basic_stringIcSt11char_traitsIcESaIcEEEESt10_Select1stIS8_ESt4lessIiESaIS8_EE13_Rb_tree_implISC_Lb1EEC2ERKSG_
FN:674,_ZNSt8_Rb_treeIiiSt9_IdentityIiESt7greaterIiESaIiEE13_Rb_tree_implIS3_Lb1EEC2ERKS7_
FN:674,_ZNSt8_Rb_treeINSt7__cxx1112basic_stringIcSt11char_traitsIcESaIcEEES5_St9_IdentityIS5_ESt4lessIS5_ESaIS5_EE13_Rb_tree_implIS9_Lb1EEC2ERKSD_
FN:700,_ZNSt8_Rb_treeIiSt4pairIKiNSt7__cxx1112basic_stringIcSt11char_traitsIcESaIcEEEESt10_Select1stIS8_ESt4lessIiESaIS8_EE13_Rb_tree_implISC_Lb1EEC2ERKSC_OSaISt13_Rb_tree_nodeIS8_EE
FN:700,_ZNSt8_Rb_treeIiSt4pairIKiiESt10_Select1stIS2_ESt7greaterIiESaIS2_EE13_Rb_tree_implIS6_Lb1EEC2ERKS6_OSaISt13_Rb_tree_nodeIS2_EE
FN:700,_ZNSt8_Rb_treeIiiSt9_IdentityIiESt7greaterIiESaIiEE13_Rb_tree_implIS3_Lb1EEC2ERKS3_OSaISt13_Rb_tree_nodeIiEE
FN:700,_ZNSt8_Rb_treeINSt7__cxx1112basic_stringIcSt11char_traitsIcESaIcEEES5_St9_IdentityIS5_ESt4lessIS5_ESaIS5_EE13_Rb_tree_implIS9_Lb1EEC2ERKS9_OSaISt13_Rb_tree_nodeIS5_EE
FN:710,_ZNSt8_Rb_treeIiSt4pairIKiiESt10_Select1stIS2_ESt7greaterIiESaIS2_EE7_M_rootEv
FN:710,_ZNSt8_Rb_treeIiSt4pairIKiNSt7__cxx1112basic_stringIcSt11char_traitsIcESaIcEEEESt10_Select1stIS8_ESt4lessIiESaIS8_EE7_M_rootEv
FN:710,_ZNSt8_Rb_treeIiiSt9_IdentityIiESt7greaterIiESaIiEE7_M_rootEv
FN:710,_ZNSt8_Rb_treeINSt7__cxx1112basic_stringIcSt11char_traitsIcESaIcEEES5_St9_IdentityIS5_ESt4lessIS5_ESaIS5_EE7_M_rootEv
FN:714,_ZNKSt8_Rb_treeIiiSt9_IdentityIiESt7greaterIiESaIiEE7_M_rootEv
FN:714,_ZNKSt8_Rb_treeIiSt4pairIKiiESt10_Select1stIS2_ESt7greaterIiESaIS2_EE7_M_rootEv
FN:714,_ZNKSt8_Rb_treeINSt7__cxx1112basic_stringIcSt11char_traitsIcESaIcEEES5_St9_IdentityIS5_ESt4lessIS5_ESaIS5_EE7_M_rootEv
FN:714,_ZNKSt8_Rb_treeIiSt4pairIKiNSt7__cxx1112basic_stringIcSt11char_traitsIcESaIcEEEESt10_Select1stIS8_ESt4lessIiESaIS8_EE7_M_rootEv
FN:718,_ZNSt8_Rb_treeINSt7__cxx1112basic_stringIcSt11char_traitsIcESaIcEEES5_St9_IdentityIS5_ESt4lessIS5_ESaIS5_EE11_M_leftmostEv
FN:718,_ZNSt8_Rb_treeIiiSt9_IdentityIiESt7greaterIiESaIiEE11_M_leftmostEv
FN:718,_ZNSt8_Rb_treeIiSt4pairIKiNSt7__cxx1112basic_stringIcSt11char_traitsIcESaIcEEEESt10_Select1stIS8_ESt4lessIiESaIS8_EE11_M_leftmostEv
FN:718,_ZNSt8_Rb_treeIiSt4pairIKiiESt10_Select1stIS2_ESt7greaterIiESaIS2_EE11_M_leftmostEv
FN:726,_ZNSt8_Rb_treeINSt7__cxx1112basic_stringIcSt11char_traitsIcESaIcEEES5_St9_IdentityIS5_ESt4lessIS5_ESaIS5_EE12_M_rightmostEv
FN:726,_ZNSt8_Rb_treeIiSt4pairIKiiESt10_Select1stIS2_ESt7greaterIiESaIS2_EE12_M_rightmostEv
FN:726,_ZNSt8_Rb_treeIiSt4pairIKiNSt7__cxx1112basic_stringIcSt11char_traitsIcESaIcEEEESt10_Select1stIS8_ESt4lessIiESaIS8_EE12_M_rightmostEv
FN:726,_ZNSt8_Rb_treeIiiSt9_IdentityIiESt7greaterIiESaIiEE12_M_rightmostEv
FN:734,_ZNKSt8_Rb_treeIiSt4pairIKiiESt10_Select1stIS2_ESt7greaterIiESaIS2_EE9_M_mbeginEv
FN:734,_ZNKSt8_Rb_treeINSt7__cxx1112basic_stringIcSt11char_traitsIcESaIcEEES5_St9_IdentityIS5_ESt4lessIS5_ESaIS5_EE9_M_mbeginEv
FN:734,_ZNKSt8_Rb_treeIiSt4pairIKiNSt7__cxx1112basic_stringIcSt11char_traitsIcESaIcEEEESt10_Select1stIS8_ESt4lessIiESaIS8_EE9_M_mbeginEv
FN:734,_ZNKSt8_Rb_treeIiiSt9_IdentityIiESt7greaterIiESaIiEE9_M_mbeginEv
FN:738,_ZNSt8_Rb_treeIiSt4pairIKiNSt7__cxx1112basic_stringIcSt11char_traitsIcESaIcEEEESt10_Select1stIS8_ESt4lessIiESaIS8_EE8_M_beginEv
FN:738,_ZNSt8_Rb_treeIiiSt9_IdentityIiESt7greaterIiESaIiEE8_M_beginEv
FN:738,_ZNSt8_Rb_treeIiSt4pairIKiiESt10_Select1stIS2_ESt7greaterIiESaIS2_EE8_M_beginEv
FN:738,_ZNSt8_Rb_treeINSt7__cxx1112basic_stringIcSt11char_traitsIcESaIcEEES5_St9_IdentityIS5_ESt4lessIS5_ESaIS5_EE8_M_beginEv
FN:749,_ZNSt8_Rb_treeIiSt4pairIKiNSt7__cxx1112basic_stringIcSt11char_traitsIcESaIcEEEESt10_Select1stIS8_ESt4lessIiESaIS8_EE6_M_endEv
FN:749,_ZNSt8_Rb_treeIiSt4pairIKiiESt10_Select1stIS2_ESt7greaterIiESaIS2_EE6_M_endEv
FN:749,_ZNSt8_Rb_treeIiiSt9_IdentityIiESt7greaterIiESaIiEE6_M_endEv
FN:749,_ZNSt8_Rb_treeINSt7__cxx1112basic_stringIcSt11char_traitsIcESaIcEEES5_St9_IdentityIS5_ESt4lessIS5_ESaIS5_EE6_M_endEv
FN:757,_ZNSt8_Rb_treeIiiSt9_IdentityIiESt7greaterIiESaIiEE6_S_keyEPKSt13_Rb_tree_nodeIiE
FN:757,_ZNSt8_Rb_treeIiSt4pairIKiNSt7__cxx1112basic_stringIcSt11char_traitsIcESaIcEEEESt10_Select1stIS8_ESt4lessIiESaIS8_EE6_S_keyEPKSt13_Rb_tree_nodeIS8_E
FN:757,_ZNSt8_Rb_treeINSt7__cxx1112basic_stringIcSt11char_traitsIcESaIcEEES5_St9_IdentityIS5_ESt4lessIS5_ESaIS5_EE6_S_keyEPKSt13_Rb_tree_nodeIS5_E
FN:757,_ZNSt8_Rb_treeIiSt4pairIKiiESt10_Select1stIS2_ESt7greaterIiESaIS2_EE6_S_keyEPKSt13_Rb_tree_nodeIS2_E
FN:779,_ZNSt8_Rb_treeIiSt4pairIKiNSt7__cxx1112basic_stringIcSt11char_traitsIcESaIcEEEESt10_Select1stIS8_ESt4lessIiESaIS8_EE7_S_leftEPSt18_Rb_tree_node_base
FN:779,_ZNSt8_Rb_treeINSt7__cxx1112basic_stringIcSt11char_traitsIcESaIcEEES5_St9_IdentityIS5_ESt4lessIS5_ESaIS5_EE7_S_leftEPSt18_Rb_tree_node_base
FN:779,_ZNSt8_Rb_treeIiSt4pairIKiiESt10_Select1stIS2_ESt7greaterIiESaIS2_EE7_S_leftEPSt18_Rb_tree_node_base
FN:779,_ZNSt8_Rb_treeIiiSt9_IdentityIiESt7greaterIiESaIiEE7_S_leftEPSt18_Rb_tree_node_base
FN:787,_ZNSt8_Rb_treeINSt7__cxx1112basic_stringIcSt11char_traitsIcESaIcEEES5_St9_IdentityIS5_ESt4lessIS5_ESaIS5_EE8_S_rightEPSt18_Rb_tree_node_base
FN:787,_ZNSt8_Rb_treeIiSt4pairIKiNSt7__cxx1112basic_stringIcSt11char_traitsIcESaIcEEEESt10_Select1stIS8_ESt4lessIiESaIS8_EE8_S_rightEPSt18_Rb_tree_node_base
FN:787,_ZNSt8_Rb_treeIiiSt9_IdentityIiESt7greaterIiESaIiEE8_S_rightEPSt18_Rb_tree_node_base
FN:787,_ZNSt8_Rb_treeIiSt4pairIKiiESt10_Select1stIS2_ESt7greaterIiESaIS2_EE8_S_rightEPSt18_Rb_tree_node_base
FN:795,_ZNSt8_Rb_treeIiiSt9_IdentityIiESt7greaterIiESaIiEE6_S_keyEPKSt18_Rb_tree_node_base
FN:795,_ZNSt8_Rb_treeINSt7__cxx1112basic_stringIcSt11char_traitsIcESaIcEEES5_St9_IdentityIS5_ESt4lessIS5_ESaIS5_EE6_S_keyEPKSt18_Rb_tree_node_base
FN:795,_ZNSt8_Rb_treeIiSt4pairIKiNSt7__cxx1112basic_stringIcSt11char_traitsIcESaIcEEEESt10_Select1stIS8_ESt4lessIiESaIS8_EE6_S_keyEPKSt18_Rb_tree_node_base
FN:795,_ZNSt8_Rb_treeIiSt4pairIKiiESt10_Select1stIS2_ESt7greaterIiESaIS2_EE6_S_keyEPKSt18_Rb_tree_node_base
FN:799,_ZNSt8_Rb_treeINSt7__cxx1112basic_stringIcSt11char_traitsIcESaIcEEES5_St9_IdentityIS5_ESt4lessIS5_ESaIS5_EE10_S_minimumEPSt18_Rb_tree_node_base
FN:799,_ZNSt8_Rb_treeIiSt4pairIKiNSt7__cxx1112basic_stringIcSt11char_traitsIcESaIcEEEESt10_Select1stIS8_ESt4lessIiESaIS8_EE10_S_minimumEPSt18_Rb_tree_node_base
FN:799,_ZNSt8_Rb_treeIiSt4pairIKiiESt10_Select1stIS2_ESt7greaterIiESaIS2_EE10_S_minimumEPSt18_Rb_tree_node_base
FN:799,_ZNSt8_Rb_treeIiiSt9_IdentityIiESt7greaterIiESaIiEE10_S_minimumEPSt18_Rb_tree_node_base
FN:807,_ZNSt8_Rb_treeIiiSt9_IdentityIiESt7greaterIiESaIiEE10_S_maximumEPSt18_Rb_tree_node_base
FN:807,_ZNSt8_Rb_treeIiSt4pairIKiNSt7__cxx1112basic_stringIcSt11char_traitsIcESaIcEEEESt10_Select1stIS8_ESt4lessIiESaIS8_EE10_S_maximumEPSt18_Rb_tree_node_base
FN:807,_ZNSt8_Rb_treeINSt7__cxx1112basic_stringIcSt11char_traitsIcESaIcEEES5_St9_IdentityIS5_ESt4lessIS5_ESaIS5_EE10_S_maximumEPSt18_Rb_tree_node_base
FN:807,_ZNSt8_Rb_treeIiSt4pairIKiiESt10_Select1stIS2_ESt7greaterIiESaIS2_EE10_S_maximumEPSt18_Rb_tree_node_base
FN:887,_ZNSt8_Rb_treeIiSt4pairIKiiESt10_Select1stIS2_ESt7greaterIiESaIS2_EE7_M_copyILb0ENS8_11_Alloc_nodeEEEPSt13_Rb_tree_nodeIS2_ERKS8_RT0_
FN:887,_ZNSt8_Rb_treeINSt7__cxx1112basic_stringIcSt11char_traitsIcESaIcEEES5_St9_IdentityIS5_ESt4lessIS5_ESaIS5_EE7_M_copyILb0ENSB_11_Alloc_nodeEEEPSt13_Rb_tree_nodeIS5_ERKSB_RT0_
FN:887,_ZNSt8_Rb_treeIiSt4pairIKiNSt7__cxx1112basic_stringIcSt11char_traitsIcESaIcEEEESt10_Select1stIS8_ESt4lessIiESaIS8_EE7_M_copyILb0ENSE_11_Alloc_nodeEEEPSt13_Rb_tree_nodeIS8_ERKSE_RT0_
FN:887,_ZNSt8_Rb_treeIiiSt9_IdentityIiESt7greaterIiESaIiEE7_M_copyILb0ENS5_11_Alloc_nodeEEEPSt13_Rb_tree_nodeIiERKS5_RT0_
FN:898,_ZNSt8_Rb_treeIiSt4pairIKiiESt10_Select1stIS2_ESt7greaterIiESaIS2_EE7_M_copyERKS8_
FN:898,_ZNSt8_Rb_treeIiiSt9_IdentityIiESt7greaterIiESaIiEE7_M_copyERKS5_
FN:898,_ZNSt8_Rb_treeIiSt4pairIKiNSt7__cxx1112basic_stringIcSt11char_traitsIcESaIcEEEESt10_Select1stIS8_ESt4lessIiESaIS8_EE7_M_copyERKSE_
FN:898,_ZNSt8_Rb_treeINSt7__cxx1112basic_stringIcSt11char_traitsIcESaIcEEES5_St9_IdentityIS5_ESt4lessIS5_ESaIS5_EE7_M_copyERKSB_
FN:931,_ZNSt8_Rb_treeIiSt4pairIKiNSt7__cxx1112basic_stringIcSt11char_traitsIcESaIcEEEESt10_Select1stIS8_ESt4lessIiESaIS8_EEC2ERKSC_RKSD_
FN:931,_ZNSt8_Rb_treeINSt7__cxx1112basic_stringIcSt11char_traitsIcESaIcEEES5_St9_IdentityIS5_ESt4lessIS5_ESaIS5_EEC2ERKS9_RKSA_
FN:931,_ZNSt8_Rb_treeIiSt4pairIKiiESt10_Select1stIS2_ESt7greaterIiESaIS2_EEC2ERKS6_RKS7_
FN:931,_ZNSt8_Rb_treeIiiSt9_IdentityIiESt7greaterIiESaIiEEC2ERKS3_RKS4_
FN:935,_ZNSt8_Rb_treeIiiSt9_IdentityIiESt7greaterIiESaIiEEC2ERKS5_
FN:935,_ZNSt8_Rb_treeINSt7__cxx1112basic_stringIcSt11char_traitsIcESaIcEEES5_St9_IdentityIS5_ESt4lessIS5_ESaIS5_EEC2ERKSB_
FN:935,_ZNSt8_Rb_treeIiSt4pairIKiNSt7__cxx1112basic_stringIcSt11char_traitsIcESaIcEEEESt10_Select1stIS8_ESt4lessIiESaIS8_EEC2ERKSE_
FN:935,_ZNSt8_Rb_treeIiSt4pairIKiiESt10_Select1stIS2_ESt7greaterIiESaIS2_EEC2ERKS8_
FN:983,_ZNSt8_Rb_treeIiSt4pairIKiiESt10_Select1stIS2_ESt7greaterIiESaIS2_EED2Ev
FN:983,_ZNSt8_Rb_treeIiiSt9_IdentityIiESt7greaterIiESaIiEED2Ev
FN:983,_ZNSt8_Rb_treeIiSt4pairIKiNSt7__cxx1112basic_stringIcSt11char_traitsIcESaIcEEEESt10_Select1stIS8_ESt4lessIiESaIS8_EED2Ev
FN:983,_ZNSt8_Rb_treeINSt7__cxx1112basic_stringIcSt11char_traitsIcESaIcEEES5_St9_IdentityIS5_ESt4lessIS5_ESaIS5_EED2Ev
FN:995,_ZNSt8_Rb_treeIiSt4pairIKiiESt10_Select1stIS2_ESt7greaterIiESaIS2_EE5beginEv
FN:995,_ZNSt8_Rb_treeINSt7__cxx1112basic_stringIcSt11char_traitsIcESaIcEEES5_St9_IdentityIS5_ESt4lessIS5_ESaIS5_EE5beginEv
FN:995,_ZNSt8_Rb_treeIiSt4pairIKiNSt7__cxx1112basic_stringIcSt11char_traitsIcESaIcEEEESt10_Select1stIS8_ESt4lessIiESaIS8_EE5beginEv
FN:999,_ZNKSt8_Rb_treeINSt7__cxx1112basic_stringIcSt11char_traitsIcESaIcEEES5_St9_IdentityIS5_ESt4lessIS5_ESaIS5_EE5beginEv
FN:999,_ZNKSt8_Rb_treeIiiSt9_IdentityIiESt7greaterIiESaIiEE5beginEv
FN:1003,_ZNSt8_Rb_treeIiSt4pairIKiNSt7__cxx1112basic_stringIcSt11char_traitsIcESaIcEEEESt10_Select1stIS8_ESt4lessIiESaIS8_EE3endEv
FN:1003,_ZNSt8_Rb_treeINSt7__cxx1112basic_stringIcSt11char_traitsIcESaIcEEES5_St9_IdentityIS5_ESt4lessIS5_ESaIS5_EE3endEv
FN:1003,_ZNSt8_Rb_treeIiSt4pairIKiiESt10_Select1stIS2_ESt7greaterIiESaIS2_EE3endEv
FN:1003,_ZNSt8_Rb_treeIiiSt9_IdentityIiESt7greaterIiESaIiEE3endEv
FN:1031,_ZNKSt8_Rb_treeIiiSt9_IdentityIiESt7greaterIiESaIiEE4sizeEv
FN:1031,_ZNKSt8_Rb_treeIiSt4pairIKiiESt10_Select1stIS2_ESt7greaterIiESaIS2_EE4sizeEv
FN:1031,_ZNKSt8_Rb_treeINSt7__cxx1112basic_stringIcSt11char_traitsIcESaIcEEES5_St9_IdentityIS5_ESt4lessIS5_ESaIS5_EE4sizeEv
FN:1031,_ZNKSt8_Rb_treeIiSt4pairIKiNSt7__cxx1112basic_stringIcSt11char_traitsIcESaIcEEEESt10_Select1stIS8_ESt4lessIiESaIS8_EE4sizeEv
FN:1098,_ZNSt8_Rb_treeIiSt4pairIKiNSt7__cxx1112basic_stringIcSt11char_traitsIcESaIcEEEESt10_Select1stIS8_ESt4lessIiESaIS8_EE22_M_insert_range_uniqueIPKS8_EENSt9enable_ifIXsrSt7is_sameIS8_NSt15iterator_traitsIT_E10value_typeEE5valueEvE4typeESL_SL_
FN:1098,_ZNSt8_Rb_treeIiSt4pairIKiiESt10_Select1stIS2_ESt7greaterIiESaIS2_EE22_M_insert_range_uniqueIPKS2_EENSt9enable_ifIXsrSt7is_sameIS2_NSt15iterator_traitsIT_E10value_typeEE5valueEvE4typeESF_SF_
FN:1098,_ZNSt8_Rb_treeINSt7__cxx1112basic_stringIcSt11char_traitsIcESaIcEEES5_St9_IdentityIS5_ESt4lessIS5_ESaIS5_EE22_M_insert_range_uniqueIPKS5_EENSt9enable_ifIXsrSt7is_sameIS5_NSt15iterator_traitsIT_E10value_typeEE5valueEvE4typeESI_SI_
FN:1115,_ZNSt8_Rb_treeIiiSt9_IdentityIiESt7greaterIiESaIiEE21_M_insert_range_equalIPKiEENSt9enable_ifIXsrSt7is_sameIiNSt15iterator_traitsIT_E10value_typeEE5valueEvE4typeESC_SC_
FN:1115,_ZNSt8_Rb_treeINSt7__cxx1112basic_stringIcSt11char_traitsIcESaIcEEES5_St9_IdentityIS5_ESt4lessIS5_ESaIS5_EE21_M_insert_range_equalIPKS5_EENSt9enable_ifIXsrSt7is_sameIS5_NSt15iterator_traitsIT_E10value_typeEE5valueEvE4typeESI_SI_
FN:1192,_ZNSt8_Rb_treeINSt7__cxx1112basic_stringIcSt11char_traitsIcESaIcEEES5_St9_IdentityIS5_ESt4lessIS5_ESaIS5_EE5eraseB5cxx11ESt23_Rb_tree_const_iteratorIS5_E
FN:1192,_ZNSt8_Rb_treeIiiSt9_IdentityIiESt7greaterIiESaIiEE5eraseB5cxx11ESt23_Rb_tree_const_iteratorIiE
FN:1204,_ZNSt8_Rb_treeIiSt4pairIKiNSt7__cxx1112basic_stringIcSt11char_traitsIcESaIcEEEESt10_Select1stIS8_ESt4lessIiESaIS8_EE5eraseB5cxx11ESt17_Rb_tree_iteratorIS8_E
FN:1204,_ZNSt8_Rb_treeIiSt4pairIKiiESt10_Select1stIS2_ESt7greaterIiESaIS2_EE5eraseB5cxx11ESt17_Rb_tree_iteratorIS2_E
FN:1771,_ZNSt8_Rb_treeIiSt4pairIKiNSt7__cxx1112basic_stringIcSt11char_traitsIcESaIcEEEESt10_Select1stIS8_ESt4lessIiESaIS8_EE10_M_insert_IRKS8_NSE_11_Alloc_nodeEEESt17_Rb_tree_iteratorIS8_EPSt18_Rb_tree_node_baseSM_OT_RT0_
FN:1771,_ZNSt8_Rb_treeINSt7__cxx1112basic_stringIcSt11char_traitsIcESaIcEEES5_St9_IdentityIS5_ESt4lessIS5_ESaIS5_EE10_M_insert_IRKS5_NSB_11_Alloc_nodeEEESt17_Rb_tree_iteratorIS5_EPSt18_Rb_tree_node_baseSJ_OT_RT0_
FN:1771,_ZNSt8_Rb_treeIiiSt9_IdentityIiESt7greaterIiESaIiEE10_M_insert_IRKiNS5_11_Alloc_nodeEEESt17_Rb_tree_iteratorIiEPSt18_Rb_tree_node_baseSD_OT_RT0_
FN:1771,_ZNSt8_Rb_treeIiSt4pairIKiiESt10_Select1stIS2_ESt7greaterIiESaIS2_EE10_M_insert_IRKS2_NS8_11_Alloc_nodeEEESt17_Rb_tree_iteratorIS2_EPSt18_Rb_tree_node_baseSG_OT_RT0_
FN:1798,_ZNSt8_Rb_treeIiiSt9_IdentityIiESt7greaterIiESaIiEE15_M_insert_lowerIRKiEESt17_Rb_tree_iteratorIiEPSt18_Rb_tree_node_baseOT_
FN:1798,_ZNSt8_Rb_treeINSt7__cxx1112basic_stringIcSt11char_traitsIcESaIcEEES5_St9_IdentityIS5_ESt4lessIS5_ESaIS5_EE15_M_insert_lowerIRKS5_EESt17_Rb_tree_iteratorIS5_EPSt18_Rb_tree_node_baseOT_
FN:1823,_ZNSt8_Rb_treeINSt7__cxx1112basic_stringIcSt11char_traitsIcESaIcEEES5_St9_IdentityIS5_ESt4lessIS5_ESaIS5_EE21_M_insert_equal_lowerIRKS5_EESt17_Rb_tree_iteratorIS5_EOT_
FN:1823,_ZNSt8_Rb_treeIiiSt9_IdentityIiESt7greaterIiESaIiEE21_M_insert_equal_lowerIRKiEESt17_Rb_tree_iteratorIiEOT_
FN:1845,_ZNSt8_Rb_treeIiSt4pairIKiNSt7__cxx1112basic_stringIcSt11char_traitsIcESaIcEEEESt10_Select1stIS8_ESt4lessIiESaIS8_EE7_M_copyILb0ENSE_11_Alloc_nodeEEEPSt13_Rb_tree_nodeIS8_ESJ_PSt18_Rb_tree_node_baseRT0_
FN:1845,_ZNSt8_Rb_treeIiiSt9_IdentityIiESt7greaterIiESaIiEE7_M_copyILb0ENS5_11_Alloc_nodeEEEPSt13_Rb_tree_nodeIiESA_PSt18_Rb_tree_node_baseRT0_
FN:1845,_ZNSt8_Rb_treeINSt7__cxx1112basic_stringIcSt11char_traitsIcESaIcEEES5_St9_IdentityIS5_ESt4lessIS5_ESaIS5_EE7_M_copyILb0ENSB_11_Alloc_nodeEEEPSt13_Rb_tree_nodeIS5_ESG_PSt18_Rb_tree_node_baseRT0_
FN:1845,_ZNSt8_Rb_treeIiSt4pairIKiiESt10_Select1stIS2_ESt7greaterIiESaIS2_EE7_M_copyILb0ENS8_11_Alloc_nodeEEEPSt13_Rb_tree_nodeIS2_ESD_PSt18_Rb_tree_node_baseRT0_
FN:1883,_ZNSt8_Rb_treeINSt7__cxx1112basic_stringIcSt11char_traitsIcESaIcEEES5_St9_IdentityIS5_ESt4lessIS5_ESaIS5_EE8_M_eraseEPSt13_Rb_tree_nodeIS5_E
FN:1883,_ZNSt8_Rb_treeIiSt4pairIKiNSt7__cxx1112basic_stringIcSt11char_traitsIcESaIcEEEESt10_Select1stIS8_ESt4lessIiESaIS8_EE8_M_eraseEPSt13_Rb_tree_nodeIS8_E
FN:1883,_ZNSt8_Rb_treeIiSt4pairIKiiESt10_Select1stIS2_ESt7greaterIiESaIS2_EE8_M_eraseEPSt13_Rb_tree_nodeIS2_E
FN:1883,_ZNSt8_Rb_treeIiiSt9_IdentityIiESt7greaterIiESaIiEE8_M_eraseEPSt13_Rb_tree_nodeIiE
FN:1900,_ZNSt8_Rb_treeIiSt4pairIKiNSt7__cxx1112basic_stringIcSt11char_traitsIcESaIcEEEESt10_Select1stIS8_ESt4lessIiESaIS8_EE14_M_lower_boundEPSt13_Rb_tree_nodeIS8_EPSt18_Rb_tree_node_baseRS1_
FN:1900,_ZNSt8_Rb_treeINSt7__cxx1112basic_stringIcSt11char_traitsIcESaIcEEES5_St9_IdentityIS5_ESt4lessIS5_ESaIS5_EE14_M_lower_boundEPSt13_Rb_tree_nodeIS5_EPSt18_Rb_tree_node_baseRKS5_
FN:1900,_ZNSt8_Rb_treeIiSt4pairIKiiESt10_Select1stIS2_ESt7greaterIiESaIS2_EE14_M_lower_boundEPSt13_Rb_tree_nodeIS2_EPSt18_Rb_tree_node_baseRS1_
FN:1900,_ZNSt8_Rb_treeIiiSt9_IdentityIiESt7greaterIiESaIiEE14_M_lower_boundEPSt13_Rb_tree_nodeIiEPSt18_Rb_tree_node_baseRKi
FN:2061,_ZNSt8_Rb_treeIiSt4pairIKiiESt10_Select1stIS2_ESt7greaterIiESaIS2_EE24_M_get_insert_unique_posERS1_
FN:2061,_ZNSt8_Rb_treeINSt7__cxx1112basic_stringIcSt11char_traitsIcESaIcEEES5_St9_IdentityIS5_ESt4lessIS5_ESaIS5_EE24_M_get_insert_unique_posERKS5_
FN:2061,_ZNSt8_Rb_treeIiSt4pairIKiNSt7__cxx1112basic_stringIcSt11char_traitsIcESaIcEEEESt10_Select1stIS8_ESt4lessIiESaIS8_EE24_M_get_insert_unique_posERS1_
FN:2093,_ZNSt8_Rb_treeINSt7__cxx1112basic_stringIcSt11char_traitsIcESaIcEEES5_St9_IdentityIS5_ESt4lessIS5_ESaIS5_EE23_M_get_insert_equal_posERKS5_
FN:2093,_ZNSt8_Rb_treeIiiSt9_IdentityIiESt7greaterIiESaIiEE23_M_get_insert_equal_posERKi
FN:2163,_ZNSt8_Rb_treeIiSt4pairIKiiESt10_Select1stIS2_ESt7greaterIiESaIS2_EE29_M_get_insert_hint_unique_posESt23_Rb_tree_const_iteratorIS2_ERS1_
FN:2163,_ZNSt8_Rb_treeIiSt4pairIKiNSt7__cxx1112basic_stringIcSt11char_traitsIcESaIcEEEESt10_Select1stIS8_ESt4lessIiESaIS8_EE29_M_get_insert_hint_unique_posESt23_Rb_tree_const_iteratorIS8_ERS1_
FN:2163,_ZNSt8_Rb_treeINSt7__cxx1112basic_stringIcSt11char_traitsIcESaIcEEES5_St9_IdentityIS5_ESt4lessIS5_ESaIS5_EE29_M_get_insert_hint_unique_posESt23_Rb_tree_const_iteratorIS5_ERKS5_
FN:2224,_ZNSt8_Rb_treeIiSt4pairIKiNSt7__cxx1112basic_stringIcSt11char_traitsIcESaIcEEEESt10_Select1stIS8_ESt4lessIiESaIS8_EE17_M_insert_unique_IRKS8_NSE_11_Alloc_nodeEEESt17_Rb_tree_iteratorIS8_ESt23_Rb_tree_const_iteratorIS8_EOT_RT0_
FN:2224,_ZNSt8_Rb_treeINSt7__cxx1112basic_stringIcSt11char_traitsIcESaIcEEES5_St9_IdentityIS5_ESt4lessIS5_ESaIS5_EE17_M_insert_unique_IRKS5_NSB_11_Alloc_nodeEEESt17_Rb_tree_iteratorIS5_ESt23_Rb_tree_const_iteratorIS5_EOT_RT0_
FN:2224,_ZNSt8_Rb_treeIiSt4pairIKiiESt10_Select1stIS2_ESt7greaterIiESaIS2_EE17_M_insert_unique_IRKS2_NS8_11_Alloc_nodeEEESt17_Rb_tree_iteratorIS2_ESt23_Rb_tree_const_iteratorIS2_EOT_RT0_
FN:2249,_ZNSt8_Rb_treeIiiSt9_IdentityIiESt7greaterIiESaIiEE28_M_get_insert_hint_equal_posESt23_Rb_tree_const_iteratorIiERKi
FN:2249,_ZNSt8_Rb_treeINSt7__cxx1112basic_stringIcSt11char_traitsIcESaIcEEES5_St9_IdentityIS5_ESt4lessIS5_ESaIS5_EE28_M_get_insert_hint_equal_posESt23_Rb_tree_const_iteratorIS5_ERKS5_
FN:2306,_ZNSt8_Rb_treeIiiSt9_IdentityIiESt7greaterIiESaIiEE16_M_insert_equal_IRKiNS5_11_Alloc_nodeEEESt17_Rb_tree_iteratorIiESt23_Rb_tree_const_iteratorIiEOT_RT0_
FN:2306,_ZNSt8_Rb_treeINSt7__cxx1112basic_stringIcSt11char_traitsIcESaIcEEES5_St9_IdentityIS5_ESt4lessIS5_ESaIS5_EE16_M_insert_equal_IRKS5_NSB_11_Alloc_nodeEEESt17_Rb_tree_iteratorIS5_ESt23_Rb_tree_const_iteratorIS5_EOT_RT0_
FN:2480,_ZNSt8_Rb_treeIiiSt9_IdentityIiESt7greaterIiESaIiEE12_M_erase_auxESt23_Rb_tree_const_iteratorIiE
FN:2480,_ZNSt8_Rb_treeIiSt4pairIKiNSt7__cxx1112basic_stringIcSt11char_traitsIcESaIcEEEESt10_Select1stIS8_ESt4lessIiESaIS8_EE12_M_erase_auxESt23_Rb_tree_const_iteratorIS8_E
FN:2480,_ZNSt8_Rb_treeINSt7__cxx1112basic_stringIcSt11char_traitsIcESaIcEEES5_St9_IdentityIS5_ESt4lessIS5_ESaIS5_EE12_M_erase_auxESt23_Rb_tree_const_iteratorIS5_E
FN:2480,_ZNSt8_Rb_treeIiSt4pairIKiiESt10_Select1stIS2_ESt7greaterIiESaIS2_EE12_M_erase_auxESt23_Rb_tree_const_iteratorIS2_E
FN:2520,_ZNSt8_Rb_treeIiSt4pairIKiNSt7__cxx1112basic_stringIcSt11char_traitsIcESaIcEEEESt10_Select1stIS8_ESt4lessIiESaIS8_EE4findERS1_
FN:2520,_ZNSt8_Rb_treeIiSt4pairIKiiESt10_Select1stIS2_ESt7greaterIiESaIS2_EE4findERS1_
FN:2520,_ZNSt8_Rb_treeINSt7__cxx1112basic_stringIcSt11char_traitsIcESaIcEEES5_St9_IdentityIS5_ESt4lessIS5_ESaIS5_EE4findERKS5_
FN:2520,_ZNSt8_Rb_treeIiiSt9_IdentityIiESt7greaterIiESaIiEE4findERKi
FNDA:136,_ZNSt8_Rb_treeIiSt4pairIKiNSt7__cxx1112basic_stringIcSt11char_traitsIcESaIcEEEESt10_Select1stIS8_ESt4lessIiESaIS8_EE11_M_get_nodeEv
FNDA:13,_ZNSt8_Rb_treeIiSt4pairIKiiESt10_Select1stIS2_ESt7greaterIiESaIS2_EE5beginEv
FNDA:137,_ZNSt8_Rb_treeIiSt4pairIKiNSt7__cxx1112basic_stringIcSt11char_traitsIcESaIcEEEESt10_Select1stIS8_ESt4lessIiESaIS8_EE8_M_eraseEPSt13_Rb_tree_nodeIS8_E
FNDA:115,_ZNSt8_Rb_treeINSt7__cxx1112basic_stringIcSt11char_traitsIcESaIcEEES5_St9_IdentityIS5_ESt4lessIS5_ESaIS5_EE7_S_leftEPSt18_Rb_tree_node_base
FNDA:8,_ZNKSt8_Rb_treeIiSt4pairIKiiESt10_Select1stIS2_ESt7greaterIiESaIS2_EE7_M_rootEv
FNDA:20,_ZNSt8_Rb_treeIiiSt9_IdentityIiESt7greaterIiESaIiEE14_M_create_nodeIJRKiEEEPSt13_Rb_tree_nodeIiEDpOT_
FNDA:7,_ZNSt8_Rb_treeINSt7__cxx1112basic_stringIcSt11char_traitsIcESaIcEEES5_St9_IdentityIS5_ESt4lessIS5_ESaIS5_EEC2ERKSB_
FNDA:16,_ZNSt8_Rb_treeIiSt4pairIKiNSt7__cxx1112basic_stringIcSt11char_traitsIcESaIcEEEESt10_Select1stIS8_ESt4lessIiESaIS8_EEC2ERKSE_
FNDA:13,_ZNKSt23_Rb_tree_const_iteratorISt4pairIKiiEE13_M_const_castEv
FNDA:4,_ZNSt8_Rb_treeIiiSt9_IdentityIiESt7greaterIiESaIiEE7_M_copyILb0ENS5_11_Alloc_nodeEEEPSt13_Rb_tree_nodeIiESA_PSt18_Rb_tree_node_baseRT0_
FNDA:1,_ZNSt8_Rb_treeIiiSt9_IdentityIiESt7greaterIiESaIiEE10_S_maximumEPSt18_Rb_tree_node_base
FNDA:544,_ZNSt8_Rb_treeIiSt4pairIKiNSt7__cxx1112basic_stringIcSt11char_traitsIcESaIcEEEESt10_Select1stIS8_ESt4lessIiESaIS8_EE21_M_get_Node_allocatorEv
FNDA:7,_ZNSt8_Rb_treeINSt7__cxx1112basic_stringIcSt11char_traitsIcESaIcEEES5_St9_IdentityIS5_ESt4lessIS5_ESaIS5_EE10_S_minimumEPSt18_Rb_tree_node_base
FNDA:1,_ZNKSt8_Rb_treeIiiSt9_IdentityIiESt7greaterIiESaIiEE7_M_rootEv
FNDA:20,_ZNSt8_Rb_treeIiiSt9_IdentityIiESt7greaterIiESaIiEE15_M_destroy_nodeEPSt13_Rb_tree_nodeIiE
FNDA:53,_ZNSt8_Rb_treeIiSt4pairIKiiESt10_Select1stIS2_ESt7greaterIiESaIS2_EE6_M_endEv
FNDA:20,_ZNSt8_Rb_treeIiiSt9_IdentityIiESt7greaterIiESaIiEE11_M_put_nodeEPSt13_Rb_tree_nodeIiE
FNDA:9,_ZNSt8_Rb_treeINSt7__cxx1112basic_stringIcSt11char_traitsIcESaIcEEES5_St9_IdentityIS5_ESt4lessIS5_ESaIS5_EE28_M_get_insert_hint_equal_posESt23_Rb_tree_const_iteratorIS5_ERKS5_
FNDA:8,_ZNSt8_Rb_treeIiSt4pairIKiiESt10_Select1stIS2_ESt7greaterIiESaIS2_EE4findERS1_
FNDA:64,_ZNSt8_Rb_treeIiSt4pairIKiNSt7__cxx1112basic_stringIcSt11char_traitsIcESaIcEEEESt10_Select1stIS8_ESt4lessIiESaIS8_EE6_M_endEv
FNDA:120,_ZNSt17_Rb_tree_iteratorISt4pairIKiNSt7__cxx1112basic_stringIcSt11char_traitsIcESaIcEEEEEppEi
FNDA:271,_ZNSt8_Rb_treeIiSt4pairIKiNSt7__cxx1112basic_stringIcSt11char_traitsIcESaIcEEEESt10_Select1stIS8_ESt4lessIiESaIS8_EE7_S_leftEPSt18_Rb_tree_node_base
FNDA:190,_ZNSt8_Rb_treeIiSt4pairIKiNSt7__cxx1112basic_stringIcSt11char_traitsIcESaIcEEEESt10_Select1stIS8_ESt4lessIiESaIS8_EE8_S_rightEPSt18_Rb_tree_node_base
FNDA:81,_ZNSt8_Rb_treeINSt7__cxx1112basic_stringIcSt11char_traitsIcESaIcEEES5_St9_IdentityIS5_ESt4lessIS5_ESaIS5_EE6_S_keyEPKSt18_Rb_tree_node_base
FNDA:12,_ZNSt8_Rb_treeINSt7__cxx1112basic_stringIcSt11char_traitsIcESaIcEEES5_St9_IdentityIS5_ESt4lessIS5_ESaIS5_EE5eraseB5cxx11ESt23_Rb_tree_const_iteratorIS5_E
FNDA:1,_ZNSt8_Rb_treeIiiSt9_IdentityIiESt7greaterIiESaIiEE7_M_copyERKS5_
FNDA:68,_ZNSt8_Rb_treeIiSt4pairIKiNSt7__cxx1112basic_stringIcSt11char_traitsIcESaIcEEEESt10_Select1stIS8_ESt4lessIiESaIS8_EE7_M_copyILb0ENSE_11_Alloc_nodeEEEPSt13_Rb_tree_nodeIS8_ESJ_PSt18_Rb_tree_node_baseRT0_
FNDA:16,_ZNSt8_Rb_treeIiSt4pairIKiNSt7__cxx1112basic_stringIcSt11char_traitsIcESaIcEEEESt10_Select1stIS8_ESt4lessIiESaIS8_EE10_M_insert_IRKS8_NSE_11_Alloc_nodeEEESt17_Rb_tree_iteratorIS8_EPSt18_Rb_tree_node_baseSM_OT_RT0_
FNDA:30,_ZNSt8_Rb_treeIiiSt9_IdentityIiESt7greaterIiESaIiEE6_S_keyEPKSt18_Rb_tree_node_base
FNDA:61,_ZNSt8_Rb_treeINSt7__cxx1112basic_stringIcSt11char_traitsIcESaIcEEES5_St9_IdentityIS5_ESt4lessIS5_ESaIS5_EE17_M_construct_nodeIJRKS5_EEEvPSt13_Rb_tree_nodeIS5_EDpOT_
FNDA:36,_ZNKSt8_Rb_treeIiSt4pairIKiiESt10_Select1stIS2_ESt7greaterIiESaIS2_EE9_M_mbeginEv
FNDA:21,_ZNKSt8_Rb_treeIiSt4pairIKiiESt10_Select1stIS2_ESt7greaterIiESaIS2_EE4sizeEv
FNDA:17,_ZSteqRKSt17_Rb_tree_iteratorINSt7__cxx1112basic_stringIcSt11char_traitsIcESaIcEEEES8_
FNDA:16,_ZNSt8_Rb_treeIiSt4pairIKiNSt7__cxx1112basic_stringIcSt11char_traitsIcESaIcEEEESt10_Select1stIS8_ESt4lessIiESaIS8_EE4findERS1_
FNDA:60,_ZNSt8_Rb_treeINSt7__cxx1112basic_stringIcSt11char_traitsIcESaIcEEES5_St9_IdentityIS5_ESt4lessIS5_ESaIS5_EE8_M_eraseEPSt13_Rb_tree_nodeIS5_E
FNDA:8,_ZNSt8_Rb_treeIiSt4pairIKiiESt10_Select1stIS2_ESt7greaterIiESaIS2_EE7_M_copyILb0ENS8_11_Alloc_nodeEEEPSt13_Rb_tree_nodeIS2_ERKS8_RT0_
FNDA:98,_ZNSt17_Rb_tree_iteratorISt4pairIKiNSt7__cxx1112basic_stringIcSt11char_traitsIcESaIcEEEEEC2EPSt18_Rb_tree_node_base
FNDA:1,_ZNSt8_Rb_treeIiiSt9_IdentityIiESt7greaterIiESaIiEEC2ERKS5_
FNDA:8,_ZNSt8_Rb_treeIiSt4pairIKiiESt10_Select1stIS2_ESt7greaterIiESaIS2_EE7_M_copyERKS8_
FNDA:54,_ZNSt8_Rb_treeINSt7__cxx1112basic_stringIcSt11char_traitsIcESaIcEEES5_St9_IdentityIS5_ESt4lessIS5_ESaIS5_EE12_M_rightmostEv
FNDA:94,_ZNKSt13_Rb_tree_nodeISt4pairIKiNSt7__cxx1112basic_stringIcSt11char_traitsIcESaIcEEEEE9_M_valptrEv
FNDA:61,_ZNSt8_Rb_treeINSt7__cxx1112basic_stringIcSt11char_traitsIcESaIcEEES5_St9_IdentityIS5_ESt4lessIS5_ESaIS5_EE14_M_create_nodeIJRKS5_EEEPSt13_Rb_tree_nodeIS5_EDpOT_
FNDA:1,_ZNSt8_Rb_treeIiSt4pairIKiiESt10_Select1stIS2_ESt7greaterIiESaIS2_EE22_M_insert_range_uniqueIPKS2_EENSt9enable_ifIXsrSt7is_sameIS2_NSt15iterator_traitsIT_E10value_typeEE5valueEvE4typeESF_SF_
FNDA:0,_ZNSt8_Rb_treeIiiSt9_IdentityIiESt7greaterIiESaIiEE15_M_insert_lowerIRKiEESt17_Rb_tree_iteratorIiEPSt18_Rb_tree_node_baseOT_
FNDA:7,_ZNSt8_Rb_treeINSt7__cxx1112basic_stringIcSt11char_traitsIcESaIcEEES5_St9_IdentityIS5_ESt4lessIS5_ESaIS5_EE7_M_copyILb0ENSB_11_Alloc_nodeEEEPSt13_Rb_tree_nodeIS5_ERKSB_RT0_
FNDA:14,_ZNKSt8_Rb_treeIiiSt9_IdentityIiESt7greaterIiESaIiEE4sizeEv
FNDA:13,_ZNSt8_Rb_treeIiiSt9_IdentityIiESt7greaterIiESaIiEE28_M_get_insert_hint_equal_posESt23_Rb_tree_const_iteratorIiERKi
FNDA:1,_ZNSt8_Rb_treeIiSt4pairIKiNSt7__cxx1112basic_stringIcSt11char_traitsIcESaIcEEEESt10_Select1stIS8_ESt4lessIiESaIS8_EE22_M_insert_range_uniqueIPKS8_EENSt9enable_ifIXsrSt7is_sameIS8_NSt15iterator_traitsIT_E10value_typeEE5valueEvE4typeESL_SL_
FNDA:61,_ZNKSt8_Rb_treeINSt7__cxx1112basic_stringIcSt11char_traitsIcESaIcEEES5_St9_IdentityIS5_ESt4lessIS5_ESaIS5_EE11_Alloc_nodeclIRKS5_EEPSt13_Rb_tree_nodeIS5_EOT_
FNDA:9,_ZNSt8_Rb_treeIiSt4pairIKiiESt10_Select1stIS2_ESt7greaterIiESaIS2_EED2Ev
FNDA:1,_ZNSt8_Rb_treeIiSt4pairIKiNSt7__cxx1112basic_stringIcSt11char_traitsIcESaIcEEEESt10_Select1stIS8_ESt4lessIiESaIS8_EEC2ERKSC_RKSD_
FNDA:81,_ZNSt8_Rb_treeIiSt4pairIKiiESt10_Select1stIS2_ESt7greaterIiESaIS2_EE11_M_get_nodeEv
FNDA:34,_ZNSt8_Rb_treeIiSt4pairIKiNSt7__cxx1112basic_stringIcSt11char_traitsIcESaIcEEEESt10_Select1stIS8_ESt4lessIiESaIS8_EE8_M_beginEv
FNDA:13,_ZNSt8_Rb_treeIiSt4pairIKiiESt10_Select1stIS2_ESt7greaterIiESaIS2_EE29_M_get_insert_hint_unique_posESt23_Rb_tree_const_iteratorIS2_ERS1_
FNDA:17,_ZSteqRKSt17_Rb_tree_iteratorISt4pairIKiNSt7__cxx1112basic_stringIcSt11char_traitsIcESaIcEEEEESB_
FNDA:104,_ZNSt8_Rb_treeINSt7__cxx1112basic_stringIcSt11char_traitsIcESaIcEEES5_St9_IdentityIS5_ESt4lessIS5_ESaIS5_EE8_S_rightEPSt18_Rb_tree_node_base
FNDA:68,_ZNSt17_Rb_tree_iteratorISt4pairIKiiEEppEi
FNDA:0,_ZNSt8_Rb_treeINSt7__cxx1112basic_stringIcSt11char_traitsIcESaIcEEES5_St9_IdentityIS5_ESt4lessIS5_ESaIS5_EE21_M_insert_equal_lowerIRKS5_EESt17_Rb_tree_iteratorIS5_EOT_
FNDA:136,_ZNSt8_Rb_treeIiSt4pairIKiNSt7__cxx1112basic_stringIcSt11char_traitsIcESaIcEEEESt10_Select1stIS8_ESt4lessIiESaIS8_EE15_M_destroy_nodeEPSt13_Rb_tree_nodeIS8_E
FNDA:120,_ZNKSt17_Rb_tree_iteratorISt4pairIKiNSt7__cxx1112basic_stringIcSt11char_traitsIcESaIcEEEEEdeEv
FNDA:141,_ZNSt8_Rb_treeIiSt4pairIKiiESt10_Select1stIS2_ESt7greaterIiESaIS2_EE8_S_rightEPSt18_Rb_tree_node_base
FNDA:51,_ZNSt8_Rb_treeIiiSt9_IdentityIiESt7greaterIiESaIiEE8_S_rightEPSt18_Rb_tree_node_base
FNDA:2,_ZNSt8_Rb_treeINSt7__cxx1112basic_stringIcSt11char_traitsIcESaIcEEES5_St9_IdentityIS5_ESt4lessIS5_ESaIS5_EE23_M_get_insert_equal_posERKS5_
FNDA:1,_ZNSt23_Rb_tree_const_iteratorIiEC2EPKSt18_Rb_tree_node_base
FNDA:20,_ZNSt8_Rb_treeIiiSt9_IdentityIiESt7greaterIiESaIiEE11_M_get_nodeEv
FNDA:1,_ZNSt8_Rb_treeIiiSt9_IdentityIiESt7greaterIiESaIiEE21_M_insert_range_equalIPKiEENSt9enable_ifIXsrSt7is_sameIiNSt15iterator_traitsIT_E10value_typeEE5valueEvE4typeESC_SC_
FNDA:4,_ZNSt17_Rb_tree_iteratorINSt7__cxx1112basic_stringIcSt11char_traitsIcESaIcEEEEmmEv
FNDA:22,_ZNSt8_Rb_treeINSt7__cxx1112basic_stringIcSt11char_traitsIcESaIcEEES5_St9_IdentityIS5_ESt4lessIS5_ESaIS5_EE7_M_copyILb0ENSB_11_Alloc_nodeEEEPSt13_Rb_tree_nodeIS5_ESG_PSt18_Rb_tree_node_baseRT0_
FNDA:8,_ZNSt8_Rb_treeIiSt4pairIKiiESt10_Select1stIS2_ESt7greaterIiESaIS2_EE10_S_minimumEPSt18_Rb_tree_node_base
FNDA:16,_ZNSt8_Rb_treeIiSt4pairIKiNSt7__cxx1112basic_stringIcSt11char_traitsIcESaIcEEEESt10_Select1stIS8_ESt4lessIiESaIS8_EE29_M_get_insert_hint_unique_posESt23_Rb_tree_const_iteratorIS8_ERS1_
FNDA:8,_ZNSt8_Rb_treeIiSt4pairIKiiESt10_Select1stIS2_ESt7greaterIiESaIS2_EE13_Rb_tree_implIS6_Lb1EEC2ERKSA_
FNDA:1,_ZNSt8_Rb_treeIiiSt9_IdentityIiESt7greaterIiESaIiEE13_Rb_tree_implIS3_Lb1EEC2ERKS7_
FNDA:32,_ZNKSt8_Rb_treeIiSt4pairIKiNSt7__cxx1112basic_stringIcSt11char_traitsIcESaIcEEEESt10_Select1stIS8_ESt4lessIiESaIS8_EE4sizeEv
FNDA:81,_ZNKSt8_Rb_treeIiSt4pairIKiiESt10_Select1stIS2_ESt7greaterIiESaIS2_EE11_Alloc_nodeclIRKS2_EEPSt13_Rb_tree_nodeIS2_EOT_
FNDA:61,_ZNSt8_Rb_treeINSt7__cxx1112basic_stringIcSt11char_traitsIcESaIcEEES5_St9_IdentityIS5_ESt4lessIS5_ESaIS5_EE12_M_drop_nodeEPSt13_Rb_tree_nodeIS5_E
FNDA:32,_ZNSt8_Rb_treeIiSt4pairIKiNSt7__cxx1112basic_stringIcSt11char_traitsIcESaIcEEEESt10_Select1stIS8_ESt4lessIiESaIS8_EE3endEv
FNDA:26,_ZNSt8_Rb_treeINSt7__cxx1112basic_stringIcSt11char_traitsIcESaIcEEES5_St9_IdentityIS5_ESt4lessIS5_ESaIS5_EE17_M_insert_unique_IRKS5_NSB_11_Alloc_nodeEEESt17_Rb_tree_iteratorIS5_ESt23_Rb_tree_const_iteratorIS5_EOT_RT0_
FNDA:39,_ZNSt8_Rb_treeIiiSt9_IdentityIiESt7greaterIiESaIiEE7_S_leftEPSt18_Rb_tree_node_base
FNDA:44,_ZNSt8_Rb_treeIiiSt9_IdentityIiESt7greaterIiESaIiEE6_M_endEv
FNDA:9,_ZNSt8_Rb_treeIiSt4pairIKiiESt10_Select1stIS2_ESt7greaterIiESaIS2_EE11_Alloc_nodeC2ERS8_
FNDA:13,_ZNSt8_Rb_treeIiiSt9_IdentityIiESt7greaterIiESaIiEE10_M_insert_IRKiNS5_11_Alloc_nodeEEESt17_Rb_tree_iteratorIiEPSt18_Rb_tree_node_baseSD_OT_RT0_
FNDA:16,_ZNSt8_Rb_treeIiSt4pairIKiNSt7__cxx1112basic_stringIcSt11char_traitsIcESaIcEEEESt10_Select1stIS8_ESt4lessIiESaIS8_EE13_Rb_tree_implISC_Lb1EEC2ERKSG_
FNDA:8,_ZNSt8_Rb_treeIiSt4pairIKiiESt10_Select1stIS2_ESt7greaterIiESaIS2_EE7_M_rootEv
FNDA:11,_ZNSt8_Rb_treeIiSt4pairIKiiESt10_Select1stIS2_ESt7greaterIiESaIS2_EE24_M_get_insert_unique_posERS1_
FNDA:89,_ZNKSt13_Rb_tree_nodeIiE9_M_valptrEv
FNDA:1,_ZNSt8_Rb_treeIiiSt9_IdentityIiESt7greaterIiESaIiEE11_M_leftmostEv
FNDA:3,_ZNSt8_Rb_treeINSt7__cxx1112basic_stringIcSt11char_traitsIcESaIcEEES5_St9_IdentityIS5_ESt4lessIS5_ESaIS5_EEC2ERKS9_RKSA_
FNDA:16,_ZNSt17_Rb_tree_iteratorISt4pairIKiNSt7__cxx1112basic_stringIcSt11char_traitsIcESaIcEEEEEppEv
FNDA:6,_ZNSt8_Rb_treeINSt7__cxx1112basic_stringIcSt11char_traitsIcESaIcEEES5_St9_IdentityIS5_ESt4lessIS5_ESaIS5_EE5beginEv
FNDA:6,_ZNSt8_Rb_treeIiiSt9_IdentityIiESt7greaterIiESaIiEE4findERKi
FNDA:13,_ZNSt8_Rb_treeIiiSt9_IdentityIiESt7greaterIiESaIiEE16_M_insert_equal_IRKiNS5_11_Alloc_nodeEEESt17_Rb_tree_iteratorIiESt23_Rb_tree_const_iteratorIiEOT_RT0_
FNDA:15,_ZNSt8_Rb_treeIiSt4pairIKiNSt7__cxx1112basic_stringIcSt11char_traitsIcESaIcEEEESt10_Select1stIS8_ESt4lessIiESaIS8_EE7_M_copyILb0ENSE_11_Alloc_nodeEEEPSt13_Rb_tree_nodeIS8_ERKSE_RT0_
FNDA:136,_ZNSt8_Rb_treeIiSt4pairIKiNSt7__cxx1112basic_stringIcSt11char_traitsIcESaIcEEEESt10_Select1stIS8_ESt4lessIiESaIS8_EE12_M_drop_nodeEPSt13_Rb_tree_nodeIS8_E
FNDA:80,_ZNSt8_Rb_treeIiiSt9_IdentityIiESt7greaterIiESaIiEE21_M_get_Node_allocatorEv
FNDA:49,_ZNKSt8_Rb_treeINSt7__cxx1112basic_stringIcSt11char_traitsIcESaIcEEES5_St9_IdentityIS5_ESt4lessIS5_ESaIS5_EE9_M_mbeginEv
FNDA:14,_ZNSt23_Rb_tree_const_iteratorINSt7__cxx1112basic_stringIcSt11char_traitsIcESaIcEEEEppEv
FNDA:6,_ZNSt8_Rb_treeIiiSt9_IdentityIiESt7greaterIiESaIiEE12_M_erase_auxESt23_Rb_tree_const_iteratorIiE
FNDA:42,_ZNKSt8_Rb_treeINSt7__cxx1112basic_stringIcSt11char_traitsIcESaIcEEES5_St9_IdentityIS5_ESt4lessIS5_ESaIS5_EE4sizeEv
FNDA:38,_ZNSt23_Rb_tree_const_iteratorINSt7__cxx1112basic_stringIcSt11char_traitsIcESaIcEEEEppEi
FNDA:68,_ZNSt8_Rb_treeIiSt4pairIKiiESt10_Select1stIS2_ESt7greaterIiESaIS2_EE13_M_clone_nodeILb0ENS8_11_Alloc_nodeEEEPSt13_Rb_tree_nodeIS2_ESD_RT0_
FNDA:18,_ZNSt8_Rb_treeINSt7__cxx1112basic_stringIcSt11char_traitsIcESaIcEEES5_St9_IdentityIS5_ESt4lessIS5_ESaIS5_EE24_M_get_insert_unique_posERKS5_
FNDA:244,_ZNSt8_Rb_treeINSt7__cxx1112basic_stringIcSt11char_traitsIcESaIcEEES5_St9_IdentityIS5_ESt4lessIS5_ESaIS5_EE21_M_get_Node_allocatorEv
FNDA:8,_ZNKSt8_Rb_treeINSt7__cxx1112basic_stringIcSt11char_traitsIcESaIcEEES5_St9_IdentityIS5_ESt4lessIS5_ESaIS5_EE5beginEv
FNDA:16,_ZNKSt23_Rb_tree_const_iteratorISt4pairIKiNSt7__cxx1112basic_stringIcSt11char_traitsIcESaIcEEEEE13_M_const_castEv
FNDA:1,_ZNSt8_Rb_treeIiSt4pairIKiNSt7__cxx1112basic_stringIcSt11char_traitsIcESaIcEEEESt10_Select1stIS8_ESt4lessIiESaIS8_EE13_Rb_tree_implISC_Lb1EEC2ERKSC_OSaISt13_Rb_tree_nodeIS8_EE
FNDA:16,_ZNSt8_Rb_treeIiSt4pairIKiNSt7__cxx1112basic_stringIcSt11char_traitsIcESaIcEEEESt10_Select1stIS8_ESt4lessIiESaIS8_EE14_M_lower_boundEPSt13_Rb_tree_nodeIS8_EPSt18_Rb_tree_node_baseRS1_
FNDA:7,_ZNKSt23_Rb_tree_const_iteratorIiEdeEv
FNDA:17,_ZNSt8_Rb_treeIiSt4pairIKiNSt7__cxx1112basic_stringIcSt11char_traitsIcESaIcEEEESt10_Select1stIS8_ESt4lessIiESaIS8_EED2Ev
FNDA:10,_ZNSt8_Rb_treeINSt7__cxx1112basic_stringIcSt11char_traitsIcESaIcEEES5_St9_IdentityIS5_ESt4lessIS5_ESaIS5_EE11_Alloc_nodeC2ERSB_
FNDA:40,_ZNSt15_Rb_tree_header8_M_resetEv
FNDA:15,_ZNSt8_Rb_treeIiSt4pairIKiNSt7__cxx1112basic_stringIcSt11char_traitsIcESaIcEEEESt10_Select1stIS8_ESt4lessIiESaIS8_EE10_S_maximumEPSt18_Rb_tree_node_base
FNDA:19,_ZNSt8_Rb_treeIiiSt9_IdentityIiESt7greaterIiESaIiEE8_M_beginEv
FNDA:28,_ZNSt8_Rb_treeIiSt4pairIKiiESt10_Select1stIS2_ESt7greaterIiESaIS2_EE8_M_beginEv
FNDA:81,_ZNSt8_Rb_treeIiSt4pairIKiiESt10_Select1stIS2_ESt7greaterIiESaIS2_EE12_M_drop_nodeEPSt13_Rb_tree_nodeIS2_E
FNDA:7,_ZNSt8_Rb_treeINSt7__cxx1112basic_stringIcSt11char_traitsIcESaIcEEES5_St9_IdentityIS5_ESt4lessIS5_ESaIS5_EE11_M_leftmostEv
FNDA:46,_ZNSt8_Rb_treeIiSt4pairIKiNSt7__cxx1112basic_stringIcSt11char_traitsIcESaIcEEEESt10_Select1stIS8_ESt4lessIiESaIS8_EE6_S_keyEPKSt18_Rb_tree_node_base
FNDA:16,_ZNSt8_Rb_treeIiSt4pairIKiNSt7__cxx1112basic_stringIcSt11char_traitsIcESaIcEEEESt10_Select1stIS8_ESt4lessIiESaIS8_EE17_M_insert_unique_IRKS8_NSE_11_Alloc_nodeEEESt17_Rb_tree_iteratorIS8_ESt23_Rb_tree_const_iteratorIS8_EOT_RT0_
FNDA:11,_ZNSt8_Rb_treeINSt7__cxx1112basic_stringIcSt11char_traitsIcESaIcEEES5_St9_IdentityIS5_ESt4lessIS5_ESaIS5_EE4findERKS5_
FNDA:20,_ZNSt8_Rb_treeIiiSt9_IdentityIiESt7greaterIiESaIiEE12_M_drop_nodeEPSt13_Rb_tree_nodeIiE
FNDA:47,_ZNKSt23_Rb_tree_const_iteratorINSt7__cxx1112basic_stringIcSt11char_traitsIcESaIcEEEE13_M_const_castEv
FNDA:2,_ZNSt8_Rb_treeIiiSt9_IdentityIiESt7greaterIiESaIiEED2Ev
FNDA:13,_ZSteqRKSt17_Rb_tree_iteratorISt4pairIKiiEES5_
FNDA:166,_ZNSt8_Rb_treeIiSt4pairIKiiESt10_Select1stIS2_ESt7greaterIiESaIS2_EE7_S_leftEPSt18_Rb_tree_node_base
FNDA:25,_ZNSt8_Rb_treeINSt7__cxx1112basic_stringIcSt11char_traitsIcESaIcEEES5_St9_IdentityIS5_ESt4lessIS5_ESaIS5_EE10_M_insert_IRKS5_NSB_11_Alloc_nodeEEESt17_Rb_tree_iteratorIS5_EPSt18_Rb_tree_node_baseSJ_OT_RT0_
FNDA:15,_ZNSt8_Rb_treeIiSt4pairIKiNSt7__cxx1112basic_stringIcSt11char_traitsIcESaIcEEEESt10_Select1stIS8_ESt4lessIiESaIS8_EE10_S_minimumEPSt18_Rb_tree_node_base
FNDA:3,_ZNSt17_Rb_tree_iteratorISt4pairIKiiEEmmEv
FNDA:100,_ZNKSt13_Rb_tree_nodeISt4pairIKiiEE9_M_valptrEv
FNDA:36,_ZNSt8_Rb_treeINSt7__cxx1112basic_stringIcSt11char_traitsIcESaIcEEES5_St9_IdentityIS5_ESt4lessIS5_ESaIS5_EE13_M_clone_nodeILb0ENSB_11_Alloc_nodeEEEPSt13_Rb_tree_nodeIS5_ESG_RT0_
FNDA:136,_ZNKSt8_Rb_treeIiSt4pairIKiNSt7__cxx1112basic_stringIcSt11char_traitsIcESaIcEEEESt10_Select1stIS8_ESt4lessIiESaIS8_EE11_Alloc_nodeclIRKS8_EEPSt13_Rb_tree_nodeIS8_EOT_
FNDA:11,_ZNSt8_Rb_treeINSt7__cxx1112basic_stringIcSt11char_traitsIcESaIcEEES5_St9_IdentityIS5_ESt4lessIS5_ESaIS5_EED2Ev
FNDA:298,_ZNSt13_Rb_tree_nodeISt4pairIKiiEE9_M_valptrEv
FNDA:11,_ZNSt8_Rb_treeIiiSt9_IdentityIiESt7greaterIiESaIiEE23_M_get_insert_equal_posERKi
FNDA:7,_ZNSt8_Rb_treeINSt7__cxx1112basic_stringIcSt11char_traitsIcESaIcEEES5_St9_IdentityIS5_ESt4lessIS5_ESaIS5_EE7_M_rootEv
FNDA:25,_ZNSt23_Rb_tree_const_iteratorIiEC2ERKSt17_Rb_tree_iteratorIiE
FNDA:82,_ZNSt8_Rb_treeIiiSt9_IdentityIiESt7greaterIiESaIiEE6_S_keyEPKSt13_Rb_tree_nodeIiE
FNDA:136,_ZNSt8_Rb_treeIiSt4pairIKiNSt7__cxx1112basic_stringIcSt11char_traitsIcESaIcEEEESt10_Select1stIS8_ESt4lessIiESaIS8_EE17_M_construct_nodeIJRKS8_EEEvPSt13_Rb_tree_nodeIS8_EDpOT_
FNDA:324,_ZNSt8_Rb_treeIiSt4pairIKiiESt10_Select1stIS2_ESt7greaterIiESaIS2_EE21_M_get_Node_allocatorEv
FNDA:57,_ZNSt17_Rb_tree_iteratorIiEC2EPSt18_Rb_tree_node_base
FNDA:0,_ZNSt8_Rb_treeIiiSt9_IdentityIiESt7greaterIiESaIiEE21_M_insert_equal_lowerIRKiEESt17_Rb_tree_iteratorIiEOT_
FNDA:20,_ZNKSt8_Rb_treeIiiSt9_IdentityIiESt7greaterIiESaIiEE9_M_mbeginEv
FNDA:1,_ZNSt8_Rb_treeIiiSt9_IdentityIiESt7greaterIiESaIiEE13_Rb_tree_implIS3_Lb1EEC2ERKS3_OSaISt13_Rb_tree_nodeIiEE
FNDA:1,_ZNSt8_Rb_treeIiiSt9_IdentityIiESt7greaterIiESaIiEE10_S_minimumEPSt18_Rb_tree_node_base
FNDA:11,_ZNSt20_Rb_tree_key_compareISt7greaterIiEEC2ERKS1_
FNDA:26,_ZNSt8_Rb_treeINSt7__cxx1112basic_stringIcSt11char_traitsIcESaIcEEES5_St9_IdentityIS5_ESt4lessIS5_ESaIS5_EE29_M_get_insert_hint_unique_posESt23_Rb_tree_const_iteratorIS5_ERKS5_
FNDA:94,_ZNSt8_Rb_treeIiSt4pairIKiNSt7__cxx1112basic_stringIcSt11char_traitsIcESaIcEEEESt10_Select1stIS8_ESt4lessIiESaIS8_EE6_S_keyEPKSt13_Rb_tree_nodeIS8_E
FNDA:58,_ZNSt23_Rb_tree_const_iteratorINSt7__cxx1112basic_stringIcSt11char_traitsIcESaIcEEEEC2ERKSt17_Rb_tree_iteratorIS5_E
FNDA:163,_ZNSt17_Rb_tree_iteratorINSt7__cxx1112basic_stringIcSt11char_traitsIcESaIcEEEEC2EPSt18_Rb_tree_node_base
FNDA:13,_ZNSt8_Rb_treeIiSt4pairIKiiESt10_Select1stIS2_ESt7greaterIiESaIS2_EE10_M_insert_IRKS2_NS8_11_Alloc_nodeEEESt17_Rb_tree_iteratorIS2_EPSt18_Rb_tree_node_baseSG_OT_RT0_
FNDA:8,_ZNSt8_Rb_treeIiSt4pairIKiiESt10_Select1stIS2_ESt7greaterIiESaIS2_EEC2ERKS8_
FNDA:49,_ZNKSt8_Rb_treeIiSt4pairIKiNSt7__cxx1112basic_stringIcSt11char_traitsIcESaIcEEEESt10_Select1stIS8_ESt4lessIiESaIS8_EE9_M_mbeginEv
FNDA:1,_ZNSt8_Rb_treeIiSt4pairIKiiESt10_Select1stIS2_ESt7greaterIiESaIS2_EEC2ERKS6_RKS7_
FNDA:12,_ZNSt8_Rb_treeINSt7__cxx1112basic_stringIcSt11char_traitsIcESaIcEEES5_St9_IdentityIS5_ESt4lessIS5_ESaIS5_EE12_M_erase_auxESt23_Rb_tree_const_iteratorIS5_E
FNDA:136,_ZNSt8_Rb_treeIiSt4pairIKiNSt7__cxx1112basic_stringIcSt11char_traitsIcESaIcEEEESt10_Select1stIS8_ESt4lessIiESaIS8_EE14_M_create_nodeIJRKS8_EEEPSt13_Rb_tree_nodeIS8_EDpOT_
FNDA:6,_ZNSt23_Rb_tree_const_iteratorIiEppEv
FNDA:0,_ZNSt17_Rb_tree_iteratorIiEppEv
FNDA:21,_ZNSt23_Rb_tree_const_iteratorISt4pairIKiiEEC2ERKSt17_Rb_tree_iteratorIS2_E
FNDA:45,_ZNSt8_Rb_treeIiSt4pairIKiNSt7__cxx1112basic_stringIcSt11char_traitsIcESaIcEEEESt10_Select1stIS8_ESt4lessIiESaIS8_EE12_M_rightmostEv
FNDA:19,_ZNKSt23_Rb_tree_const_iteratorIiE13_M_const_castEv
FNDA:81,_ZNSt8_Rb_treeIiSt4pairIKiiESt10_Select1stIS2_ESt7greaterIiESaIS2_EE15_M_destroy_nodeEPSt13_Rb_tree_nodeIS2_E
FNDA:42,_ZNSt8_Rb_treeINSt7__cxx1112basic_stringIcSt11char_traitsIcESaIcEEES5_St9_IdentityIS5_ESt4lessIS5_ESaIS5_EE8_M_beginEv
FNDA:40,_ZNSt15_Rb_tree_headerC2Ev
FNDA:22,_ZNSt8_Rb_treeIiSt4pairIKiiESt10_Select1stIS2_ESt7greaterIiESaIS2_EE12_M_rightmostEv
FNDA:47,_ZNSt13_Rb_tree_nodeIiE9_M_valptrEv
FNDA:81,_ZNSt8_Rb_treeIiSt4pairIKiiESt10_Select1stIS2_ESt7greaterIiESaIS2_EE14_M_create_nodeIJRKS2_EEEPSt13_Rb_tree_nodeIS2_EDpOT_
FNDA:46,_ZNSt8_Rb_treeINSt7__cxx1112basic_stringIcSt11char_traitsIcESaIcEEES5_St9_IdentityIS5_ESt4lessIS5_ESaIS5_EE3endEv
FNDA:20,_ZNKSt8_Rb_treeIiiSt9_IdentityIiESt7greaterIiESaIiEE11_Alloc_nodeclIRKiEEPSt13_Rb_tree_nodeIiEOT_
FNDA:7,_ZNSt8_Rb_treeIiiSt9_IdentityIiESt7greaterIiESaIiEE13_M_clone_nodeILb0ENS5_11_Alloc_nodeEEEPSt13_Rb_tree_nodeIiESA_RT0_
FNDA:41,_ZNSt8_Rb_treeIiSt4pairIKiiESt10_Select1stIS2_ESt7greaterIiESaIS2_EE6_S_keyEPKSt18_Rb_tree_node_base
FNDA:1,_ZNSt8_Rb_treeIiSt4pairIKiiESt10_Select1stIS2_ESt7greaterIiESaIS2_EE13_Rb_tree_implIS6_Lb1EEC2ERKS6_OSaISt13_Rb_tree_nodeIS2_EE
FNDA:61,_ZNSt8_Rb_treeINSt7__cxx1112basic_stringIcSt11char_traitsIcESaIcEEES5_St9_IdentityIS5_ESt4lessIS5_ESaIS5_EE11_M_put_nodeEPSt13_Rb_tree_nodeIS5_E
FNDA:8,_ZNSt23_Rb_tree_const_iteratorINSt7__cxx1112basic_stringIcSt11char_traitsIcESaIcEEEEC2EPKSt18_Rb_tree_node_base
FNDA:81,_ZNSt8_Rb_treeIiSt4pairIKiiESt10_Select1stIS2_ESt7greaterIiESaIS2_EE17_M_construct_nodeIJRKS2_EEEvPSt13_Rb_tree_nodeIS2_EDpOT_
FNDA:20,_ZNSt8_Rb_treeIiiSt9_IdentityIiESt7greaterIiESaIiEE17_M_construct_nodeIJRKiEEEvPSt13_Rb_tree_nodeIiEDpOT_
FNDA:36,_ZNKSt23_Rb_tree_const_iteratorINSt7__cxx1112basic_stringIcSt11char_traitsIcESaIcEEEEdeEv
FNDA:81,_ZNSt8_Rb_treeIiSt4pairIKiiESt10_Select1stIS2_ESt7greaterIiESaIS2_EE11_M_put_nodeEPSt13_Rb_tree_nodeIS2_E
FNDA:16,_ZNSt8_Rb_treeIiSt4pairIKiNSt7__cxx1112basic_stringIcSt11char_traitsIcESaIcEEEESt10_Select1stIS8_ESt4lessIiESaIS8_EE5eraseB5cxx11ESt17_Rb_tree_iteratorIS8_E
FNDA:15,_ZNSt8_Rb_treeIiSt4pairIKiNSt7__cxx1112basic_stringIcSt11char_traitsIcESaIcEEEESt10_Select1stIS8_ESt4lessIiESaIS8_EE7_M_rootEv
FNDA:11,_ZNSt8_Rb_treeINSt7__cxx1112basic_stringIcSt11char_traitsIcESaIcEEES5_St9_IdentityIS5_ESt4lessIS5_ESaIS5_EE14_M_lower_boundEPSt13_Rb_tree_nodeIS5_EPSt18_Rb_tree_node_baseRKS5_
FNDA:17,_ZNSt20_Rb_tree_key_compareISt4lessIiEEC2ERKS1_
FNDA:61,_ZNSt8_Rb_treeINSt7__cxx1112basic_stringIcSt11char_traitsIcESaIcEEES5_St9_IdentityIS5_ESt4lessIS5_ESaIS5_EE15_M_destroy_nodeEPSt13_Rb_tree_nodeIS5_E
FNDA:15,_ZNSt8_Rb_treeIiSt4pairIKiNSt7__cxx1112basic_stringIcSt11char_traitsIcESaIcEEEESt10_Select1stIS8_ESt4lessIiESaIS8_EE7_M_copyERKSE_
FNDA:6,_ZNSt8_Rb_treeIiiSt9_IdentityIiESt7greaterIiESaIiEE5eraseB5cxx11ESt23_Rb_tree_const_iteratorIiE
FNDA:10,_ZNSt20_Rb_tree_key_compareISt4lessINSt7__cxx1112basic_stringIcSt11char_traitsIcESaIcEEEEEC2ERKS7_
FNDA:42,_ZNSt8_Rb_treeIiSt4pairIKiiESt10_Select1stIS2_ESt7greaterIiESaIS2_EE7_M_copyILb0ENS8_11_Alloc_nodeEEEPSt13_Rb_tree_nodeIS2_ESD_PSt18_Rb_tree_node_baseRT0_
FNDA:1,_ZNSt8_Rb_treeIiiSt9_IdentityIiESt7greaterIiESaIiEE7_M_copyILb0ENS5_11_Alloc_nodeEEEPSt13_Rb_tree_nodeIiERKS5_RT0_
FNDA:7,_ZNKSt8_Rb_treeINSt7__cxx1112basic_stringIcSt11char_traitsIcESaIcEEES5_St9_IdentityIS5_ESt4lessIS5_ESaIS5_EE7_M_rootEv
FNDA:16,_ZNSt8_Rb_treeIiSt4pairIKiNSt7__cxx1112basic_stringIcSt11char_traitsIcESaIcEEEESt10_Select1stIS8_ESt4lessIiESaIS8_EE11_Alloc_nodeC2ERSE_
FNDA:9,_ZNSt8_Rb_treeINSt7__cxx1112basic_stringIcSt11char_traitsIcESaIcEEES5_St9_IdentityIS5_ESt4lessIS5_ESaIS5_EE16_M_insert_equal_IRKS5_NSB_11_Alloc_nodeEEESt17_Rb_tree_iteratorIS5_ESt23_Rb_tree_const_iteratorIS5_EOT_RT0_
FNDA:7,_ZNSt8_Rb_treeINSt7__cxx1112basic_stringIcSt11char_traitsIcESaIcEEES5_St9_IdentityIS5_ESt4lessIS5_ESaIS5_EE10_S_maximumEPSt18_Rb_tree_node_base
FNDA:16,_ZNSt8_Rb_treeIiSt4pairIKiNSt7__cxx1112basic_stringIcSt11char_traitsIcESaIcEEEESt10_Select1stIS8_ESt4lessIiESaIS8_EE12_M_erase_auxESt23_Rb_tree_const_iteratorIS8_E
FNDA:1,_ZNSt8_Rb_treeIiiSt9_IdentityIiESt7greaterIiESaIiEE7_M_rootEv
FNDA:7,_ZNSt8_Rb_treeINSt7__cxx1112basic_stringIcSt11char_traitsIcESaIcEEES5_St9_IdentityIS5_ESt4lessIS5_ESaIS5_EE13_Rb_tree_implIS9_Lb1EEC2ERKSD_
FNDA:2,_ZNSt8_Rb_treeINSt7__cxx1112basic_stringIcSt11char_traitsIcESaIcEEES5_St9_IdentityIS5_ESt4lessIS5_ESaIS5_EE22_M_insert_range_uniqueIPKS5_EENSt9enable_ifIXsrSt7is_sameIS5_NSt15iterator_traitsIT_E10value_typeEE5valueEvE4typeESI_SI_
FNDA:1,_ZNSt8_Rb_treeIiiSt9_IdentityIiESt7greaterIiESaIiEEC2ERKS3_RKS4_
FNDA:31,_ZNSt18_Rb_tree_node_base10_S_minimumEPS_
FNDA:2,_ZNSt8_Rb_treeIiiSt9_IdentityIiESt7greaterIiESaIiEE11_Alloc_nodeC2ERS5_
FNDA:79,_ZNSt17_Rb_tree_iteratorISt4pairIKiiEEC2EPSt18_Rb_tree_node_base
FNDA:61,_ZNSt8_Rb_treeINSt7__cxx1112basic_stringIcSt11char_traitsIcESaIcEEES5_St9_IdentityIS5_ESt4lessIS5_ESaIS5_EE11_M_get_nodeEv
FNDA:13,_ZNSt8_Rb_treeIiSt4pairIKiiESt10_Select1stIS2_ESt7greaterIiESaIS2_EE17_M_insert_unique_IRKS2_NS8_11_Alloc_nodeEEESt17_Rb_tree_iteratorIS2_ESt23_Rb_tree_const_iteratorIS2_EOT_RT0_
FNDA:136,_ZNSt8_Rb_treeIiSt4pairIKiNSt7__cxx1112basic_stringIcSt11char_traitsIcESaIcEEEESt10_Select1stIS8_ESt4lessIiESaIS8_EE11_M_put_nodeEPSt13_Rb_tree_nodeIS8_E
FNDA:6,_ZSteqRKSt17_Rb_tree_iteratorIiES2_
FNDA:512,_ZNSt13_Rb_tree_nodeISt4pairIKiNSt7__cxx1112basic_stringIcSt11char_traitsIcESaIcEEEEE9_M_valptrEv
FNDA:17,_ZNSt8_Rb_treeIiSt4pairIKiNSt7__cxx1112basic_stringIcSt11char_traitsIcESaIcEEEESt10_Select1stIS8_ESt4lessIiESaIS8_EE5beginEv
FNDA:158,_ZNSt13_Rb_tree_nodeINSt7__cxx1112basic_stringIcSt11char_traitsIcESaIcEEEE9_M_valptrEv
FNDA:0,_ZNSt17_Rb_tree_iteratorIiEmmEv
FNDA:7,_ZNSt8_Rb_treeINSt7__cxx1112basic_stringIcSt11char_traitsIcESaIcEEES5_St9_IdentityIS5_ESt4lessIS5_ESaIS5_EE7_M_copyERKSB_
FNDA:15,_ZNSt8_Rb_treeIiiSt9_IdentityIiESt7greaterIiESaIiEE12_M_rightmostEv
FNDA:16,_ZNSt8_Rb_treeIiiSt9_IdentityIiESt7greaterIiESaIiEE8_M_eraseEPSt13_Rb_tree_nodeIiE
FNDA:120,_ZNSt8_Rb_treeIiSt4pairIKiNSt7__cxx1112basic_stringIcSt11char_traitsIcESaIcEEEESt10_Select1stIS8_ESt4lessIiESaIS8_EE13_M_clone_nodeILb0ENSE_11_Alloc_nodeEEEPSt13_Rb_tree_nodeIS8_ESJ_RT0_
FNDA:8,_ZNSt8_Rb_treeIiSt4pairIKiiESt10_Select1stIS2_ESt7greaterIiESaIS2_EE5eraseB5cxx11ESt17_Rb_tree_iteratorIS2_E
FNDA:8,_ZNSt8_Rb_treeIiSt4pairIKiiESt10_Select1stIS2_ESt7greaterIiESaIS2_EE10_S_maximumEPSt18_Rb_tree_node_base
FNDA:8,_ZNSt8_Rb_treeIiSt4pairIKiiESt10_Select1stIS2_ESt7greaterIiESaIS2_EE11_M_leftmostEv
FNDA:100,_ZNSt8_Rb_treeIiSt4pairIKiiESt10_Select1stIS2_ESt7greaterIiESaIS2_EE6_S_keyEPKSt13_Rb_tree_nodeIS2_E
FNDA:19,_ZNSt8_Rb_treeIiiSt9_IdentityIiESt7greaterIiESaIiEE3endEv
FNDA:0,_ZNSt17_Rb_tree_iteratorINSt7__cxx1112basic_stringIcSt11char_traitsIcESaIcEEEEppEv
FNDA:15,_ZNSt8_Rb_treeIiSt4pairIKiNSt7__cxx1112basic_stringIcSt11char_traitsIcESaIcEEEESt10_Select1stIS8_ESt4lessIiESaIS8_EE11_M_leftmostEv
FNDA:1,_ZNKSt8_Rb_treeIiiSt9_IdentityIiESt7greaterIiESaIiEE5beginEv
FNDA:31,_ZNSt18_Rb_tree_node_base10_S_maximumEPS_
FNDA:1,_ZNSt8_Rb_treeINSt7__cxx1112basic_stringIcSt11char_traitsIcESaIcEEES5_St9_IdentityIS5_ESt4lessIS5_ESaIS5_EE21_M_insert_range_equalIPKS5_EENSt9enable_ifIXsrSt7is_sameIS5_NSt15iterator_traitsIT_E10value_typeEE5valueEvE4typeESI_SI_
FNDA:16,_ZNKSt8_Rb_treeIiSt4pairIKiNSt7__cxx1112basic_stringIcSt11char_traitsIcESaIcEEEESt10_Select1stIS8_ESt4lessIiESaIS8_EE7_M_rootEv
FNDA:8,_ZNSt8_Rb_treeIiSt4pairIKiiESt10_Select1stIS2_ESt7greaterIiESaIS2_EE14_M_lower_boundEPSt13_Rb_tree_nodeIS2_EPSt18_Rb_tree_node_baseRS1_
FNDA:82,_ZNSt8_Rb_treeIiSt4pairIKiiESt10_Select1stIS2_ESt7greaterIiESaIS2_EE8_M_eraseEPSt13_Rb_tree_nodeIS2_E
FNDA:32,_ZNSt23_Rb_tree_const_iteratorISt4pairIKiNSt7__cxx1112basic_stringIcSt11char_traitsIcESaIcEEEEEC2ERKSt17_Rb_tree_iteratorIS8_E
FNDA:1,_ZNSt8_Rb_treeIiSt4pairIKiNSt7__cxx1112basic_stringIcSt11char_traitsIcESaIcEEEESt10_Select1stIS8_ESt4lessIiESaIS8_EE24_M_get_insert_unique_posERS1_
FNDA:7,_ZNSt23_Rb_tree_const_iteratorIiEppEi
FNDA:6,_ZNSt8_Rb_treeIiiSt9_IdentityIiESt7greaterIiESaIiEE14_M_lower_boundEPSt13_Rb_tree_nodeIiEPSt18_Rb_tree_node_baseRKi
FNDA:0,_ZNSt8_Rb_treeINSt7__cxx1112basic_stringIcSt11char_traitsIcESaIcEEES5_St9_IdentityIS5_ESt4lessIS5_ESaIS5_EE15_M_insert_lowerIRKS5_EESt17_Rb_tree_iteratorIS5_EPSt18_Rb_tree_node_baseOT_
FNDA:3,_ZNSt8_Rb_treeINSt7__cxx1112basic_stringIcSt11char_traitsIcESaIcEEES5_St9_IdentityIS5_ESt4lessIS5_ESaIS5_EE13_Rb_tree_implIS9_Lb1EEC2ERKS9_OSaISt13_Rb_tree_nodeIS5_EE
FNDA:8,_ZNSt17_Rb_tree_iteratorISt4pairIKiiEEppEv
FNDA:21,_ZNSt8_Rb_treeIiSt4pairIKiiESt10_Select1stIS2_ESt7greaterIiESaIS2_EE3endEv
FNDA:151,_ZNSt8_Rb_treeINSt7__cxx1112basic_stringIcSt11char_traitsIcESaIcEEES5_St9_IdentityIS5_ESt4lessIS5_ESaIS5_EE6_S_keyEPKSt13_Rb_tree_nodeIS5_E
FNDA:68,_ZNKSt17_Rb_tree_iteratorISt4pairIKiiEEdeEv
FNDA:8,_ZNSt8_Rb_treeIiSt4pairIKiiESt10_Select1stIS2_ESt7greaterIiESaIS2_EE12_M_erase_auxESt23_Rb_tree_const_iteratorIS2_E
FNDA:98,_ZNSt8_Rb_treeINSt7__cxx1112basic_stringIcSt11char_traitsIcESaIcEEES5_St9_IdentityIS5_ESt4lessIS5_ESaIS5_EE6_M_endEv
FNDA:0,_ZNSt17_Rb_tree_iteratorISt4pairIKiNSt7__cxx1112basic_stringIcSt11char_traitsIcESaIcEEEEEmmEv
FNDA:187,_ZNKSt13_Rb_tree_nodeINSt7__cxx1112basic_stringIcSt11char_traitsIcESaIcEEEE9_M_valptrEv
FNF:236
FNH:228
DA:112,31
DA:114,85
DA:115,31
DA:126,31
DA:128,85
DA:129,31
DA:152,38
DA:154,38
DA:173,40
DA:174,40
DA:175,40
DA:176,40
DA:177,40
DA:206,40
DA:208,40
DA:209,40
DA:210,40
DA:211,40
DA:212,40
DA:234,1015
DA:235,1015
DA:238,470
DA:239,470
DA:273,397
DA:274,397
DA:277,188
DA:278,188
DA:285,24
DA:287,24
DA:288,24
DA:292,188
DA:294,188
DA:295,188
DA:296,188
DA:300,7
DA:302,7
DA:303,7
DA:315,53
DA:316,53
DA:347,9
DA:348,9
DA:350,136
DA:351,136
DA:354,95
DA:355,95
DA:358,43
DA:359,43
DA:366,20
DA:368,20
DA:369,20
DA:373,45
DA:375,45
DA:376,45
DA:377,45
DA:523,37
DA:524,37
DA:528,298
DA:529,298
DA:547,1192
DA:548,1192
DA:560,298
DA:561,298
DA:564,298
DA:565,298
DA:590,298
DA:594,298
DA:595,298
DA:599,0
DA:601,0
DA:602,0
DA:603,0
DA:605,298
DA:609,298
DA:611,298
DA:612,298
DA:613,298
DA:618,298
DA:623,298
DA:624,298
DA:626,298
DA:629,298
DA:631,298
DA:632,298
DA:633,298
DA:637,231
DA:645,231
DA:646,231
DA:647,231
DA:648,231
DA:649,231
DA:674,32
DA:676,32
DA:677,32
DA:678,32
DA:700,6
DA:701,6
DA:702,6
DA:710,31
DA:711,31
DA:714,32
DA:715,32
DA:718,31
DA:719,31
DA:726,136
DA:727,136
DA:734,154
DA:735,154
DA:738,123
DA:739,123
DA:749,259
DA:750,259
DA:757,427
DA:775,427
DA:779,591
DA:780,591
DA:787,486
DA:788,486
DA:795,198
DA:796,198
DA:799,31
DA:800,31
DA:807,31
DA:808,31
DA:887,31
DA:890,31
DA:891,31
DA:892,31
DA:893,31
DA:894,31
DA:898,31
DA:900,31
DA:901,62
DA:931,6
DA:933,6
DA:935,32
DA:936,32
DA:938,32
DA:939,31
DA:940,32
DA:983,39
DA:984,39
DA:995,36
DA:996,36
DA:999,9
DA:1000,9
DA:1003,118
DA:1004,118
DA:1031,109
DA:1032,109
DA:1098,4
DA:1100,4
DA:1101,59
DA:1102,55
DA:1103,4
DA:1115,2
DA:1117,2
DA:1118,24
DA:1119,22
DA:1120,2
DA:1192,18
DA:1194,18
DA:1195,18
DA:1196,18
DA:1197,18
DA:1198,18
DA:1204,24
DA:1206,24
DA:1207,24
DA:1208,24
DA:1209,24
DA:1210,24
DA:1771,67
DA:1780,67
DA:1781,134
DA:1784,67
DA:1786,67
DA:1787,67
DA:1788,67
DA:1789,67
DA:1798,0
DA:1805,0
DA:1806,0
DA:1807,0
DA:1809,0
DA:1811,0
DA:1812,0
DA:1813,0
DA:1814,0
DA:1823,0
DA:1830,0
DA:1831,0
DA:1832,0
DA:1834,0
DA:1835,0
DA:1836,0
DA:1838,0
DA:1845,136
DA:1849,136
DA:1850,136
DA:1854,136
DA:1855,65
DA:1856,65
DA:1857,136
DA:1858,136
DA:1860,231
DA:1862,95
DA:1863,95
DA:1864,95
DA:1865,95
DA:1866,40
DA:1868,95
DA:1869,95
DA:1872,0
DA:1874,0
DA:1875,0
DA:1877,136
DA:1883,295
DA:1887,551
DA:1889,256
DA:1890,256
DA:1891,256
DA:1892,256
DA:1894,295
DA:1900,41
DA:1904,168
DA:1905,127
DA:1906,71
DA:1908,56
DA:1909,41
DA:2061,30
DA:2065,30
DA:2066,30
DA:2067,30
DA:2068,99
DA:2070,69
DA:2071,69
DA:2072,69
DA:2074,30
DA:2075,30
DA:2077,12
DA:2078,5
DA:2080,7
DA:2082,25
DA:2083,15
DA:2084,10
DA:2093,13
DA:2097,13
DA:2098,13
DA:2099,46
DA:2101,33
DA:2102,66
DA:2103,33
DA:2105,13
DA:2163,55
DA:2167,55
DA:2171,55
DA:2173,55
DA:2174,55
DA:2175,25
DA:2177,30
DA:2179,0
DA:2182,0
DA:2183,0
DA:2184,0
DA:2185,0
DA:2187,0
DA:2188,0
DA:2190,0
DA:2193,0
DA:2195,0
DA:2198,0
DA:2199,0
DA:2200,0
DA:2201,0
DA:2203,0
DA:2204,0
DA:2206,0
DA:2209,0
DA:2213,0
DA:2224,55
DA:2234,55
DA:2236,55
DA:2237,45
DA:2239,45
DA:2240,10
DA:2249,22
DA:2252,22
DA:2256,22
DA:2258,22
DA:2259,22
DA:2260,9
DA:2262,13
DA:2264,0
DA:2267,0
DA:2268,0
DA:2269,0
DA:2270,0
DA:2272,0
DA:2273,0
DA:2275,0
DA:2278,0
DA:2283,0
DA:2284,0
DA:2285,0
DA:2286,0
DA:2288,0
DA:2289,0
DA:2291,0
DA:2294,0
DA:2306,22
DA:2316,22
DA:2318,22
DA:2319,22
DA:2321,22
DA:2323,0
DA:2480,42
DA:2485,42
DA:2486,42
DA:2487,42
DA:2488,42
DA:2489,42
DA:2520,41
DA:2523,41
DA:2524,82
DA:2525,41
DA:2526,123
LF:326
LH:265
end_of_record
TN:
SF:/usr/include/c++/11/bits/stl_uninitialized.h
FN:230,_ZNSt22__uninitialized_fill_nILb0EE15__uninit_fill_nIPNSt7__cxx1112basic_stringIcSt11char_traitsIcESaIcEEEmS7_EET_S9_T0_RKT1_
FN:273,_ZSt20uninitialized_fill_nIPNSt7__cxx1112basic_stringIcSt11char_traitsIcESaIcEEEmS5_ET_S7_T0_RKT1_
FN:408,_ZSt24__uninitialized_fill_n_aIPNSt7__cxx1112basic_stringIcSt11char_traitsIcESaIcEEEmS5_S5_ET_S7_T0_RKT1_RSaIT2_E
FN:986,_ZSt19__relocate_object_aISt4pairIN3s2115IteratorGeneralINSt7__cxx1112basic_stringIcSt11char_traitsIcESaIcEEESt4lessIS8_EEEbESC_SaISC_EEvPT_PT0_RT1_
FN:986,_ZSt19__relocate_object_aISt4pairIN3s2115IteratorGeneralIS0_IKiiENS1_10My_CompareIS4_St7greaterIiEEEEEbESA_SaISA_EEvPT_PT0_RT1_
FN:986,_ZSt19__relocate_object_aISt4pairIN3s2115IteratorGeneralIiSt7greaterIiEEEbES6_SaIS6_EEvPT_PT0_RT1_
FN:986,_ZSt19__relocate_object_aISt4pairIN3s2115IteratorGeneralIS0_IKiNSt7__cxx1112basic_stringIcSt11char_traitsIcESaIcEEEENS1_10My_CompareISA_St4lessIiEEEEEbESG_SaISG_EEvPT_PT0_RT1_
FN:1018,_ZSt14__relocate_a_1IPSt4pairIN3s2115IteratorGeneralINSt7__cxx1112basic_stringIcSt11char_traitsIcESaIcEEESt4lessIS8_EEEbESD_SaISC_EET0_T_SG_SF_RT1_
FN:1018,_ZSt14__relocate_a_1IPSt4pairIN3s2115IteratorGeneralIiSt7greaterIiEEEbES7_SaIS6_EET0_T_SA_S9_RT1_
FN:1018,_ZSt14__relocate_a_1IPSt4pairIN3s2115IteratorGeneralIS0_IKiNSt7__cxx1112basic_stringIcSt11char_traitsIcESaIcEEEENS1_10My_CompareISA_St4lessIiEEEEEbESH_SaISG_EET0_T_SK_SJ_RT1_
FN:1018,_ZSt14__relocate_a_1IPSt4pairIN3s2115IteratorGeneralIS0_IKiiENS1_10My_CompareIS4_St7greaterIiEEEEEbESB_SaISA_EET0_T_SE_SD_RT1_
FN:1040,_ZSt12__relocate_aIPSt4pairIN3s2115IteratorGeneralINSt7__cxx1112basic_stringIcSt11char_traitsIcESaIcEEESt4lessIS8_EEEbESD_SaISC_EET0_T_SG_SF_RT1_
FN:1040,_ZSt12__relocate_aIPSt4pairIN3s2115IteratorGeneralIiSt7greaterIiEEEbES7_SaIS6_EET0_T_SA_S9_RT1_
FN:1040,_ZSt12__relocate_aIPSt4pairIN3s2115IteratorGeneralIS0_IKiNSt7__cxx1112basic_stringIcSt11char_traitsIcESaIcEEEENS1_10My_CompareISA_St4lessIiEEEEEbESH_SaISG_EET0_T_SK_SJ_RT1_
FN:1040,_ZSt12__relocate_aIPSt4pairIN3s2115IteratorGeneralIS0_IKiiENS1_10My_CompareIS4_St7greaterIiEEEEEbESB_SaISA_EET0_T_SE_SD_RT1_
FNDA:1,_ZNSt22__uninitialized_fill_nILb0EE15__uninit_fill_nIPNSt7__cxx1112basic_stringIcSt11char_traitsIcESaIcEEEmS7_EET_S9_T0_RKT1_
FNDA:6,_ZSt12__relocate_aIPSt4pairIN3s2115IteratorGeneralIS0_IKiiENS1_10My_CompareIS4_St7greaterIiEEEEEbESB_SaISA_EET0_T_SE_SD_RT1_
FNDA:6,_ZSt14__relocate_a_1IPSt4pairIN3s2115IteratorGeneralIS0_IKiiENS1_10My_CompareIS4_St7greaterIiEEEEEbESB_SaISA_EET0_T_SE_SD_RT1_
FNDA:1,_ZSt24__uninitialized_fill_n_aIPNSt7__cxx1112basic_stringIcSt11char_traitsIcESaIcEEEmS5_S5_ET_S7_T0_RKT1_RSaIT2_E
FNDA:30,_ZSt14__relocate_a_1IPSt4pairIN3s2115IteratorGeneralIS0_IKiNSt7__cxx1112basic_stringIcSt11char_traitsIcESaIcEEEENS1_10My_CompareISA_St4lessIiEEEEEbESH_SaISG_EET0_T_SK_SJ_RT1_
FNDA:12,_ZSt12__relocate_aIPSt4pairIN3s2115IteratorGeneralIiSt7greaterIiEEEbES7_SaIS6_EET0_T_SA_S9_RT1_
FNDA:15,_ZSt19__relocate_object_aISt4pairIN3s2115IteratorGeneralIS0_IKiNSt7__cxx1112basic_stringIcSt11char_traitsIcESaIcEEEENS1_10My_CompareISA_St4lessIiEEEEEbESG_SaISG_EEvPT_PT0_RT1_
FNDA:38,_ZSt19__relocate_object_aISt4pairIN3s2115IteratorGeneralINSt7__cxx1112basic_stringIcSt11char_traitsIcESaIcEEESt4lessIS8_EEEbESC_SaISC_EEvPT_PT0_RT1_
FNDA:64,_ZSt14__relocate_a_1IPSt4pairIN3s2115IteratorGeneralINSt7__cxx1112basic_stringIcSt11char_traitsIcESaIcEEESt4lessIS8_EEEbESD_SaISC_EET0_T_SG_SF_RT1_
FNDA:3,_ZSt19__relocate_object_aISt4pairIN3s2115IteratorGeneralIS0_IKiiENS1_10My_CompareIS4_St7greaterIiEEEEEbESA_SaISA_EEvPT_PT0_RT1_
FNDA:6,_ZSt19__relocate_object_aISt4pairIN3s2115IteratorGeneralIiSt7greaterIiEEEbES6_SaIS6_EEvPT_PT0_RT1_
FNDA:12,_ZSt14__relocate_a_1IPSt4pairIN3s2115IteratorGeneralIiSt7greaterIiEEEbES7_SaIS6_EET0_T_SA_S9_RT1_
FNDA:64,_ZSt12__relocate_aIPSt4pairIN3s2115IteratorGeneralINSt7__cxx1112basic_stringIcSt11char_traitsIcESaIcEEESt4lessIS8_EEEbESD_SaISC_EET0_T_SG_SF_RT1_
FNDA:1,_ZSt20uninitialized_fill_nIPNSt7__cxx1112basic_stringIcSt11char_traitsIcESaIcEEEmS5_ET_S7_T0_RKT1_
FNDA:30,_ZSt12__relocate_aIPSt4pairIN3s2115IteratorGeneralIS0_IKiNSt7__cxx1112basic_stringIcSt11char_traitsIcESaIcEEEENS1_10My_CompareISA_St4lessIiEEEEEbESH_SaISG_EET0_T_SK_SJ_RT1_
FNF:15
FNH:15
DA:230,1
DA:233,1
DA:236,4
DA:237,3
DA:238,1
DA:240,0
DA:242,0
DA:243,0
DA:273,1
DA:293,1
DA:297,1
DA:408,1
DA:410,1
DA:986,62
DA:994,62
DA:995,62
DA:996,62
DA:1018,112
DA:1030,112
DA:1031,174
DA:1032,62
DA:1034,112
DA:1040,112
DA:1046,112
DA:1048,112
LF:25
LH:22
end_of_record
TN:
SF:/usr/include/c++/11/bits/stl_vector.h
FN:97,_ZNSt12_Vector_baseISt4pairIN3s2115IteratorGeneralIiSt7greaterIiEEEbESaIS6_EE17_Vector_impl_dataC2Ev
FN:97,_ZNSt12_Vector_baseISt4pairIN3s2115IteratorGeneralIS0_IKiNSt7__cxx1112basic_stringIcSt11char_traitsIcESaIcEEEENS1_10My_CompareISA_St4lessIiEEEEEbESaISG_EE17_Vector_impl_dataC2Ev
FN:97,_ZNSt12_Vector_baseISt4pairIN3s2115IteratorGeneralINSt7__cxx1112basic_stringIcSt11char_traitsIcESaIcEEESt4lessIS8_EEEbESaISC_EE17_Vector_impl_dataC2Ev
FN:97,_ZNSt12_Vector_baseISt4pairIN3s2115IteratorGeneralIS0_IKiiENS1_10My_CompareIS4_St7greaterIiEEEEEbESaISA_EE17_Vector_impl_dataC2Ev
FN:97,_ZNSt12_Vector_baseINSt7__cxx1112basic_stringIcSt11char_traitsIcESaIcEEESaIS5_EE17_Vector_impl_dataC2Ev
FN:131,_ZNSt12_Vector_baseISt4pairIN3s2115IteratorGeneralIS0_IKiiENS1_10My_CompareIS4_St7greaterIiEEEEEbESaISA_EE12_Vector_implC2Ev
FN:131,_ZNSt12_Vector_baseISt4pairIN3s2115IteratorGeneralIS0_IKiNSt7__cxx1112basic_stringIcSt11char_traitsIcESaIcEEEENS1_10My_CompareISA_St4lessIiEEEEEbESaISG_EE12_Vector_implC2Ev
FN:131,_ZNSt12_Vector_baseISt4pairIN3s2115IteratorGeneralIiSt7greaterIiEEEbESaIS6_EE12_Vector_implC2Ev
FN:131,_ZNSt12_Vector_baseISt4pairIN3s2115IteratorGeneralINSt7__cxx1112basic_stringIcSt11char_traitsIcESaIcEEESt4lessIS8_EEEbESaISC_EE12_Vector_implC2Ev
FN:136,_ZNSt12_Vector_baseINSt7__cxx1112basic_stringIcSt11char_traitsIcESaIcEEESaIS5_EE12_Vector_implC2ERKS6_
FN:276,_ZNSt12_Vector_baseISt4pairIN3s2115IteratorGeneralINSt7__cxx1112basic_stringIcSt11char_traitsIcESaIcEEESt4lessIS8_EEEbESaISC_EE19_M_get_Tp_allocatorEv
FN:276,_ZNSt12_Vector_baseISt4pairIN3s2115IteratorGeneralIiSt7greaterIiEEEbESaIS6_EE19_M_get_Tp_allocatorEv
FN:276,_ZNSt12_Vector_baseISt4pairIN3s2115IteratorGeneralIS0_IKiiENS1_10My_CompareIS4_St7greaterIiEEEEEbESaISA_EE19_M_get_Tp_allocatorEv
FN:276,_ZNSt12_Vector_baseISt4pairIN3s2115IteratorGeneralIS0_IKiNSt7__cxx1112basic_stringIcSt11char_traitsIcESaIcEEEENS1_10My_CompareISA_St4lessIiEEEEEbESaISG_EE19_M_get_Tp_allocatorEv
FN:276,_ZNSt12_Vector_baseINSt7__cxx1112basic_stringIcSt11char_traitsIcESaIcEEESaIS5_EE19_M_get_Tp_allocatorEv
FN:280,_ZNKSt12_Vector_baseISt4pairIN3s2115IteratorGeneralIS0_IKiNSt7__cxx1112basic_stringIcSt11char_traitsIcESaIcEEEENS1_10My_CompareISA_St4lessIiEEEEEbESaISG_EE19_M_get_Tp_allocatorEv
FN:280,_ZNKSt12_Vector_baseISt4pairIN3s2115IteratorGeneralIiSt7greaterIiEEEbESaIS6_EE19_M_get_Tp_allocatorEv
FN:280,_ZNKSt12_Vector_baseISt4pairIN3s2115IteratorGeneralINSt7__cxx1112basic_stringIcSt11char_traitsIcESaIcEEESt4lessIS8_EEEbESaISC_EE19_M_get_Tp_allocatorEv
FN:280,_ZNKSt12_Vector_baseISt4pairIN3s2115IteratorGeneralIS0_IKiiENS1_10My_CompareIS4_St7greaterIiEEEEEbESaISA_EE19_M_get_Tp_allocatorEv
FN:288,_ZNSt12_Vector_baseISt4pairIN3s2115IteratorGeneralIS0_IKiiENS1_10My_CompareIS4_St7greaterIiEEEEEbESaISA_EEC2Ev
FN:288,_ZNSt12_Vector_baseISt4pairIN3s2115IteratorGeneralIiSt7greaterIiEEEbESaIS6_EEC2Ev
FN:288,_ZNSt12_Vector_baseISt4pairIN3s2115IteratorGeneralINSt7__cxx1112basic_stringIcSt11char_traitsIcESaIcEEESt4lessIS8_EEEbESaISC_EEC2Ev
FN:288,_ZNSt12_Vector_baseISt4pairIN3s2115IteratorGeneralIS0_IKiNSt7__cxx1112basic_stringIcSt11char_traitsIcESaIcEEEENS1_10My_CompareISA_St4lessIiEEEEEbESaISG_EEC2Ev
FN:303,_ZNSt12_Vector_baseINSt7__cxx1112basic_stringIcSt11char_traitsIcESaIcEEESaIS5_EEC2EmRKS6_
FN:333,_ZNSt12_Vector_baseISt4pairIN3s2115IteratorGeneralIS0_IKiiENS1_10My_CompareIS4_St7greaterIiEEEEEbESaISA_EED2Ev
FN:333,_ZNSt12_Vector_baseISt4pairIN3s2115IteratorGeneralIS0_IKiNSt7__cxx1112basic_stringIcSt11char_traitsIcESaIcEEEENS1_10My_CompareISA_St4lessIiEEEEEbESaISG_EED2Ev
FN:333,_ZNSt12_Vector_baseISt4pairIN3s2115IteratorGeneralIiSt7greaterIiEEEbESaIS6_EED2Ev
FN:333,_ZNSt12_Vector_baseINSt7__cxx1112basic_stringIcSt11char_traitsIcESaIcEEESaIS5_EED2Ev
FN:333,_ZNSt12_Vector_baseISt4pairIN3s2115IteratorGeneralINSt7__cxx1112basic_stringIcSt11char_traitsIcESaIcEEESt4lessIS8_EEEbESaISC_EED2Ev
FN:343,_ZNSt12_Vector_baseISt4pairIN3s2115IteratorGeneralINSt7__cxx1112basic_stringIcSt11char_traitsIcESaIcEEESt4lessIS8_EEEbESaISC_EE11_M_allocateEm
FN:343,_ZNSt12_Vector_baseINSt7__cxx1112basic_stringIcSt11char_traitsIcESaIcEEESaIS5_EE11_M_allocateEm
FN:343,_ZNSt12_Vector_baseISt4pairIN3s2115IteratorGeneralIS0_IKiNSt7__cxx1112basic_stringIcSt11char_traitsIcESaIcEEEENS1_10My_CompareISA_St4lessIiEEEEEbESaISG_EE11_M_allocateEm
FN:343,_ZNSt12_Vector_baseISt4pairIN3s2115IteratorGeneralIS0_IKiiENS1_10My_CompareIS4_St7greaterIiEEEEEbESaISA_EE11_M_allocateEm
FN:343,_ZNSt12_Vector_baseISt4pairIN3s2115IteratorGeneralIiSt7greaterIiEEEbESaIS6_EE11_M_allocateEm
FN:350,_ZNSt12_Vector_baseISt4pairIN3s2115IteratorGeneralIiSt7greaterIiEEEbESaIS6_EE13_M_deallocateEPS6_m
FN:350,_ZNSt12_Vector_baseISt4pairIN3s2115IteratorGeneralIS0_IKiNSt7__cxx1112basic_stringIcSt11char_traitsIcESaIcEEEENS1_10My_CompareISA_St4lessIiEEEEEbESaISG_EE13_M_deallocateEPSG_m
FN:350,_ZNSt12_Vector_baseISt4pairIN3s2115IteratorGeneralIS0_IKiiENS1_10My_CompareIS4_St7greaterIiEEEEEbESaISA_EE13_M_deallocateEPSA_m
FN:350,_ZNSt12_Vector_baseISt4pairIN3s2115IteratorGeneralINSt7__cxx1112basic_stringIcSt11char_traitsIcESaIcEEESt4lessIS8_EEEbESaISC_EE13_M_deallocateEPSC_m
FN:350,_ZNSt12_Vector_baseINSt7__cxx1112basic_stringIcSt11char_traitsIcESaIcEEESaIS5_EE13_M_deallocateEPS5_m
FN:359,_ZNSt12_Vector_baseINSt7__cxx1112basic_stringIcSt11char_traitsIcESaIcEEESaIS5_EE17_M_create_storageEm
FN:453,_ZNSt6vectorISt4pairIN3s2115IteratorGeneralIS0_IKiiENS1_10My_CompareIS4_St7greaterIiEEEEEbESaISA_EE14_S_do_relocateEPSA_SD_SD_RSB_St17integral_constantIbLb1EE
FN:453,_ZNSt6vectorISt4pairIN3s2115IteratorGeneralIiSt7greaterIiEEEbESaIS6_EE14_S_do_relocateEPS6_S9_S9_RS7_St17integral_constantIbLb1EE
FN:453,_ZNSt6vectorISt4pairIN3s2115IteratorGeneralINSt7__cxx1112basic_stringIcSt11char_traitsIcESaIcEEESt4lessIS8_EEEbESaISC_EE14_S_do_relocateEPSC_SF_SF_RSD_St17integral_constantIbLb1EE
FN:453,_ZNSt6vectorISt4pairIN3s2115IteratorGeneralIS0_IKiNSt7__cxx1112basic_stringIcSt11char_traitsIcESaIcEEEENS1_10My_CompareISA_St4lessIiEEEEEbESaISG_EE14_S_do_relocateEPSG_SJ_SJ_RSH_St17integral_constantIbLb1EE
FN:465,_ZNSt6vectorISt4pairIN3s2115IteratorGeneralIiSt7greaterIiEEEbESaIS6_EE11_S_relocateEPS6_S9_S9_RS7_
FN:465,_ZNSt6vectorISt4pairIN3s2115IteratorGeneralIS0_IKiNSt7__cxx1112basic_stringIcSt11char_traitsIcESaIcEEEENS1_10My_CompareISA_St4lessIiEEEEEbESaISG_EE11_S_relocateEPSG_SJ_SJ_RSH_
FN:465,_ZNSt6vectorISt4pairIN3s2115IteratorGeneralINSt7__cxx1112basic_stringIcSt11char_traitsIcESaIcEEESt4lessIS8_EEEbESaISC_EE11_S_relocateEPSC_SF_SF_RSD_
FN:465,_ZNSt6vectorISt4pairIN3s2115IteratorGeneralIS0_IKiiENS1_10My_CompareIS4_St7greaterIiEEEEEbESaISA_EE11_S_relocateEPSA_SD_SD_RSB_
FN:487,_ZNSt6vectorISt4pairIN3s2115IteratorGeneralIiSt7greaterIiEEEbESaIS6_EEC2Ev
FN:487,_ZNSt6vectorISt4pairIN3s2115IteratorGeneralINSt7__cxx1112basic_stringIcSt11char_traitsIcESaIcEEESt4lessIS8_EEEbESaISC_EEC2Ev
FN:487,_ZNSt6vectorISt4pairIN3s2115IteratorGeneralIS0_IKiNSt7__cxx1112basic_stringIcSt11char_traitsIcESaIcEEEENS1_10My_CompareISA_St4lessIiEEEEEbESaISG_EEC2Ev
FN:487,_ZNSt6vectorISt4pairIN3s2115IteratorGeneralIS0_IKiiENS1_10My_CompareIS4_St7greaterIiEEEEEbESaISA_EEC2Ev
FN:522,_ZNSt6vectorINSt7__cxx1112basic_stringIcSt11char_traitsIcESaIcEEESaIS5_EEC2EmRKS5_RKS6_
FN:678,_ZNSt6vectorISt4pairIN3s2115IteratorGeneralIS0_IKiNSt7__cxx1112basic_stringIcSt11char_traitsIcESaIcEEEENS1_10My_CompareISA_St4lessIiEEEEEbESaISG_EED2Ev
FN:678,_ZNSt6vectorISt4pairIN3s2115IteratorGeneralIiSt7greaterIiEEEbESaIS6_EED2Ev
FN:678,_ZNSt6vectorISt4pairIN3s2115IteratorGeneralINSt7__cxx1112basic_stringIcSt11char_traitsIcESaIcEEESt4lessIS8_EEEbESaISC_EED2Ev
FN:678,_ZNSt6vectorISt4pairIN3s2115IteratorGeneralIS0_IKiiENS1_10My_CompareIS4_St7greaterIiEEEEEbESaISA_EED2Ev
FN:678,_ZNSt6vectorINSt7__cxx1112basic_stringIcSt11char_traitsIcESaIcEEESaIS5_EED2Ev
FN:811,_ZNSt6vectorINSt7__cxx1112basic_stringIcSt11char_traitsIcESaIcEEESaIS5_EE5beginEv
FN:811,_ZNSt6vectorISt4pairIN3s2115IteratorGeneralINSt7__cxx1112basic_stringIcSt11char_traitsIcESaIcEEESt4lessIS8_EEEbESaISC_EE5beginEv
FN:811,_ZNSt6vectorISt4pairIN3s2115IteratorGeneralIS0_IKiNSt7__cxx1112basic_stringIcSt11char_traitsIcESaIcEEEENS1_10My_CompareISA_St4lessIiEEEEEbESaISG_EE5beginEv
FN:811,_ZNSt6vectorISt4pairIN3s2115IteratorGeneralIiSt7greaterIiEEEbESaIS6_EE5beginEv
FN:811,_ZNSt6vectorISt4pairIN3s2115IteratorGeneralIS0_IKiiENS1_10My_CompareIS4_St7greaterIiEEEEEbESaISA_EE5beginEv
FN:829,_ZNSt6vectorISt4pairIN3s2115IteratorGeneralINSt7__cxx1112basic_stringIcSt11char_traitsIcESaIcEEESt4lessIS8_EEEbESaISC_EE3endEv
FN:829,_ZNSt6vectorINSt7__cxx1112basic_stringIcSt11char_traitsIcESaIcEEESaIS5_EE3endEv
FN:829,_ZNSt6vectorISt4pairIN3s2115IteratorGeneralIS0_IKiiENS1_10My_CompareIS4_St7greaterIiEEEEEbESaISA_EE3endEv
FN:829,_ZNSt6vectorISt4pairIN3s2115IteratorGeneralIS0_IKiNSt7__cxx1112basic_stringIcSt11char_traitsIcESaIcEEEENS1_10My_CompareISA_St4lessIiEEEEEbESaISG_EE3endEv
FN:829,_ZNSt6vectorISt4pairIN3s2115IteratorGeneralIiSt7greaterIiEEEbESaIS6_EE3endEv
FN:918,_ZNKSt6vectorISt4pairIN3s2115IteratorGeneralIiSt7greaterIiEEEbESaIS6_EE4sizeEv
FN:918,_ZNKSt6vectorISt4pairIN3s2115IteratorGeneralIS0_IKiiENS1_10My_CompareIS4_St7greaterIiEEEEEbESaISA_EE4sizeEv
FN:918,_ZNKSt6vectorISt4pairIN3s2115IteratorGeneralIS0_IKiNSt7__cxx1112basic_stringIcSt11char_traitsIcESaIcEEEENS1_10My_CompareISA_St4lessIiEEEEEbESaISG_EE4sizeEv
FN:918,_ZNKSt6vectorISt4pairIN3s2115IteratorGeneralINSt7__cxx1112basic_stringIcSt11char_traitsIcESaIcEEESt4lessIS8_EEEbESaISC_EE4sizeEv
FN:923,_ZNKSt6vectorISt4pairIN3s2115IteratorGeneralIS0_IKiNSt7__cxx1112basic_stringIcSt11char_traitsIcESaIcEEEENS1_10My_CompareISA_St4lessIiEEEEEbESaISG_EE8max_sizeEv
FN:923,_ZNKSt6vectorISt4pairIN3s2115IteratorGeneralIS0_IKiiENS1_10My_CompareIS4_St7greaterIiEEEEEbESaISA_EE8max_sizeEv
FN:923,_ZNKSt6vectorISt4pairIN3s2115IteratorGeneralINSt7__cxx1112basic_stringIcSt11char_traitsIcESaIcEEESt4lessIS8_EEEbESaISC_EE8max_sizeEv
FN:923,_ZNKSt6vectorISt4pairIN3s2115IteratorGeneralIiSt7greaterIiEEEbESaIS6_EE8max_sizeEv
FN:1043,_ZNSt6vectorISt4pairIN3s2115IteratorGeneralIS0_IKiiENS1_10My_CompareIS4_St7greaterIiEEEEEbESaISA_EEixEm
FN:1143,_ZNSt6vectorISt4pairIN3s2115IteratorGeneralIiSt7greaterIiEEEbESaIS6_EE4backEv
FN:1143,_ZNSt6vectorISt4pairIN3s2115IteratorGeneralINSt7__cxx1112basic_stringIcSt11char_traitsIcESaIcEEESt4lessIS8_EEEbESaISC_EE4backEv
FN:1143,_ZNSt6vectorISt4pairIN3s2115IteratorGeneralIS0_IKiNSt7__cxx1112basic_stringIcSt11char_traitsIcESaIcEEEENS1_10My_CompareISA_St4lessIiEEEEEbESaISG_EE4backEv
FN:1143,_ZNSt6vectorISt4pairIN3s2115IteratorGeneralIS0_IKiiENS1_10My_CompareIS4_St7greaterIiEEEEEbESaISA_EE4backEv
FN:1203,_ZNSt6vectorISt4pairIN3s2115IteratorGeneralIiSt7greaterIiEEEbESaIS6_EE9push_backEOS6_
FN:1203,_ZNSt6vectorISt4pairIN3s2115IteratorGeneralIS0_IKiiENS1_10My_CompareIS4_St7greaterIiEEEEEbESaISA_EE9push_backEOSA_
FN:1203,_ZNSt6vectorISt4pairIN3s2115IteratorGeneralINSt7__cxx1112basic_stringIcSt11char_traitsIcESaIcEEESt4lessIS8_EEEbESaISC_EE9push_backEOSC_
FN:1203,_ZNSt6vectorISt4pairIN3s2115IteratorGeneralIS0_IKiNSt7__cxx1112basic_stringIcSt11char_traitsIcESaIcEEEENS1_10My_CompareISA_St4lessIiEEEEEbESaISG_EE9push_backEOSG_
FN:1593,_ZNSt6vectorINSt7__cxx1112basic_stringIcSt11char_traitsIcESaIcEEESaIS5_EE18_M_fill_initializeEmRKS5_
FN:1756,_ZNKSt6vectorISt4pairIN3s2115IteratorGeneralINSt7__cxx1112basic_stringIcSt11char_traitsIcESaIcEEESt4lessIS8_EEEbESaISC_EE12_M_check_lenEmPKc
FN:1756,_ZNKSt6vectorISt4pairIN3s2115IteratorGeneralIS0_IKiNSt7__cxx1112basic_stringIcSt11char_traitsIcESaIcEEEENS1_10My_CompareISA_St4lessIiEEEEEbESaISG_EE12_M_check_lenEmPKc
FN:1756,_ZNKSt6vectorISt4pairIN3s2115IteratorGeneralIS0_IKiiENS1_10My_CompareIS4_St7greaterIiEEEEEbESaISA_EE12_M_check_lenEmPKc
FN:1756,_ZNKSt6vectorISt4pairIN3s2115IteratorGeneralIiSt7greaterIiEEEbESaIS6_EE12_M_check_lenEmPKc
FN:1767,_ZNSt6vectorINSt7__cxx1112basic_stringIcSt11char_traitsIcESaIcEEESaIS5_EE17_S_check_init_lenEmRKS6_
FN:1776,_ZNSt6vectorISt4pairIN3s2115IteratorGeneralIiSt7greaterIiEEEbESaIS6_EE11_S_max_sizeERKS7_
FN:1776,_ZNSt6vectorINSt7__cxx1112basic_stringIcSt11char_traitsIcESaIcEEESaIS5_EE11_S_max_sizeERKS6_
FN:1776,_ZNSt6vectorISt4pairIN3s2115IteratorGeneralINSt7__cxx1112basic_stringIcSt11char_traitsIcESaIcEEESt4lessIS8_EEEbESaISC_EE11_S_max_sizeERKSD_
FN:1776,_ZNSt6vectorISt4pairIN3s2115IteratorGeneralIS0_IKiiENS1_10My_CompareIS4_St7greaterIiEEEEEbESaISA_EE11_S_max_sizeERKSB_
FN:1776,_ZNSt6vectorISt4pairIN3s2115IteratorGeneralIS0_IKiNSt7__cxx1112basic_stringIcSt11char_traitsIcESaIcEEEENS1_10My_CompareISA_St4lessIiEEEEEbESaISG_EE11_S_max_sizeERKSH_
FNDA:128,_ZNKSt6vectorISt4pairIN3s2115IteratorGeneralINSt7__cxx1112basic_stringIcSt11char_traitsIcESaIcEEESt4lessIS8_EEEbESaISC_EE4sizeEv
FNDA:52,_ZNSt12_Vector_baseINSt7__cxx1112basic_stringIcSt11char_traitsIcESaIcEEESaIS5_EE17_Vector_impl_dataC2Ev
FNDA:6,_ZNSt6vectorISt4pairIN3s2115IteratorGeneralIiSt7greaterIiEEEbESaIS6_EE5beginEv
FNDA:4,_ZNSt6vectorISt4pairIN3s2115IteratorGeneralIS0_IKiiENS1_10My_CompareIS4_St7greaterIiEEEEEbESaISA_EE4backEv
FNDA:10,_ZNSt12_Vector_baseISt4pairIN3s2115IteratorGeneralINSt7__cxx1112basic_stringIcSt11char_traitsIcESaIcEEESt4lessIS8_EEEbESaISC_EED2Ev
FNDA:12,_ZNSt6vectorISt4pairIN3s2115IteratorGeneralIiSt7greaterIiEEEbESaIS6_EE3endEv
FNDA:6,_ZNKSt12_Vector_baseISt4pairIN3s2115IteratorGeneralIS0_IKiiENS1_10My_CompareIS4_St7greaterIiEEEEEbESaISA_EE19_M_get_Tp_allocatorEv
FNDA:10,_ZNSt12_Vector_baseISt4pairIN3s2115IteratorGeneralINSt7__cxx1112basic_stringIcSt11char_traitsIcESaIcEEESt4lessIS8_EEEbESaISC_EE12_Vector_implC2Ev
FNDA:6,_ZNSt6vectorISt4pairIN3s2115IteratorGeneralIS0_IKiiENS1_10My_CompareIS4_St7greaterIiEEEEEbESaISA_EE11_S_relocateEPSA_SD_SD_RSB_
FNDA:15,_ZNSt6vectorISt4pairIN3s2115IteratorGeneralIS0_IKiNSt7__cxx1112basic_stringIcSt11char_traitsIcESaIcEEEENS1_10My_CompareISA_St4lessIiEEEEEbESaISG_EE5beginEv
FNDA:70,_ZNSt12_Vector_baseINSt7__cxx1112basic_stringIcSt11char_traitsIcESaIcEEESaIS5_EE13_M_deallocateEPS5_m
FNDA:1,_ZNSt6vectorISt4pairIN3s2115IteratorGeneralIS0_IKiiENS1_10My_CompareIS4_St7greaterIiEEEEEbESaISA_EEC2Ev
FNDA:5,_ZNSt6vectorISt4pairIN3s2115IteratorGeneralIS0_IKiNSt7__cxx1112basic_stringIcSt11char_traitsIcESaIcEEEENS1_10My_CompareISA_St4lessIiEEEEEbESaISG_EEC2Ev
FNDA:118,_ZNSt12_Vector_baseINSt7__cxx1112basic_stringIcSt11char_traitsIcESaIcEEESaIS5_EE19_M_get_Tp_allocatorEv
FNDA:3,_ZNSt6vectorISt4pairIN3s2115IteratorGeneralIS0_IKiiENS1_10My_CompareIS4_St7greaterIiEEEEEbESaISA_EE5beginEv
FNDA:35,_ZNSt12_Vector_baseISt4pairIN3s2115IteratorGeneralIS0_IKiNSt7__cxx1112basic_stringIcSt11char_traitsIcESaIcEEEENS1_10My_CompareISA_St4lessIiEEEEEbESaISG_EE19_M_get_Tp_allocatorEv
FNDA:1,_ZNSt12_Vector_baseISt4pairIN3s2115IteratorGeneralIS0_IKiiENS1_10My_CompareIS4_St7greaterIiEEEEEbESaISA_EE17_Vector_impl_dataC2Ev
FNDA:60,_ZNKSt6vectorISt4pairIN3s2115IteratorGeneralIS0_IKiNSt7__cxx1112basic_stringIcSt11char_traitsIcESaIcEEEENS1_10My_CompareISA_St4lessIiEEEEEbESaISG_EE4sizeEv
FNDA:7,_ZNSt6vectorISt4pairIN3s2115IteratorGeneralIS0_IKiiENS1_10My_CompareIS4_St7greaterIiEEEEEbESaISA_EE3endEv
FNDA:10,_ZNSt12_Vector_baseISt4pairIN3s2115IteratorGeneralINSt7__cxx1112basic_stringIcSt11char_traitsIcESaIcEEESt4lessIS8_EEEbESaISC_EE17_Vector_impl_dataC2Ev
FNDA:64,_ZNKSt12_Vector_baseISt4pairIN3s2115IteratorGeneralINSt7__cxx1112basic_stringIcSt11char_traitsIcESaIcEEESt4lessIS8_EEEbESaISC_EE19_M_get_Tp_allocatorEv
FNDA:10,_ZNSt12_Vector_baseISt4pairIN3s2115IteratorGeneralINSt7__cxx1112basic_stringIcSt11char_traitsIcESaIcEEESt4lessIS8_EEEbESaISC_EEC2Ev
FNDA:12,_ZNKSt6vectorISt4pairIN3s2115IteratorGeneralIiSt7greaterIiEEEbESaIS6_EE8max_sizeEv
FNDA:42,_ZNSt12_Vector_baseISt4pairIN3s2115IteratorGeneralINSt7__cxx1112basic_stringIcSt11char_traitsIcESaIcEEESt4lessIS8_EEEbESaISC_EE13_M_deallocateEPSC_m
FNDA:6,_ZNKSt6vectorISt4pairIN3s2115IteratorGeneralIiSt7greaterIiEEEbESaIS6_EE12_M_check_lenEmPKc
FNDA:6,_ZNSt6vectorISt4pairIN3s2115IteratorGeneralIS0_IKiiENS1_10My_CompareIS4_St7greaterIiEEEEEbESaISA_EE11_S_max_sizeERKSB_
FNDA:3,_ZNSt6vectorISt4pairIN3s2115IteratorGeneralIS0_IKiiENS1_10My_CompareIS4_St7greaterIiEEEEEbESaISA_EEixEm
FNDA:39,_ZNSt6vectorINSt7__cxx1112basic_stringIcSt11char_traitsIcESaIcEEESaIS5_EED2Ev
FNDA:6,_ZNSt12_Vector_baseISt4pairIN3s2115IteratorGeneralIiSt7greaterIiEEEbESaIS6_EE11_M_allocateEm
FNDA:5,_ZNSt12_Vector_baseISt4pairIN3s2115IteratorGeneralIS0_IKiNSt7__cxx1112basic_stringIcSt11char_traitsIcESaIcEEEENS1_10My_CompareISA_St4lessIiEEEEEbESaISG_EEC2Ev
FNDA:30,_ZNSt6vectorISt4pairIN3s2115IteratorGeneralIS0_IKiNSt7__cxx1112basic_stringIcSt11char_traitsIcESaIcEEEENS1_10My_CompareISA_St4lessIiEEEEEbESaISG_EE11_S_max_sizeERKSH_
FNDA:1,_ZNSt6vectorINSt7__cxx1112basic_stringIcSt11char_traitsIcESaIcEEESaIS5_EE17_S_check_init_lenEmRKS6_
FNDA:30,_ZNSt6vectorISt4pairIN3s2115IteratorGeneralIS0_IKiNSt7__cxx1112basic_stringIcSt11char_traitsIcESaIcEEEENS1_10My_CompareISA_St4lessIiEEEEEbESaISG_EE3endEv
FNDA:30,_ZNSt6vectorISt4pairIN3s2115IteratorGeneralIS0_IKiNSt7__cxx1112basic_stringIcSt11char_traitsIcESaIcEEEENS1_10My_CompareISA_St4lessIiEEEEEbESaISG_EE14_S_do_relocateEPSG_SJ_SJ_RSH_St17integral_constantIbLb1EE
FNDA:12,_ZNKSt12_Vector_baseISt4pairIN3s2115IteratorGeneralIiSt7greaterIiEEEbESaIS6_EE19_M_get_Tp_allocatorEv
FNDA:32,_ZNKSt6vectorISt4pairIN3s2115IteratorGeneralINSt7__cxx1112basic_stringIcSt11char_traitsIcESaIcEEESt4lessIS8_EEEbESaISC_EE12_M_check_lenEmPKc
FNDA:20,_ZNSt12_Vector_baseISt4pairIN3s2115IteratorGeneralIS0_IKiNSt7__cxx1112basic_stringIcSt11char_traitsIcESaIcEEEENS1_10My_CompareISA_St4lessIiEEEEEbESaISG_EE13_M_deallocateEPSG_m
FNDA:1,_ZNSt6vectorINSt7__cxx1112basic_stringIcSt11char_traitsIcESaIcEEESaIS5_EEC2EmRKS5_RKS6_
FNDA:10,_ZNSt6vectorISt4pairIN3s2115IteratorGeneralINSt7__cxx1112basic_stringIcSt11char_traitsIcESaIcEEESt4lessIS8_EEEbESaISC_EED2Ev
FNDA:64,_ZNKSt6vectorISt4pairIN3s2115IteratorGeneralINSt7__cxx1112basic_stringIcSt11char_traitsIcESaIcEEESt4lessIS8_EEEbESaISC_EE8max_sizeEv
FNDA:2,_ZNSt6vectorISt4pairIN3s2115IteratorGeneralIiSt7greaterIiEEEbESaIS6_EED2Ev
FNDA:64,_ZNSt6vectorISt4pairIN3s2115IteratorGeneralINSt7__cxx1112basic_stringIcSt11char_traitsIcESaIcEEESt4lessIS8_EEEbESaISC_EE14_S_do_relocateEPSC_SF_SF_RSD_St17integral_constantIbLb1EE
FNDA:64,_ZNSt6vectorISt4pairIN3s2115IteratorGeneralINSt7__cxx1112basic_stringIcSt11char_traitsIcESaIcEEESt4lessIS8_EEEbESaISC_EE11_S_max_sizeERKSD_
FNDA:15,_ZNSt12_Vector_baseISt4pairIN3s2115IteratorGeneralIS0_IKiNSt7__cxx1112basic_stringIcSt11char_traitsIcESaIcEEEENS1_10My_CompareISA_St4lessIiEEEEEbESaISG_EE11_M_allocateEm
FNDA:2,_ZNSt12_Vector_baseISt4pairIN3s2115IteratorGeneralIiSt7greaterIiEEEbESaIS6_EED2Ev
FNDA:3,_ZNSt12_Vector_baseINSt7__cxx1112basic_stringIcSt11char_traitsIcESaIcEEESaIS5_EEC2EmRKS6_
FNDA:38,_ZNSt6vectorISt4pairIN3s2115IteratorGeneralINSt7__cxx1112basic_stringIcSt11char_traitsIcESaIcEEESt4lessIS8_EEEbESaISC_EE4backEv
FNDA:12,_ZNKSt6vectorISt4pairIN3s2115IteratorGeneralIS0_IKiiENS1_10My_CompareIS4_St7greaterIiEEEEEbESaISA_EE4sizeEv
FNDA:5,_ZNSt12_Vector_baseISt4pairIN3s2115IteratorGeneralIS0_IKiNSt7__cxx1112basic_stringIcSt11char_traitsIcESaIcEEEENS1_10My_CompareISA_St4lessIiEEEEEbESaISG_EE17_Vector_impl_dataC2Ev
FNDA:15,_ZNSt6vectorISt4pairIN3s2115IteratorGeneralIS0_IKiNSt7__cxx1112basic_stringIcSt11char_traitsIcESaIcEEEENS1_10My_CompareISA_St4lessIiEEEEEbESaISG_EE4backEv
FNDA:4,_ZNSt12_Vector_baseISt4pairIN3s2115IteratorGeneralIS0_IKiiENS1_10My_CompareIS4_St7greaterIiEEEEEbESaISA_EE13_M_deallocateEPSA_m
FNDA:64,_ZNSt6vectorISt4pairIN3s2115IteratorGeneralINSt7__cxx1112basic_stringIcSt11char_traitsIcESaIcEEESt4lessIS8_EEEbESaISC_EE11_S_relocateEPSC_SF_SF_RSD_
FNDA:10,_ZNSt6vectorISt4pairIN3s2115IteratorGeneralINSt7__cxx1112basic_stringIcSt11char_traitsIcESaIcEEESt4lessIS8_EEEbESaISC_EEC2Ev
FNDA:63,_ZNSt6vectorINSt7__cxx1112basic_stringIcSt11char_traitsIcESaIcEEESaIS5_EE3endEv
FNDA:1,_ZNSt6vectorISt4pairIN3s2115IteratorGeneralIS0_IKiiENS1_10My_CompareIS4_St7greaterIiEEEEEbESaISA_EED2Ev
FNDA:2,_ZNSt12_Vector_baseISt4pairIN3s2115IteratorGeneralIiSt7greaterIiEEEbESaIS6_EE12_Vector_implC2Ev
FNDA:2,_ZNSt12_Vector_baseISt4pairIN3s2115IteratorGeneralIiSt7greaterIiEEEbESaIS6_EEC2Ev
FNDA:3,_ZNSt12_Vector_baseISt4pairIN3s2115IteratorGeneralIS0_IKiiENS1_10My_CompareIS4_St7greaterIiEEEEEbESaISA_EE11_M_allocateEm
FNDA:39,_ZNSt12_Vector_baseINSt7__cxx1112basic_stringIcSt11char_traitsIcESaIcEEESaIS5_EED2Ev
FNDA:15,_ZNKSt6vectorISt4pairIN3s2115IteratorGeneralIS0_IKiNSt7__cxx1112basic_stringIcSt11char_traitsIcESaIcEEEENS1_10My_CompareISA_St4lessIiEEEEEbESaISG_EE12_M_check_lenEmPKc
FNDA:3,_ZNKSt6vectorISt4pairIN3s2115IteratorGeneralIS0_IKiiENS1_10My_CompareIS4_St7greaterIiEEEEEbESaISA_EE12_M_check_lenEmPKc
FNDA:6,_ZNSt6vectorISt4pairIN3s2115IteratorGeneralIiSt7greaterIiEEEbESaIS6_EE4backEv
FNDA:14,_ZNSt12_Vector_baseISt4pairIN3s2115IteratorGeneralIiSt7greaterIiEEEbESaIS6_EE19_M_get_Tp_allocatorEv
FNDA:30,_ZNSt6vectorISt4pairIN3s2115IteratorGeneralIS0_IKiNSt7__cxx1112basic_stringIcSt11char_traitsIcESaIcEEEENS1_10My_CompareISA_St4lessIiEEEEEbESaISG_EE11_S_relocateEPSG_SJ_SJ_RSH_
FNDA:4,_ZNSt6vectorISt4pairIN3s2115IteratorGeneralIS0_IKiiENS1_10My_CompareIS4_St7greaterIiEEEEEbESaISA_EE9push_backEOSA_
FNDA:24,_ZNKSt6vectorISt4pairIN3s2115IteratorGeneralIiSt7greaterIiEEEbESaIS6_EE4sizeEv
FNDA:2,_ZNSt6vectorISt4pairIN3s2115IteratorGeneralIiSt7greaterIiEEEbESaIS6_EEC2Ev
FNDA:1,_ZNSt12_Vector_baseISt4pairIN3s2115IteratorGeneralIS0_IKiiENS1_10My_CompareIS4_St7greaterIiEEEEEbESaISA_EEC2Ev
FNDA:6,_ZNSt6vectorISt4pairIN3s2115IteratorGeneralIiSt7greaterIiEEEbESaIS6_EE9push_backEOS6_
FNDA:8,_ZNSt12_Vector_baseISt4pairIN3s2115IteratorGeneralIiSt7greaterIiEEEbESaIS6_EE13_M_deallocateEPS6_m
FNDA:1,_ZNSt12_Vector_baseISt4pairIN3s2115IteratorGeneralIS0_IKiiENS1_10My_CompareIS4_St7greaterIiEEEEEbESaISA_EED2Ev
FNDA:4,_ZNSt12_Vector_baseINSt7__cxx1112basic_stringIcSt11char_traitsIcESaIcEEESaIS5_EE12_Vector_implC2ERKS6_
FNDA:74,_ZNSt12_Vector_baseISt4pairIN3s2115IteratorGeneralINSt7__cxx1112basic_stringIcSt11char_traitsIcESaIcEEESt4lessIS8_EEEbESaISC_EE19_M_get_Tp_allocatorEv
FNDA:1,_ZNSt12_Vector_baseISt4pairIN3s2115IteratorGeneralIS0_IKiiENS1_10My_CompareIS4_St7greaterIiEEEEEbESaISA_EE12_Vector_implC2Ev
FNDA:12,_ZNSt6vectorISt4pairIN3s2115IteratorGeneralIiSt7greaterIiEEEbESaIS6_EE11_S_relocateEPS6_S9_S9_RS7_
FNDA:32,_ZNSt12_Vector_baseISt4pairIN3s2115IteratorGeneralINSt7__cxx1112basic_stringIcSt11char_traitsIcESaIcEEESt4lessIS8_EEEbESaISC_EE11_M_allocateEm
FNDA:30,_ZNKSt6vectorISt4pairIN3s2115IteratorGeneralIS0_IKiNSt7__cxx1112basic_stringIcSt11char_traitsIcESaIcEEEENS1_10My_CompareISA_St4lessIiEEEEEbESaISG_EE8max_sizeEv
FNDA:6,_ZNSt6vectorISt4pairIN3s2115IteratorGeneralIS0_IKiiENS1_10My_CompareIS4_St7greaterIiEEEEEbESaISA_EE14_S_do_relocateEPSA_SD_SD_RSB_St17integral_constantIbLb1EE
FNDA:3,_ZNSt12_Vector_baseINSt7__cxx1112basic_stringIcSt11char_traitsIcESaIcEEESaIS5_EE17_M_create_storageEm
FNDA:6,_ZNKSt6vectorISt4pairIN3s2115IteratorGeneralIS0_IKiiENS1_10My_CompareIS4_St7greaterIiEEEEEbESaISA_EE8max_sizeEv
FNDA:34,_ZNSt12_Vector_baseINSt7__cxx1112basic_stringIcSt11char_traitsIcESaIcEEESaIS5_EE11_M_allocateEm
FNDA:15,_ZNSt6vectorISt4pairIN3s2115IteratorGeneralIS0_IKiNSt7__cxx1112basic_stringIcSt11char_traitsIcESaIcEEEENS1_10My_CompareISA_St4lessIiEEEEEbESaISG_EE9push_backEOSG_
FNDA:53,_ZNSt6vectorINSt7__cxx1112basic_stringIcSt11char_traitsIcESaIcEEESaIS5_EE11_S_max_sizeERKS6_
FNDA:7,_ZNSt12_Vector_baseISt4pairIN3s2115IteratorGeneralIS0_IKiiENS1_10My_CompareIS4_St7greaterIiEEEEEbESaISA_EE19_M_get_Tp_allocatorEv
FNDA:1,_ZNSt6vectorINSt7__cxx1112basic_stringIcSt11char_traitsIcESaIcEEESaIS5_EE18_M_fill_initializeEmRKS5_
FNDA:2,_ZNSt12_Vector_baseISt4pairIN3s2115IteratorGeneralIiSt7greaterIiEEEbESaIS6_EE17_Vector_impl_dataC2Ev
FNDA:38,_ZNSt6vectorISt4pairIN3s2115IteratorGeneralINSt7__cxx1112basic_stringIcSt11char_traitsIcESaIcEEESt4lessIS8_EEEbESaISC_EE9push_backEOSC_
FNDA:5,_ZNSt12_Vector_baseISt4pairIN3s2115IteratorGeneralIS0_IKiNSt7__cxx1112basic_stringIcSt11char_traitsIcESaIcEEEENS1_10My_CompareISA_St4lessIiEEEEEbESaISG_EE12_Vector_implC2Ev
FNDA:5,_ZNSt12_Vector_baseISt4pairIN3s2115IteratorGeneralIS0_IKiNSt7__cxx1112basic_stringIcSt11char_traitsIcESaIcEEEENS1_10My_CompareISA_St4lessIiEEEEEbESaISG_EED2Ev
FNDA:70,_ZNSt6vectorISt4pairIN3s2115IteratorGeneralINSt7__cxx1112basic_stringIcSt11char_traitsIcESaIcEEESt4lessIS8_EEEbESaISC_EE3endEv
FNDA:12,_ZNSt6vectorISt4pairIN3s2115IteratorGeneralIiSt7greaterIiEEEbESaIS6_EE11_S_max_sizeERKS7_
FNDA:63,_ZNSt6vectorINSt7__cxx1112basic_stringIcSt11char_traitsIcESaIcEEESaIS5_EE5beginEv
FNDA:12,_ZNSt6vectorISt4pairIN3s2115IteratorGeneralIiSt7greaterIiEEEbESaIS6_EE14_S_do_relocateEPS6_S9_S9_RS7_St17integral_constantIbLb1EE
FNDA:30,_ZNKSt12_Vector_baseISt4pairIN3s2115IteratorGeneralIS0_IKiNSt7__cxx1112basic_stringIcSt11char_traitsIcESaIcEEEENS1_10My_CompareISA_St4lessIiEEEEEbESaISG_EE19_M_get_Tp_allocatorEv
FNDA:5,_ZNSt6vectorISt4pairIN3s2115IteratorGeneralIS0_IKiNSt7__cxx1112basic_stringIcSt11char_traitsIcESaIcEEEENS1_10My_CompareISA_St4lessIiEEEEEbESaISG_EED2Ev
FNDA:32,_ZNSt6vectorISt4pairIN3s2115IteratorGeneralINSt7__cxx1112basic_stringIcSt11char_traitsIcESaIcEEESt4lessIS8_EEEbESaISC_EE5beginEv
FNF:96
FNH:96
DA:97,70
DA:98,70
DA:99,70
DA:131,18
DA:133,18
DA:134,18
DA:136,4
DA:137,4
DA:138,4
DA:276,248
DA:277,248
DA:280,112
DA:281,112
DA:288,18
DA:303,3
DA:304,3
DA:305,3
DA:333,57
DA:335,57
DA:336,57
DA:337,57
DA:343,90
DA:346,90
DA:350,144
DA:353,144
DA:354,89
DA:355,144
DA:359,3
DA:361,3
DA:362,3
DA:363,3
DA:364,3
DA:453,112
DA:456,112
DA:465,112
DA:469,112
DA:487,18
DA:522,1
DA:524,1
DA:525,1
DA:678,57
DA:680,57
DA:681,57
DA:683,57
DA:811,119
DA:812,119
DA:829,182
DA:830,182
DA:918,224
DA:919,224
DA:923,112
DA:924,112
DA:1043,3
DA:1046,3
DA:1143,63
DA:1146,63
DA:1203,63
DA:1204,63
DA:1593,1
DA:1595,1
DA:1596,1
DA:1597,1
DA:1598,1
DA:1756,56
DA:1758,56
DA:1759,0
DA:1761,56
DA:1762,56
DA:1767,1
DA:1769,1
DA:1770,0
DA:1772,1
DA:1776,165
DA:1781,165
DA:1783,165
DA:1784,165
LF:76
LH:74
end_of_record
TN:
SF:/usr/include/c++/11/bits/unique_ptr.h
FN:79,_ZNKSt14default_deleteINSt7__cxx1118basic_stringstreamIcSt11char_traitsIcESaIcEEEEclEPS5_
FN:79,_ZNKSt14default_deleteINSt7__cxx1112basic_stringIcSt11char_traitsIcESaIcEEEEclEPS5_
FN:172,_ZNSt15__uniq_ptr_implINSt7__cxx1118basic_stringstreamIcSt11char_traitsIcESaIcEEESt14default_deleteIS5_EE6_M_ptrEv
FN:172,_ZNSt15__uniq_ptr_implINSt7__cxx1112basic_stringIcSt11char_traitsIcESaIcEEESt14default_deleteIS5_EE6_M_ptrEv
FN:173,_ZNKSt15__uniq_ptr_implINSt7__cxx1112basic_stringIcSt11char_traitsIcESaIcEEESt14default_deleteIS5_EE6_M_ptrEv
FN:174,_ZNSt15__uniq_ptr_implINSt7__cxx1118basic_stringstreamIcSt11char_traitsIcESaIcEEESt14default_deleteIS5_EE10_M_deleterEv
FN:174,_ZNSt15__uniq_ptr_implINSt7__cxx1112basic_stringIcSt11char_traitsIcESaIcEEESt14default_deleteIS5_EE10_M_deleterEv
FN:355,_ZNSt10unique_ptrINSt7__cxx1112basic_stringIcSt11char_traitsIcESaIcEEESt14default_deleteIS5_EED2Ev
FN:355,_ZNSt10unique_ptrINSt7__cxx1118basic_stringstreamIcSt11char_traitsIcESaIcEEESt14default_deleteIS5_EED2Ev
FN:413,_ZNKSt10unique_ptrINSt7__cxx1112basic_stringIcSt11char_traitsIcESaIcEEESt14default_deleteIS5_EEptEv
FN:421,_ZNKSt10unique_ptrINSt7__cxx1112basic_stringIcSt11char_traitsIcESaIcEEESt14default_deleteIS5_EE3getEv
FN:426,_ZNSt10unique_ptrINSt7__cxx1118basic_stringstreamIcSt11char_traitsIcESaIcEEESt14default_deleteIS5_EE11get_deleterEv
FN:426,_ZNSt10unique_ptrINSt7__cxx1112basic_stringIcSt11char_traitsIcESaIcEEESt14default_deleteIS5_EE11get_deleterEv
FNDA:1189,_ZNSt15__uniq_ptr_implINSt7__cxx1112basic_stringIcSt11char_traitsIcESaIcEEESt14default_deleteIS5_EE6_M_ptrEv
FNDA:0,_ZNKSt10unique_ptrINSt7__cxx1112basic_stringIcSt11char_traitsIcESaIcEEESt14default_deleteIS5_EEptEv
FNDA:346,_ZNSt10unique_ptrINSt7__cxx1118basic_stringstreamIcSt11char_traitsIcESaIcEEESt14default_deleteIS5_EED2Ev
FNDA:0,_ZNKSt14default_deleteINSt7__cxx1112basic_stringIcSt11char_traitsIcESaIcEEEEclEPS5_
FNDA:0,_ZNSt10unique_ptrINSt7__cxx1112basic_stringIcSt11char_traitsIcESaIcEEESt14default_deleteIS5_EE11get_deleterEv
FNDA:0,_ZNKSt10unique_ptrINSt7__cxx1112basic_stringIcSt11char_traitsIcESaIcEEESt14default_deleteIS5_EE3getEv
FNDA:0,_ZNSt15__uniq_ptr_implINSt7__cxx1112basic_stringIcSt11char_traitsIcESaIcEEESt14default_deleteIS5_EE10_M_deleterEv
FNDA:346,_ZNSt10unique_ptrINSt7__cxx1118basic_stringstreamIcSt11char_traitsIcESaIcEEESt14default_deleteIS5_EE11get_deleterEv
FNDA:0,_ZNKSt15__uniq_ptr_implINSt7__cxx1112basic_stringIcSt11char_traitsIcESaIcEEESt14default_deleteIS5_EE6_M_ptrEv
FNDA:692,_ZNSt15__uniq_ptr_implINSt7__cxx1118basic_stringstreamIcSt11char_traitsIcESaIcEEESt14default_deleteIS5_EE6_M_ptrEv
FNDA:346,_ZNSt15__uniq_ptr_implINSt7__cxx1118basic_stringstreamIcSt11char_traitsIcESaIcEEESt14default_deleteIS5_EE10_M_deleterEv
FNDA:346,_ZNKSt14default_deleteINSt7__cxx1118basic_stringstreamIcSt11char_traitsIcESaIcEEEEclEPS5_
FNDA:1189,_ZNSt10unique_ptrINSt7__cxx1112basic_stringIcSt11char_traitsIcESaIcEEESt14default_deleteIS5_EED2Ev
FNF:13
FNH:7
DA:79,346
DA:85,346
DA:86,346
DA:172,1881
DA:173,0
DA:174,346
DA:355,1535
DA:359,1535
DA:360,1535
DA:361,346
DA:362,1535
DA:363,1535
DA:413,0
DA:416,0
DA:421,0
DA:422,0
DA:426,346
DA:427,346
LF:18
LH:13
end_of_record
TN:
SF:/usr/include/c++/11/bits/vector.tcc
FN:109,_ZNSt6vectorISt4pairIN3s2115IteratorGeneralIiSt7greaterIiEEEbESaIS6_EE12emplace_backIJS6_EEERS6_DpOT_
FN:109,_ZNSt6vectorISt4pairIN3s2115IteratorGeneralINSt7__cxx1112basic_stringIcSt11char_traitsIcESaIcEEESt4lessIS8_EEEbESaISC_EE12emplace_backIJSC_EEERSC_DpOT_
FN:109,_ZNSt6vectorISt4pairIN3s2115IteratorGeneralIS0_IKiiENS1_10My_CompareIS4_St7greaterIiEEEEEbESaISA_EE12emplace_backIJSA_EEERSA_DpOT_
FN:109,_ZNSt6vectorISt4pairIN3s2115IteratorGeneralIS0_IKiNSt7__cxx1112basic_stringIcSt11char_traitsIcESaIcEEEENS1_10My_CompareISA_St4lessIiEEEEEbESaISG_EE12emplace_backIJSG_EEERSG_DpOT_
FN:426,_ZNSt6vectorISt4pairIN3s2115IteratorGeneralIS0_IKiNSt7__cxx1112basic_stringIcSt11char_traitsIcESaIcEEEENS1_10My_CompareISA_St4lessIiEEEEEbESaISG_EE17_M_realloc_insertIJSG_EEEvN9__gnu_cxx17__normal_iteratorIPSG_SI_EEDpOT_
FN:426,_ZNSt6vectorISt4pairIN3s2115IteratorGeneralIS0_IKiiENS1_10My_CompareIS4_St7greaterIiEEEEEbESaISA_EE17_M_realloc_insertIJSA_EEEvN9__gnu_cxx17__normal_iteratorIPSA_SC_EEDpOT_
FN:426,_ZNSt6vectorISt4pairIN3s2115IteratorGeneralIiSt7greaterIiEEEbESaIS6_EE17_M_realloc_insertIJS6_EEEvN9__gnu_cxx17__normal_iteratorIPS6_S8_EEDpOT_
FN:426,_ZNSt6vectorISt4pairIN3s2115IteratorGeneralINSt7__cxx1112basic_stringIcSt11char_traitsIcESaIcEEESt4lessIS8_EEEbESaISC_EE17_M_realloc_insertIJSC_EEEvN9__gnu_cxx17__normal_iteratorIPSC_SE_EEDpOT_
FNDA:32,_ZNSt6vectorISt4pairIN3s2115IteratorGeneralINSt7__cxx1112basic_stringIcSt11char_traitsIcESaIcEEESt4lessIS8_EEEbESaISC_EE17_M_realloc_insertIJSC_EEEvN9__gnu_cxx17__normal_iteratorIPSC_SE_EEDpOT_
FNDA:15,_ZNSt6vectorISt4pairIN3s2115IteratorGeneralIS0_IKiNSt7__cxx1112basic_stringIcSt11char_traitsIcESaIcEEEENS1_10My_CompareISA_St4lessIiEEEEEbESaISG_EE12emplace_backIJSG_EEERSG_DpOT_
FNDA:6,_ZNSt6vectorISt4pairIN3s2115IteratorGeneralIiSt7greaterIiEEEbESaIS6_EE17_M_realloc_insertIJS6_EEEvN9__gnu_cxx17__normal_iteratorIPS6_S8_EEDpOT_
FNDA:4,_ZNSt6vectorISt4pairIN3s2115IteratorGeneralIS0_IKiiENS1_10My_CompareIS4_St7greaterIiEEEEEbESaISA_EE12emplace_backIJSA_EEERSA_DpOT_
FNDA:38,_ZNSt6vectorISt4pairIN3s2115IteratorGeneralINSt7__cxx1112basic_stringIcSt11char_traitsIcESaIcEEESt4lessIS8_EEEbESaISC_EE12emplace_backIJSC_EEERSC_DpOT_
FNDA:3,_ZNSt6vectorISt4pairIN3s2115IteratorGeneralIS0_IKiiENS1_10My_CompareIS4_St7greaterIiEEEEEbESaISA_EE17_M_realloc_insertIJSA_EEEvN9__gnu_cxx17__normal_iteratorIPSA_SC_EEDpOT_
FNDA:15,_ZNSt6vectorISt4pairIN3s2115IteratorGeneralIS0_IKiNSt7__cxx1112basic_stringIcSt11char_traitsIcESaIcEEEENS1_10My_CompareISA_St4lessIiEEEEEbESaISG_EE17_M_realloc_insertIJSG_EEEvN9__gnu_cxx17__normal_iteratorIPSG_SI_EEDpOT_
FNDA:6,_ZNSt6vectorISt4pairIN3s2115IteratorGeneralIiSt7greaterIiEEEbESaIS6_EE12emplace_backIJS6_EEERS6_DpOT_
FNF:8
FNH:8
DA:109,63
DA:112,63
DA:115,7
DA:117,7
DA:121,56
DA:123,63
DA:426,56
DA:436,56
DA:437,56
DA:438,56
DA:439,56
DA:440,56
DA:441,56
DA:449,56
DA:450,56
DA:456,56
DA:461,56
DA:462,56
DA:464,56
DA:466,56
DA:467,56
DA:500,56
DA:501,56
DA:502,56
DA:503,56
DA:504,56
DA:505,56
LF:27
LH:27
end_of_record
TN:
SF:/usr/include/c++/11/ext/aligned_buffer.h
FN:64,_ZN9__gnu_cxx16__aligned_membufISt4pairIKiNSt7__cxx1112basic_stringIcSt11char_traitsIcESaIcEEEEE7_M_addrEv
FN:64,_ZN9__gnu_cxx16__aligned_membufIiE7_M_addrEv
FN:64,_ZN9__gnu_cxx16__aligned_membufISt4pairIKiiEE7_M_addrEv
FN:64,_ZN9__gnu_cxx16__aligned_membufINSt7__cxx1112basic_stringIcSt11char_traitsIcESaIcEEEE7_M_addrEv
FN:68,_ZNK9__gnu_cxx16__aligned_membufISt4pairIKiNSt7__cxx1112basic_stringIcSt11char_traitsIcESaIcEEEEE7_M_addrEv
FN:68,_ZNK9__gnu_cxx16__aligned_membufISt4pairIKiiEE7_M_addrEv
FN:68,_ZNK9__gnu_cxx16__aligned_membufIiE7_M_addrEv
FN:68,_ZNK9__gnu_cxx16__aligned_membufINSt7__cxx1112basic_stringIcSt11char_traitsIcESaIcEEEE7_M_addrEv
FN:72,_ZN9__gnu_cxx16__aligned_membufIiE6_M_ptrEv
FN:72,_ZN9__gnu_cxx16__aligned_membufISt4pairIKiiEE6_M_ptrEv
FN:72,_ZN9__gnu_cxx16__aligned_membufINSt7__cxx1112basic_stringIcSt11char_traitsIcESaIcEEEE6_M_ptrEv
FN:72,_ZN9__gnu_cxx16__aligned_membufISt4pairIKiNSt7__cxx1112basic_stringIcSt11char_traitsIcESaIcEEEEE6_M_ptrEv
FN:76,_ZNK9__gnu_cxx16__aligned_membufISt4pairIKiNSt7__cxx1112basic_stringIcSt11char_traitsIcESaIcEEEEE6_M_ptrEv
FN:76,_ZNK9__gnu_cxx16__aligned_membufIiE6_M_ptrEv
FN:76,_ZNK9__gnu_cxx16__aligned_membufINSt7__cxx1112basic_stringIcSt11char_traitsIcESaIcEEEE6_M_ptrEv
FN:76,_ZNK9__gnu_cxx16__aligned_membufISt4pairIKiiEE6_M_ptrEv
FNDA:100,_ZNK9__gnu_cxx16__aligned_membufISt4pairIKiiEE6_M_ptrEv
FNDA:158,_ZN9__gnu_cxx16__aligned_membufINSt7__cxx1112basic_stringIcSt11char_traitsIcESaIcEEEE7_M_addrEv
FNDA:187,_ZNK9__gnu_cxx16__aligned_membufINSt7__cxx1112basic_stringIcSt11char_traitsIcESaIcEEEE6_M_ptrEv
FNDA:512,_ZN9__gnu_cxx16__aligned_membufISt4pairIKiNSt7__cxx1112basic_stringIcSt11char_traitsIcESaIcEEEEE6_M_ptrEv
FNDA:187,_ZNK9__gnu_cxx16__aligned_membufINSt7__cxx1112basic_stringIcSt11char_traitsIcESaIcEEEE7_M_addrEv
FNDA:100,_ZNK9__gnu_cxx16__aligned_membufISt4pairIKiiEE7_M_addrEv
FNDA:89,_ZNK9__gnu_cxx16__aligned_membufIiE7_M_addrEv
FNDA:94,_ZNK9__gnu_cxx16__aligned_membufISt4pairIKiNSt7__cxx1112basic_stringIcSt11char_traitsIcESaIcEEEEE6_M_ptrEv
FNDA:47,_ZN9__gnu_cxx16__aligned_membufIiE6_M_ptrEv
FNDA:512,_ZN9__gnu_cxx16__aligned_membufISt4pairIKiNSt7__cxx1112basic_stringIcSt11char_traitsIcESaIcEEEEE7_M_addrEv
FNDA:94,_ZNK9__gnu_cxx16__aligned_membufISt4pairIKiNSt7__cxx1112basic_stringIcSt11char_traitsIcESaIcEEEEE7_M_addrEv
FNDA:158,_ZN9__gnu_cxx16__aligned_membufINSt7__cxx1112basic_stringIcSt11char_traitsIcESaIcEEEE6_M_ptrEv
FNDA:89,_ZNK9__gnu_cxx16__aligned_membufIiE6_M_ptrEv
FNDA:298,_ZN9__gnu_cxx16__aligned_membufISt4pairIKiiEE6_M_ptrEv
FNDA:298,_ZN9__gnu_cxx16__aligned_membufISt4pairIKiiEE7_M_addrEv
FNDA:47,_ZN9__gnu_cxx16__aligned_membufIiE7_M_addrEv
FNF:16
FNH:16
DA:64,1015
DA:65,1015
DA:68,470
DA:69,470
DA:72,1015
DA:73,1015
DA:76,470
DA:77,470
LF:8
LH:8
end_of_record
TN:
SF:/usr/include/c++/11/ext/alloc_traits.h
FN:97,_ZN9__gnu_cxx14__alloc_traitsISaISt13_Rb_tree_nodeIiEES2_E17_S_select_on_copyERKS3_
FN:97,_ZN9__gnu_cxx14__alloc_traitsISaISt13_Rb_tree_nodeISt4pairIKiiEEES5_E17_S_select_on_copyERKS6_
FN:97,_ZN9__gnu_cxx14__alloc_traitsISaISt13_Rb_tree_nodeISt4pairIKiNSt7__cxx1112basic_stringIcSt11char_traitsIcESaIcEEEEEESB_E17_S_select_on_copyERKSC_
FN:97,_ZN9__gnu_cxx14__alloc_traitsISaIcEcE17_S_select_on_copyERKS1_
FN:97,_ZN9__gnu_cxx14__alloc_traitsISaISt13_Rb_tree_nodeINSt7__cxx1112basic_stringIcSt11char_traitsIcESaIcEEEEES8_E17_S_select_on_copyERKS9_
FNDA:7,_ZN9__gnu_cxx14__alloc_traitsISaISt13_Rb_tree_nodeINSt7__cxx1112basic_stringIcSt11char_traitsIcESaIcEEEEES8_E17_S_select_on_copyERKS9_
FNDA:8,_ZN9__gnu_cxx14__alloc_traitsISaISt13_Rb_tree_nodeISt4pairIKiiEEES5_E17_S_select_on_copyERKS6_
FNDA:1,_ZN9__gnu_cxx14__alloc_traitsISaISt13_Rb_tree_nodeIiEES2_E17_S_select_on_copyERKS3_
FNDA:16,_ZN9__gnu_cxx14__alloc_traitsISaISt13_Rb_tree_nodeISt4pairIKiNSt7__cxx1112basic_stringIcSt11char_traitsIcESaIcEEEEEESB_E17_S_select_on_copyERKSC_
FNDA:0,_ZN9__gnu_cxx14__alloc_traitsISaIcEcE17_S_select_on_copyERKS1_
FNF:5
FNH:4
DA:97,32
DA:98,32
LF:2
LH:2
end_of_record
TN:
SF:/usr/include/c++/11/ext/new_allocator.h
FN:79,_ZN9__gnu_cxx13new_allocatorISt4pairIN3s2115IteratorGeneralIiSt7greaterIiEEEbEEC2Ev
FN:79,_ZN9__gnu_cxx13new_allocatorISt13_Rb_tree_nodeISt4pairIKiiEEEC2Ev
FN:79,_ZN9__gnu_cxx13new_allocatorIcEC2Ev
FN:79,_ZN9__gnu_cxx13new_allocatorISt13_Rb_tree_nodeINSt7__cxx1112basic_stringIcSt11char_traitsIcESaIcEEEEEC2Ev
FN:79,_ZN9__gnu_cxx13new_allocatorISt4pairIN3s2115IteratorGeneralIS1_IKiNSt7__cxx1112basic_stringIcSt11char_traitsIcESaIcEEEENS2_10My_CompareISB_St4lessIiEEEEEbEEC2Ev
FN:79,_ZN9__gnu_cxx13new_allocatorISt13_Rb_tree_nodeIiEEC2Ev
FN:79,_ZN9__gnu_cxx13new_allocatorISt4pairIN3s2115IteratorGeneralINSt7__cxx1112basic_stringIcSt11char_traitsIcESaIcEEESt4lessIS9_EEEbEEC2Ev
FN:79,_ZN9__gnu_cxx13new_allocatorISt13_Rb_tree_nodeISt4pairIKiNSt7__cxx1112basic_stringIcSt11char_traitsIcESaIcEEEEEEC2Ev
FN:79,_ZN9__gnu_cxx13new_allocatorIiEC2Ev
FN:79,_ZN9__gnu_cxx13new_allocatorISt4pairIN3s2115IteratorGeneralIS1_IKiiENS2_10My_CompareIS5_St7greaterIiEEEEEbEEC2Ev
FN:79,_ZN9__gnu_cxx13new_allocatorISt4pairIKiiEEC2Ev
FN:79,_ZN9__gnu_cxx13new_allocatorISt4pairIKiNSt7__cxx1112basic_stringIcSt11char_traitsIcESaIcEEEEEC2Ev
FN:79,_ZN9__gnu_cxx13new_allocatorINSt7__cxx1112basic_stringIcSt11char_traitsIcESaIcEEEEC2Ev
FN:82,_ZN9__gnu_cxx13new_allocatorISt13_Rb_tree_nodeISt4pairIKiiEEEC2ERKS6_
FN:82,_ZN9__gnu_cxx13new_allocatorISt13_Rb_tree_nodeIiEEC2ERKS3_
FN:82,_ZN9__gnu_cxx13new_allocatorISt13_Rb_tree_nodeINSt7__cxx1112basic_stringIcSt11char_traitsIcESaIcEEEEEC2ERKS9_
FN:82,_ZN9__gnu_cxx13new_allocatorISt13_Rb_tree_nodeISt4pairIKiNSt7__cxx1112basic_stringIcSt11char_traitsIcESaIcEEEEEEC2ERKSC_
FN:82,_ZN9__gnu_cxx13new_allocatorIcEC2ERKS1_
FN:82,_ZN9__gnu_cxx13new_allocatorIiEC2ERKS1_
FN:82,_ZN9__gnu_cxx13new_allocatorISt4pairIKiNSt7__cxx1112basic_stringIcSt11char_traitsIcESaIcEEEEEC2ERKSA_
FN:82,_ZN9__gnu_cxx13new_allocatorISt4pairIKiiEEC2ERKS4_
FN:82,_ZN9__gnu_cxx13new_allocatorINSt7__cxx1112basic_stringIcSt11char_traitsIcESaIcEEEEC2ERKS7_
FN:89,_ZN9__gnu_cxx13new_allocatorISt4pairIN3s2115IteratorGeneralIS1_IKiNSt7__cxx1112basic_stringIcSt11char_traitsIcESaIcEEEENS2_10My_CompareISB_St4lessIiEEEEEbEED2Ev
FN:89,_ZN9__gnu_cxx13new_allocatorISt4pairIKiNSt7__cxx1112basic_stringIcSt11char_traitsIcESaIcEEEEED2Ev
FN:89,_ZN9__gnu_cxx13new_allocatorISt13_Rb_tree_nodeISt4pairIKiNSt7__cxx1112basic_stringIcSt11char_traitsIcESaIcEEEEEED2Ev
FN:89,_ZN9__gnu_cxx13new_allocatorIcED2Ev
FN:89,_ZN9__gnu_cxx13new_allocatorISt4pairIN3s2115IteratorGeneralIS1_IKiiENS2_10My_CompareIS5_St7greaterIiEEEEEbEED2Ev
FN:89,_ZN9__gnu_cxx13new_allocatorISt4pairIN3s2115IteratorGeneralIiSt7greaterIiEEEbEED2Ev
FN:89,_ZN9__gnu_cxx13new_allocatorISt13_Rb_tree_nodeIiEED2Ev
FN:89,_ZN9__gnu_cxx13new_allocatorISt13_Rb_tree_nodeINSt7__cxx1112basic_stringIcSt11char_traitsIcESaIcEEEEED2Ev
FN:89,_ZN9__gnu_cxx13new_allocatorISt4pairIN3s2115IteratorGeneralINSt7__cxx1112basic_stringIcSt11char_traitsIcESaIcEEESt4lessIS9_EEEbEED2Ev
FN:89,_ZN9__gnu_cxx13new_allocatorINSt7__cxx1112basic_stringIcSt11char_traitsIcESaIcEEEED2Ev
FN:89,_ZN9__gnu_cxx13new_allocatorIiED2Ev
FN:89,_ZN9__gnu_cxx13new_allocatorISt4pairIKiiEED2Ev
FN:89,_ZN9__gnu_cxx13new_allocatorISt13_Rb_tree_nodeISt4pairIKiiEEED2Ev
FN:103,_ZN9__gnu_cxx13new_allocatorISt4pairIN3s2115IteratorGeneralINSt7__cxx1112basic_stringIcSt11char_traitsIcESaIcEEESt4lessIS9_EEEbEE8allocateEmPKv
FN:103,_ZN9__gnu_cxx13new_allocatorINSt7__cxx1112basic_stringIcSt11char_traitsIcESaIcEEEE8allocateEmPKv
FN:103,_ZN9__gnu_cxx13new_allocatorISt13_Rb_tree_nodeIiEE8allocateEmPKv
FN:103,_ZN9__gnu_cxx13new_allocatorISt13_Rb_tree_nodeISt4pairIKiiEEE8allocateEmPKv
FN:103,_ZN9__gnu_cxx13new_allocatorISt13_Rb_tree_nodeISt4pairIKiNSt7__cxx1112basic_stringIcSt11char_traitsIcESaIcEEEEEE8allocateEmPKv
FN:103,_ZN9__gnu_cxx13new_allocatorISt4pairIN3s2115IteratorGeneralIiSt7greaterIiEEEbEE8allocateEmPKv
FN:103,_ZN9__gnu_cxx13new_allocatorISt4pairIN3s2115IteratorGeneralIS1_IKiiENS2_10My_CompareIS5_St7greaterIiEEEEEbEE8allocateEmPKv
FN:103,_ZN9__gnu_cxx13new_allocatorISt13_Rb_tree_nodeINSt7__cxx1112basic_stringIcSt11char_traitsIcESaIcEEEEE8allocateEmPKv
FN:103,_ZN9__gnu_cxx13new_allocatorISt4pairIN3s2115IteratorGeneralIS1_IKiNSt7__cxx1112basic_stringIcSt11char_traitsIcESaIcEEEENS2_10My_CompareISB_St4lessIiEEEEEbEE8allocateEmPKv
FN:132,_ZN9__gnu_cxx13new_allocatorISt13_Rb_tree_nodeIiEE10deallocateEPS2_m
FN:132,_ZN9__gnu_cxx13new_allocatorISt4pairIN3s2115IteratorGeneralIiSt7greaterIiEEEbEE10deallocateEPS7_m
FN:132,_ZN9__gnu_cxx13new_allocatorISt13_Rb_tree_nodeISt4pairIKiNSt7__cxx1112basic_stringIcSt11char_traitsIcESaIcEEEEEE10deallocateEPSB_m
FN:132,_ZN9__gnu_cxx13new_allocatorISt4pairIN3s2115IteratorGeneralIS1_IKiiENS2_10My_CompareIS5_St7greaterIiEEEEEbEE10deallocateEPSB_m
FN:132,_ZN9__gnu_cxx13new_allocatorISt4pairIN3s2115IteratorGeneralINSt7__cxx1112basic_stringIcSt11char_traitsIcESaIcEEESt4lessIS9_EEEbEE10deallocateEPSD_m
FN:132,_ZN9__gnu_cxx13new_allocatorISt13_Rb_tree_nodeISt4pairIKiiEEE10deallocateEPS5_m
FN:132,_ZN9__gnu_cxx13new_allocatorISt13_Rb_tree_nodeINSt7__cxx1112basic_stringIcSt11char_traitsIcESaIcEEEEE10deallocateEPS8_m
FN:132,_ZN9__gnu_cxx13new_allocatorISt4pairIN3s2115IteratorGeneralIS1_IKiNSt7__cxx1112basic_stringIcSt11char_traitsIcESaIcEEEENS2_10My_CompareISB_St4lessIiEEEEEbEE10deallocateEPSH_m
FN:132,_ZN9__gnu_cxx13new_allocatorINSt7__cxx1112basic_stringIcSt11char_traitsIcESaIcEEEE10deallocateEPS6_m
FN:154,_ZNK9__gnu_cxx13new_allocatorISt4pairIN3s2115IteratorGeneralIS1_IKiNSt7__cxx1112basic_stringIcSt11char_traitsIcESaIcEEEENS2_10My_CompareISB_St4lessIiEEEEEbEE8max_sizeEv
FN:154,_ZNK9__gnu_cxx13new_allocatorINSt7__cxx1112basic_stringIcSt11char_traitsIcESaIcEEEE8max_sizeEv
FN:154,_ZNK9__gnu_cxx13new_allocatorISt4pairIN3s2115IteratorGeneralIS1_IKiiENS2_10My_CompareIS5_St7greaterIiEEEEEbEE8max_sizeEv
FN:154,_ZNK9__gnu_cxx13new_allocatorISt4pairIN3s2115IteratorGeneralINSt7__cxx1112basic_stringIcSt11char_traitsIcESaIcEEESt4lessIS9_EEEbEE8max_sizeEv
FN:154,_ZNK9__gnu_cxx13new_allocatorISt4pairIN3s2115IteratorGeneralIiSt7greaterIiEEEbEE8max_sizeEv
FN:160,_ZN9__gnu_cxx13new_allocatorISt4pairIN3s2115IteratorGeneralIS1_IKiiENS2_10My_CompareIS5_St7greaterIiEEEEEbEE9constructISB_JSB_EEEvPT_DpOT0_
FN:160,_ZN9__gnu_cxx13new_allocatorISt4pairIN3s2115IteratorGeneralIiSt7greaterIiEEEbEE9constructIS7_JS7_EEEvPT_DpOT0_
FN:160,_ZN9__gnu_cxx13new_allocatorISt4pairIN3s2115IteratorGeneralIS1_IKiNSt7__cxx1112basic_stringIcSt11char_traitsIcESaIcEEEENS2_10My_CompareISB_St4lessIiEEEEEbEE9constructISH_JSH_EEEvPT_DpOT0_
FN:160,_ZN9__gnu_cxx13new_allocatorISt13_Rb_tree_nodeISt4pairIKiNSt7__cxx1112basic_stringIcSt11char_traitsIcESaIcEEEEEE9constructISA_JRKSA_EEEvPT_DpOT0_
FN:160,_ZN9__gnu_cxx13new_allocatorISt4pairIN3s2115IteratorGeneralINSt7__cxx1112basic_stringIcSt11char_traitsIcESaIcEEESt4lessIS9_EEEbEE9constructISD_JSD_EEEvPT_DpOT0_
FN:160,_ZN9__gnu_cxx13new_allocatorISt13_Rb_tree_nodeISt4pairIKiiEEE9constructIS4_JRKS4_EEEvPT_DpOT0_
FN:160,_ZN9__gnu_cxx13new_allocatorISt13_Rb_tree_nodeINSt7__cxx1112basic_stringIcSt11char_traitsIcESaIcEEEEE9constructIS7_JRKS7_EEEvPT_DpOT0_
FN:160,_ZN9__gnu_cxx13new_allocatorISt13_Rb_tree_nodeIiEE9constructIiJRKiEEEvPT_DpOT0_
FN:166,_ZN9__gnu_cxx13new_allocatorISt4pairIN3s2115IteratorGeneralIiSt7greaterIiEEEbEE7destroyIS7_EEvPT_
FN:166,_ZN9__gnu_cxx13new_allocatorISt13_Rb_tree_nodeISt4pairIKiiEEE7destroyIS4_EEvPT_
FN:166,_ZN9__gnu_cxx13new_allocatorISt13_Rb_tree_nodeIiEE7destroyIiEEvPT_
FN:166,_ZN9__gnu_cxx13new_allocatorISt4pairIN3s2115IteratorGeneralINSt7__cxx1112basic_stringIcSt11char_traitsIcESaIcEEESt4lessIS9_EEEbEE7destroyISD_EEvPT_
FN:166,_ZN9__gnu_cxx13new_allocatorISt4pairIN3s2115IteratorGeneralIS1_IKiNSt7__cxx1112basic_stringIcSt11char_traitsIcESaIcEEEENS2_10My_CompareISB_St4lessIiEEEEEbEE7destroyISH_EEvPT_
FN:166,_ZN9__gnu_cxx13new_allocatorISt13_Rb_tree_nodeISt4pairIKiNSt7__cxx1112basic_stringIcSt11char_traitsIcESaIcEEEEEE7destroyISA_EEvPT_
FN:166,_ZN9__gnu_cxx13new_allocatorISt13_Rb_tree_nodeINSt7__cxx1112basic_stringIcSt11char_traitsIcESaIcEEEEE7destroyIS7_EEvPT_
FN:166,_ZN9__gnu_cxx13new_allocatorISt4pairIN3s2115IteratorGeneralIS1_IKiiENS2_10My_CompareIS5_St7greaterIiEEEEEbEE7destroyISB_EEvPT_
FN:197,_ZNK9__gnu_cxx13new_allocatorISt4pairIN3s2115IteratorGeneralIiSt7greaterIiEEEbEE11_M_max_sizeEv
FN:197,_ZNK9__gnu_cxx13new_allocatorISt13_Rb_tree_nodeINSt7__cxx1112basic_stringIcSt11char_traitsIcESaIcEEEEE11_M_max_sizeEv
FN:197,_ZNK9__gnu_cxx13new_allocatorISt13_Rb_tree_nodeIiEE11_M_max_sizeEv
FN:197,_ZNK9__gnu_cxx13new_allocatorINSt7__cxx1112basic_stringIcSt11char_traitsIcESaIcEEEE11_M_max_sizeEv
FN:197,_ZNK9__gnu_cxx13new_allocatorISt4pairIN3s2115IteratorGeneralIS1_IKiNSt7__cxx1112basic_stringIcSt11char_traitsIcESaIcEEEENS2_10My_CompareISB_St4lessIiEEEEEbEE11_M_max_sizeEv
FN:197,_ZNK9__gnu_cxx13new_allocatorISt4pairIN3s2115IteratorGeneralINSt7__cxx1112basic_stringIcSt11char_traitsIcESaIcEEESt4lessIS9_EEEbEE11_M_max_sizeEv
FN:197,_ZNK9__gnu_cxx13new_allocatorISt4pairIN3s2115IteratorGeneralIS1_IKiiENS2_10My_CompareIS5_St7greaterIiEEEEEbEE11_M_max_sizeEv
FN:197,_ZNK9__gnu_cxx13new_allocatorISt13_Rb_tree_nodeISt4pairIKiiEEE11_M_max_sizeEv
FN:197,_ZNK9__gnu_cxx13new_allocatorISt13_Rb_tree_nodeISt4pairIKiNSt7__cxx1112basic_stringIcSt11char_traitsIcESaIcEEEEEE11_M_max_sizeEv
FNDA:2,_ZN9__gnu_cxx13new_allocatorISt4pairIKiNSt7__cxx1112basic_stringIcSt11char_traitsIcESaIcEEEEED2Ev
FNDA:20,_ZN9__gnu_cxx13new_allocatorISt13_Rb_tree_nodeIiEE8allocateEmPKv
FNDA:7,_ZN9__gnu_cxx13new_allocatorISt4pairIN3s2115IteratorGeneralIS1_IKiiENS2_10My_CompareIS5_St7greaterIiEEEEEbEE9constructISB_JSB_EEEvPT_DpOT0_
FNDA:34,_ZN9__gnu_cxx13new_allocatorISt13_Rb_tree_nodeISt4pairIKiNSt7__cxx1112basic_stringIcSt11char_traitsIcESaIcEEEEEED2Ev
FNDA:30,_ZNK9__gnu_cxx13new_allocatorISt4pairIN3s2115IteratorGeneralIS1_IKiNSt7__cxx1112basic_stringIcSt11char_traitsIcESaIcEEEENS2_10My_CompareISB_St4lessIiEEEEEbEE8max_sizeEv
FNDA:17,_ZN9__gnu_cxx13new_allocatorISt13_Rb_tree_nodeISt4pairIKiiEEEC2ERKS6_
FNDA:32,_ZN9__gnu_cxx13new_allocatorISt4pairIN3s2115IteratorGeneralINSt7__cxx1112basic_stringIcSt11char_traitsIcESaIcEEESt4lessIS9_EEEbEE8allocateEmPKv
FNDA:33,_ZN9__gnu_cxx13new_allocatorINSt7__cxx1112basic_stringIcSt11char_traitsIcESaIcEEEE8allocateEmPKv
FNDA:2,_ZN9__gnu_cxx13new_allocatorISt4pairIN3s2115IteratorGeneralIiSt7greaterIiEEEbEEC2Ev
FNDA:136,_ZN9__gnu_cxx13new_allocatorISt13_Rb_tree_nodeISt4pairIKiNSt7__cxx1112basic_stringIcSt11char_traitsIcESaIcEEEEEE10deallocateEPSB_m
FNDA:5,_ZN9__gnu_cxx13new_allocatorISt4pairIN3s2115IteratorGeneralIS1_IKiNSt7__cxx1112basic_stringIcSt11char_traitsIcESaIcEEEENS2_10My_CompareISB_St4lessIiEEEEEbEED2Ev
FNDA:1,_ZN9__gnu_cxx13new_allocatorISt13_Rb_tree_nodeISt4pairIKiiEEEC2Ev
FNDA:20,_ZN9__gnu_cxx13new_allocatorISt13_Rb_tree_nodeIiEE10deallocateEPS2_m
FNDA:6,_ZN9__gnu_cxx13new_allocatorISt4pairIN3s2115IteratorGeneralIiSt7greaterIiEEEbEE10deallocateEPS7_m
FNDA:61,_ZNK9__gnu_cxx13new_allocatorISt13_Rb_tree_nodeINSt7__cxx1112basic_stringIcSt11char_traitsIcESaIcEEEEE11_M_max_sizeEv
FNDA:10,_ZN9__gnu_cxx13new_allocatorISt4pairIN3s2115IteratorGeneralINSt7__cxx1112basic_stringIcSt11char_traitsIcESaIcEEESt4lessIS9_EEEbEEC2Ev
FNDA:38,_ZN9__gnu_cxx13new_allocatorISt4pairIN3s2115IteratorGeneralINSt7__cxx1112basic_stringIcSt11char_traitsIcESaIcEEESt4lessIS9_EEEbEE7destroyISD_EEvPT_
FNDA:20,_ZN9__gnu_cxx13new_allocatorISt13_Rb_tree_nodeIiEE7destroyIiEEvPT_
FNDA:4,_ZN9__gnu_cxx13new_allocatorISt13_Rb_tree_nodeIiEED2Ev
FNDA:1,_ZN9__gnu_cxx13new_allocatorISt13_Rb_tree_nodeISt4pairIKiNSt7__cxx1112basic_stringIcSt11char_traitsIcESaIcEEEEEEC2Ev
FNDA:20,_ZNK9__gnu_cxx13new_allocatorISt13_Rb_tree_nodeIiEE11_M_max_sizeEv
FNDA:21,_ZN9__gnu_cxx13new_allocatorISt13_Rb_tree_nodeINSt7__cxx1112basic_stringIcSt11char_traitsIcESaIcEEEEED2Ev
FNDA:3,_ZN9__gnu_cxx13new_allocatorISt4pairIN3s2115IteratorGeneralIS1_IKiiENS2_10My_CompareIS5_St7greaterIiEEEEEbEE10deallocateEPSB_m
FNDA:81,_ZN9__gnu_cxx13new_allocatorISt13_Rb_tree_nodeISt4pairIKiiEEE7destroyIS4_EEvPT_
FNDA:1,_ZN9__gnu_cxx13new_allocatorISt13_Rb_tree_nodeIiEEC2Ev
FNDA:53,_ZNK9__gnu_cxx13new_allocatorINSt7__cxx1112basic_stringIcSt11char_traitsIcESaIcEEEE8max_sizeEv
FNDA:18,_ZNK9__gnu_cxx13new_allocatorISt4pairIN3s2115IteratorGeneralIiSt7greaterIiEEEbEE11_M_max_sizeEv
FNDA:0,_ZN9__gnu_cxx13new_allocatorIcED2Ev
FNDA:1,_ZN9__gnu_cxx13new_allocatorISt4pairIN3s2115IteratorGeneralIS1_IKiiENS2_10My_CompareIS5_St7greaterIiEEEEEbEED2Ev
FNDA:1,_ZN9__gnu_cxx13new_allocatorIiEC2ERKS1_
FNDA:0,_ZN9__gnu_cxx13new_allocatorIcEC2Ev
FNDA:2,_ZN9__gnu_cxx13new_allocatorISt4pairIN3s2115IteratorGeneralIiSt7greaterIiEEEbEED2Ev
FNDA:81,_ZN9__gnu_cxx13new_allocatorISt13_Rb_tree_nodeISt4pairIKiiEEE8allocateEmPKv
FNDA:4,_ZN9__gnu_cxx13new_allocatorISt13_Rb_tree_nodeINSt7__cxx1112basic_stringIcSt11char_traitsIcESaIcEEEEEC2Ev
FNDA:5,_ZN9__gnu_cxx13new_allocatorISt4pairIN3s2115IteratorGeneralIS1_IKiNSt7__cxx1112basic_stringIcSt11char_traitsIcESaIcEEEENS2_10My_CompareISB_St4lessIiEEEEEbEEC2Ev
FNDA:3,_ZN9__gnu_cxx13new_allocatorISt13_Rb_tree_nodeIiEEC2ERKS3_
FNDA:12,_ZN9__gnu_cxx13new_allocatorISt4pairIN3s2115IteratorGeneralIiSt7greaterIiEEEbEE9constructIS7_JS7_EEEvPT_DpOT0_
FNDA:17,_ZN9__gnu_cxx13new_allocatorISt13_Rb_tree_nodeINSt7__cxx1112basic_stringIcSt11char_traitsIcESaIcEEEEEC2ERKS9_
FNDA:33,_ZN9__gnu_cxx13new_allocatorISt13_Rb_tree_nodeISt4pairIKiNSt7__cxx1112basic_stringIcSt11char_traitsIcESaIcEEEEEEC2ERKSC_
FNDA:6,_ZN9__gnu_cxx13new_allocatorISt4pairIN3s2115IteratorGeneralIiSt7greaterIiEEEbEE7destroyIS7_EEvPT_
FNDA:0,_ZN9__gnu_cxx13new_allocatorIcEC2ERKS1_
FNDA:15,_ZN9__gnu_cxx13new_allocatorISt4pairIN3s2115IteratorGeneralIS1_IKiNSt7__cxx1112basic_stringIcSt11char_traitsIcESaIcEEEENS2_10My_CompareISB_St4lessIiEEEEEbEE10deallocateEPSH_m
FNDA:64,_ZNK9__gnu_cxx13new_allocatorISt4pairIN3s2115IteratorGeneralINSt7__cxx1112basic_stringIcSt11char_traitsIcESaIcEEESt4lessIS9_EEEbEE8max_sizeEv
FNDA:1,_ZN9__gnu_cxx13new_allocatorISt4pairIKiiEEC2Ev
FNDA:10,_ZN9__gnu_cxx13new_allocatorIiEC2Ev
FNDA:1,_ZN9__gnu_cxx13new_allocatorISt4pairIN3s2115IteratorGeneralIS1_IKiiENS2_10My_CompareIS5_St7greaterIiEEEEEbEEC2Ev
FNDA:1,_ZN9__gnu_cxx13new_allocatorISt4pairIKiiEEC2ERKS4_
FNDA:61,_ZN9__gnu_cxx13new_allocatorISt13_Rb_tree_nodeINSt7__cxx1112basic_stringIcSt11char_traitsIcESaIcEEEEE8allocateEmPKv
FNDA:50,_ZN9__gnu_cxx13new_allocatorINSt7__cxx1112basic_stringIcSt11char_traitsIcESaIcEEEED2Ev
FNDA:136,_ZN9__gnu_cxx13new_allocatorISt13_Rb_tree_nodeISt4pairIKiNSt7__cxx1112basic_stringIcSt11char_traitsIcESaIcEEEEEE7destroyISA_EEvPT_
FNDA:61,_ZN9__gnu_cxx13new_allocatorISt13_Rb_tree_nodeINSt7__cxx1112basic_stringIcSt11char_traitsIcESaIcEEEEE10deallocateEPS8_m
FNDA:76,_ZN9__gnu_cxx13new_allocatorISt4pairIN3s2115IteratorGeneralINSt7__cxx1112basic_stringIcSt11char_traitsIcESaIcEEESt4lessIS9_EEEbEE9constructISD_JSD_EEEvPT_DpOT0_
FNDA:6,_ZN9__gnu_cxx13new_allocatorISt4pairIN3s2115IteratorGeneralIiSt7greaterIiEEEbEE8allocateEmPKv
FNDA:10,_ZN9__gnu_cxx13new_allocatorISt4pairIN3s2115IteratorGeneralINSt7__cxx1112basic_stringIcSt11char_traitsIcESaIcEEESt4lessIS9_EEEbEED2Ev
FNDA:32,_ZN9__gnu_cxx13new_allocatorISt4pairIN3s2115IteratorGeneralINSt7__cxx1112basic_stringIcSt11char_traitsIcESaIcEEESt4lessIS9_EEEbEE10deallocateEPSD_m
FNDA:15,_ZN9__gnu_cxx13new_allocatorISt4pairIN3s2115IteratorGeneralIS1_IKiNSt7__cxx1112basic_stringIcSt11char_traitsIcESaIcEEEENS2_10My_CompareISB_St4lessIiEEEEEbEE7destroyISH_EEvPT_
FNDA:3,_ZN9__gnu_cxx13new_allocatorISt4pairIN3s2115IteratorGeneralIS1_IKiiENS2_10My_CompareIS5_St7greaterIiEEEEEbEE8allocateEmPKv
FNDA:45,_ZNK9__gnu_cxx13new_allocatorISt4pairIN3s2115IteratorGeneralIS1_IKiNSt7__cxx1112basic_stringIcSt11char_traitsIcESaIcEEEENS2_10My_CompareISB_St4lessIiEEEEEbEE11_M_max_sizeEv
FNDA:81,_ZN9__gnu_cxx13new_allocatorISt13_Rb_tree_nodeISt4pairIKiiEEE10deallocateEPS5_m
FNDA:6,_ZNK9__gnu_cxx13new_allocatorISt4pairIN3s2115IteratorGeneralIS1_IKiiENS2_10My_CompareIS5_St7greaterIiEEEEEbEE8max_sizeEv
FNDA:1,_ZN9__gnu_cxx13new_allocatorISt4pairIKiNSt7__cxx1112basic_stringIcSt11char_traitsIcESaIcEEEEEC2ERKSA_
FNDA:136,_ZN9__gnu_cxx13new_allocatorISt13_Rb_tree_nodeISt4pairIKiNSt7__cxx1112basic_stringIcSt11char_traitsIcESaIcEEEEEE8allocateEmPKv
FNDA:86,_ZNK9__gnu_cxx13new_allocatorINSt7__cxx1112basic_stringIcSt11char_traitsIcESaIcEEEE11_M_max_sizeEv
FNDA:30,_ZN9__gnu_cxx13new_allocatorISt4pairIN3s2115IteratorGeneralIS1_IKiNSt7__cxx1112basic_stringIcSt11char_traitsIcESaIcEEEENS2_10My_CompareISB_St4lessIiEEEEEbEE9constructISH_JSH_EEEvPT_DpOT0_
FNDA:136,_ZN9__gnu_cxx13new_allocatorISt13_Rb_tree_nodeISt4pairIKiNSt7__cxx1112basic_stringIcSt11char_traitsIcESaIcEEEEEE9constructISA_JRKSA_EEEvPT_DpOT0_
FNDA:12,_ZNK9__gnu_cxx13new_allocatorISt4pairIN3s2115IteratorGeneralIiSt7greaterIiEEEbEE8max_sizeEv
FNDA:2,_ZN9__gnu_cxx13new_allocatorISt4pairIKiiEED2Ev
FNDA:18,_ZN9__gnu_cxx13new_allocatorISt13_Rb_tree_nodeISt4pairIKiiEEED2Ev
FNDA:3,_ZN9__gnu_cxx13new_allocatorISt4pairIN3s2115IteratorGeneralIS1_IKiiENS2_10My_CompareIS5_St7greaterIiEEEEEbEE7destroyISB_EEvPT_
FNDA:20,_ZN9__gnu_cxx13new_allocatorISt13_Rb_tree_nodeIiEE9constructIiJRKiEEEvPT_DpOT0_
FNDA:33,_ZN9__gnu_cxx13new_allocatorINSt7__cxx1112basic_stringIcSt11char_traitsIcESaIcEEEE10deallocateEPS6_m
FNDA:11,_ZN9__gnu_cxx13new_allocatorIiED2Ev
FNDA:136,_ZNK9__gnu_cxx13new_allocatorISt13_Rb_tree_nodeISt4pairIKiNSt7__cxx1112basic_stringIcSt11char_traitsIcESaIcEEEEEE11_M_max_sizeEv
FNDA:11,_ZN9__gnu_cxx13new_allocatorINSt7__cxx1112basic_stringIcSt11char_traitsIcESaIcEEEEC2ERKS7_
FNDA:15,_ZN9__gnu_cxx13new_allocatorISt4pairIN3s2115IteratorGeneralIS1_IKiNSt7__cxx1112basic_stringIcSt11char_traitsIcESaIcEEEENS2_10My_CompareISB_St4lessIiEEEEEbEE8allocateEmPKv
FNDA:61,_ZN9__gnu_cxx13new_allocatorISt13_Rb_tree_nodeINSt7__cxx1112basic_stringIcSt11char_traitsIcESaIcEEEEE7destroyIS7_EEvPT_
FNDA:9,_ZNK9__gnu_cxx13new_allocatorISt4pairIN3s2115IteratorGeneralIS1_IKiiENS2_10My_CompareIS5_St7greaterIiEEEEEbEE11_M_max_sizeEv
FNDA:39,_ZN9__gnu_cxx13new_allocatorINSt7__cxx1112basic_stringIcSt11char_traitsIcESaIcEEEEC2Ev
FNDA:61,_ZN9__gnu_cxx13new_allocatorISt13_Rb_tree_nodeINSt7__cxx1112basic_stringIcSt11char_traitsIcESaIcEEEEE9constructIS7_JRKS7_EEEvPT_DpOT0_
FNDA:81,_ZNK9__gnu_cxx13new_allocatorISt13_Rb_tree_nodeISt4pairIKiiEEE11_M_max_sizeEv
FNDA:81,_ZN9__gnu_cxx13new_allocatorISt13_Rb_tree_nodeISt4pairIKiiEEE9constructIS4_JRKS4_EEEvPT_DpOT0_
FNDA:1,_ZN9__gnu_cxx13new_allocatorISt4pairIKiNSt7__cxx1112basic_stringIcSt11char_traitsIcESaIcEEEEEC2Ev
FNDA:96,_ZNK9__gnu_cxx13new_allocatorISt4pairIN3s2115IteratorGeneralINSt7__cxx1112basic_stringIcSt11char_traitsIcESaIcEEESt4lessIS9_EEEbEE11_M_max_sizeEv
FNF:83
FNH:80
DA:79,76
DA:82,84
DA:89,160
DA:103,387
DA:111,387
DA:115,0
DA:116,0
DA:117,0
DA:127,387
DA:132,387
DA:145,387
DA:154,165
DA:155,165
DA:160,423
DA:162,423
DA:166,360
DA:168,360
DA:197,552
DA:200,552
LF:19
LH:16
end_of_record
TN:
SF:/usr/include/c++/11/ext/type_traits.h
FN:152,_ZN9__gnu_cxx17__is_null_pointerIcEEbPT_
FN:152,_ZN9__gnu_cxx17__is_null_pointerIKcEEbPT_
FNDA:2449,_ZN9__gnu_cxx17__is_null_pointerIKcEEbPT_
FNDA:0,_ZN9__gnu_cxx17__is_null_pointerIcEEbPT_
FNF:2
FNH:1
DA:152,2449
DA:153,2449
LF:2
LH:2
end_of_record
TN:
SF:/usr/include/c++/11/initializer_list
FN:71,_ZNKSt16initializer_listISt4pairIKiiEE4sizeEv
FN:71,_ZNKSt16initializer_listINSt7__cxx1112basic_stringIcSt11char_traitsIcESaIcEEEE4sizeEv
FN:71,_ZNKSt16initializer_listISt4pairIKiNSt7__cxx1112basic_stringIcSt11char_traitsIcESaIcEEEEE4sizeEv
FN:71,_ZNKSt16initializer_listIiE4sizeEv
FN:75,_ZNKSt16initializer_listISt4pairIKiiEE5beginEv
FN:75,_ZNKSt16initializer_listINSt7__cxx1112basic_stringIcSt11char_traitsIcESaIcEEEE5beginEv
FN:75,_ZNKSt16initializer_listIiE5beginEv
FN:75,_ZNKSt16initializer_listISt4pairIKiNSt7__cxx1112basic_stringIcSt11char_traitsIcESaIcEEEEE5beginEv
FN:79,_ZNKSt16initializer_listINSt7__cxx1112basic_stringIcSt11char_traitsIcESaIcEEEE3endEv
FN:79,_ZNKSt16initializer_listISt4pairIKiNSt7__cxx1112basic_stringIcSt11char_traitsIcESaIcEEEEE3endEv
FN:79,_ZNKSt16initializer_listISt4pairIKiiEE3endEv
FN:79,_ZNKSt16initializer_listIiE3endEv
FNDA:419,_ZNKSt16initializer_listIiE4sizeEv
FNDA:88,_ZNKSt16initializer_listIiE3endEv
FNDA:43,_ZNKSt16initializer_listISt4pairIKiiEE3endEv
FNDA:253,_ZNKSt16initializer_listINSt7__cxx1112basic_stringIcSt11char_traitsIcESaIcEEEE5beginEv
FNDA:236,_ZNKSt16initializer_listIiE5beginEv
FNDA:60,_ZNKSt16initializer_listISt4pairIKiNSt7__cxx1112basic_stringIcSt11char_traitsIcESaIcEEEEE5beginEv
FNDA:30,_ZNKSt16initializer_listISt4pairIKiNSt7__cxx1112basic_stringIcSt11char_traitsIcESaIcEEEEE3endEv
FNDA:775,_ZNKSt16initializer_listINSt7__cxx1112basic_stringIcSt11char_traitsIcESaIcEEEE4sizeEv
FNDA:30,_ZNKSt16initializer_listISt4pairIKiNSt7__cxx1112basic_stringIcSt11char_traitsIcESaIcEEEEE4sizeEv
FNDA:43,_ZNKSt16initializer_listISt4pairIKiiEE4sizeEv
FNDA:65,_ZNKSt16initializer_listINSt7__cxx1112basic_stringIcSt11char_traitsIcESaIcEEEE3endEv
FNDA:86,_ZNKSt16initializer_listISt4pairIKiiEE5beginEv
FNF:12
FNH:12
DA:71,1267
DA:75,635
DA:79,226
LF:3
LH:3
end_of_record
TN:
SF:/usr/include/c++/11/new
FN:174,_ZnwmPv
FN:180,_ZdlPvS_
FNDA:1337,_ZnwmPv
FNDA:0,_ZdlPvS_
FNF:2
FNH:1
DA:174,1337
DA:175,1337
DA:180,0
LF:3
LH:2
end_of_record
TN:
SF:/usr/include/c++/11/tuple
FN:124,_ZNSt10_Head_baseILm1ESt14default_deleteINSt7__cxx1118basic_stringstreamIcSt11char_traitsIcESaIcEEEELb1EE7_M_headERS8_
FN:124,_ZNSt10_Head_baseILm1ESt14default_deleteINSt7__cxx1112basic_stringIcSt11char_traitsIcESaIcEEEELb1EE7_M_headERS8_
FN:233,_ZNSt10_Head_baseILm0EPNSt7__cxx1118basic_stringstreamIcSt11char_traitsIcESaIcEEELb0EE7_M_headERS7_
FN:233,_ZNSt10_Head_baseILm0EPNSt7__cxx1112basic_stringIcSt11char_traitsIcESaIcEEELb0EE7_M_headERS7_
FN:236,_ZNSt10_Head_baseILm0EPNSt7__cxx1112basic_stringIcSt11char_traitsIcESaIcEEELb0EE7_M_headERKS7_
FN:268,_ZNSt11_Tuple_implILm0EJPNSt7__cxx1112basic_stringIcSt11char_traitsIcESaIcEEESt14default_deleteIS5_EEE7_M_headERS9_
FN:268,_ZNSt11_Tuple_implILm0EJPNSt7__cxx1118basic_stringstreamIcSt11char_traitsIcESaIcEEESt14default_deleteIS5_EEE7_M_headERS9_
FN:271,_ZNSt11_Tuple_implILm0EJPNSt7__cxx1112basic_stringIcSt11char_traitsIcESaIcEEESt14default_deleteIS5_EEE7_M_headERKS9_
FN:424,_ZNSt11_Tuple_implILm1EJSt14default_deleteINSt7__cxx1118basic_stringstreamIcSt11char_traitsIcESaIcEEEEEE7_M_headERS8_
FN:424,_ZNSt11_Tuple_implILm1EJSt14default_deleteINSt7__cxx1112basic_stringIcSt11char_traitsIcESaIcEEEEEE7_M_headERS8_
FN:1381,_ZSt12__get_helperILm1ESt14default_deleteINSt7__cxx1112basic_stringIcSt11char_traitsIcESaIcEEEEJEERT0_RSt11_Tuple_implIXT_EJS8_DpT1_EE
FN:1381,_ZSt12__get_helperILm0EPNSt7__cxx1112basic_stringIcSt11char_traitsIcESaIcEEEJSt14default_deleteIS5_EEERT0_RSt11_Tuple_implIXT_EJS9_DpT1_EE
FN:1381,_ZSt12__get_helperILm1ESt14default_deleteINSt7__cxx1118basic_stringstreamIcSt11char_traitsIcESaIcEEEEJEERT0_RSt11_Tuple_implIXT_EJS8_DpT1_EE
FN:1381,_ZSt12__get_helperILm0EPNSt7__cxx1118basic_stringstreamIcSt11char_traitsIcESaIcEEEJSt14default_deleteIS5_EEERT0_RSt11_Tuple_implIXT_EJS9_DpT1_EE
FN:1386,_ZSt12__get_helperILm0EPNSt7__cxx1112basic_stringIcSt11char_traitsIcESaIcEEEJSt14default_deleteIS5_EEERKT0_RKSt11_Tuple_implIXT_EJS9_DpT1_EE
FN:1397,_ZSt3getILm1EJPNSt7__cxx1112basic_stringIcSt11char_traitsIcESaIcEEESt14default_deleteIS5_EEERNSt13tuple_elementIXT_ESt5tupleIJDpT0_EEE4typeERSD_
FN:1397,_ZSt3getILm1EJPNSt7__cxx1118basic_stringstreamIcSt11char_traitsIcESaIcEEESt14default_deleteIS5_EEERNSt13tuple_elementIXT_ESt5tupleIJDpT0_EEE4typeERSD_
FN:1397,_ZSt3getILm0EJPNSt7__cxx1112basic_stringIcSt11char_traitsIcESaIcEEESt14default_deleteIS5_EEERNSt13tuple_elementIXT_ESt5tupleIJDpT0_EEE4typeERSD_
FN:1397,_ZSt3getILm0EJPNSt7__cxx1118basic_stringstreamIcSt11char_traitsIcESaIcEEESt14default_deleteIS5_EEERNSt13tuple_elementIXT_ESt5tupleIJDpT0_EEE4typeERSD_
FN:1403,_ZSt3getILm0EJPNSt7__cxx1112basic_stringIcSt11char_traitsIcESaIcEEESt14default_deleteIS5_EEERKNSt13tuple_elementIXT_ESt5tupleIJDpT0_EEE4typeERKSD_
FNDA:0,_ZNSt10_Head_baseILm0EPNSt7__cxx1112basic_stringIcSt11char_traitsIcESaIcEEELb0EE7_M_headERKS7_
FNDA:692,_ZNSt11_Tuple_implILm0EJPNSt7__cxx1118basic_stringstreamIcSt11char_traitsIcESaIcEEESt14default_deleteIS5_EEE7_M_headERS9_
FNDA:0,_ZSt12__get_helperILm0EPNSt7__cxx1112basic_stringIcSt11char_traitsIcESaIcEEEJSt14default_deleteIS5_EEERKT0_RKSt11_Tuple_implIXT_EJS9_DpT1_EE
FNDA:346,_ZSt3getILm1EJPNSt7__cxx1118basic_stringstreamIcSt11char_traitsIcESaIcEEESt14default_deleteIS5_EEERNSt13tuple_elementIXT_ESt5tupleIJDpT0_EEE4typeERSD_
FNDA:0,_ZNSt11_Tuple_implILm1EJSt14default_deleteINSt7__cxx1112basic_stringIcSt11char_traitsIcESaIcEEEEEE7_M_headERS8_
FNDA:692,_ZSt3getILm0EJPNSt7__cxx1118basic_stringstreamIcSt11char_traitsIcESaIcEEESt14default_deleteIS5_EEERNSt13tuple_elementIXT_ESt5tupleIJDpT0_EEE4typeERSD_
FNDA:1189,_ZSt3getILm0EJPNSt7__cxx1112basic_stringIcSt11char_traitsIcESaIcEEESt14default_deleteIS5_EEERNSt13tuple_elementIXT_ESt5tupleIJDpT0_EEE4typeERSD_
FNDA:692,_ZSt12__get_helperILm0EPNSt7__cxx1118basic_stringstreamIcSt11char_traitsIcESaIcEEEJSt14default_deleteIS5_EEERT0_RSt11_Tuple_implIXT_EJS9_DpT1_EE
FNDA:346,_ZNSt11_Tuple_implILm1EJSt14default_deleteINSt7__cxx1118basic_stringstreamIcSt11char_traitsIcESaIcEEEEEE7_M_headERS8_
FNDA:0,_ZNSt10_Head_baseILm1ESt14default_deleteINSt7__cxx1112basic_stringIcSt11char_traitsIcESaIcEEEELb1EE7_M_headERS8_
FNDA:0,_ZSt12__get_helperILm1ESt14default_deleteINSt7__cxx1112basic_stringIcSt11char_traitsIcESaIcEEEEJEERT0_RSt11_Tuple_implIXT_EJS8_DpT1_EE
FNDA:692,_ZNSt10_Head_baseILm0EPNSt7__cxx1118basic_stringstreamIcSt11char_traitsIcESaIcEEELb0EE7_M_headERS7_
FNDA:346,_ZNSt10_Head_baseILm1ESt14default_deleteINSt7__cxx1118basic_stringstreamIcSt11char_traitsIcESaIcEEEELb1EE7_M_headERS8_
FNDA:0,_ZSt3getILm1EJPNSt7__cxx1112basic_stringIcSt11char_traitsIcESaIcEEESt14default_deleteIS5_EEERNSt13tuple_elementIXT_ESt5tupleIJDpT0_EEE4typeERSD_
FNDA:0,_ZNSt11_Tuple_implILm0EJPNSt7__cxx1112basic_stringIcSt11char_traitsIcESaIcEEESt14default_deleteIS5_EEE7_M_headERKS9_
FNDA:346,_ZSt12__get_helperILm1ESt14default_deleteINSt7__cxx1118basic_stringstreamIcSt11char_traitsIcESaIcEEEEJEERT0_RSt11_Tuple_implIXT_EJS8_DpT1_EE
FNDA:1189,_ZSt12__get_helperILm0EPNSt7__cxx1112basic_stringIcSt11char_traitsIcESaIcEEEJSt14default_deleteIS5_EEERT0_RSt11_Tuple_implIXT_EJS9_DpT1_EE
FNDA:1189,_ZNSt11_Tuple_implILm0EJPNSt7__cxx1112basic_stringIcSt11char_traitsIcESaIcEEESt14default_deleteIS5_EEE7_M_headERS9_
FNDA:0,_ZSt3getILm0EJPNSt7__cxx1112basic_stringIcSt11char_traitsIcESaIcEEESt14default_deleteIS5_EEERKNSt13tuple_elementIXT_ESt5tupleIJDpT0_EEE4typeERKSD_
FNDA:1189,_ZNSt10_Head_baseILm0EPNSt7__cxx1112basic_stringIcSt11char_traitsIcESaIcEEELb0EE7_M_headERS7_
FNF:20
FNH:12
DA:124,346
DA:233,1881
DA:236,0
DA:268,1881
DA:271,0
DA:424,346
DA:1381,2227
DA:1382,2227
DA:1386,0
DA:1387,0
DA:1397,2227
DA:1398,2227
DA:1403,0
DA:1404,0
LF:14
LH:8
end_of_record
TN:
SF:/usr/include/c++/11/typeinfo
FN:99,_ZNKSt9type_info4nameEv
FNDA:0,_ZNKSt9type_info4nameEv
FNF:1
FNH:0
DA:99,0
DA:100,0
LF:2
LH:0
end_of_record
